
AVRASM ver. 2.1.30  D:\info\Shems\spirt\spirt v.1\spirt\program_V0.32\List\spirt.asm Wed Feb 27 20:08:26 2019

D:\info\Shems\spirt\spirt v.1\spirt\program_V0.32\List\spirt.asm(1074): warning: Register r5 already defined by the .DEF directive
D:\info\Shems\spirt\spirt v.1\spirt\program_V0.32\List\spirt.asm(1075): warning: Register r4 already defined by the .DEF directive
D:\info\Shems\spirt\spirt v.1\spirt\program_V0.32\List\spirt.asm(1076): warning: Register r7 already defined by the .DEF directive
D:\info\Shems\spirt\spirt v.1\spirt\program_V0.32\List\spirt.asm(1077): warning: Register r6 already defined by the .DEF directive
D:\info\Shems\spirt\spirt v.1\spirt\program_V0.32\List\spirt.asm(1078): warning: Register r8 already defined by the .DEF directive
D:\info\Shems\spirt\spirt v.1\spirt\program_V0.32\List\spirt.asm(1079): warning: Register r11 already defined by the .DEF directive
D:\info\Shems\spirt\spirt v.1\spirt\program_V0.32\List\spirt.asm(1080): warning: Register r10 already defined by the .DEF directive
D:\info\Shems\spirt\spirt v.1\spirt\program_V0.32\List\spirt.asm(1081): warning: Register r13 already defined by the .DEF directive
D:\info\Shems\spirt\spirt v.1\spirt\program_V0.32\List\spirt.asm(1082): warning: Register r12 already defined by the .DEF directive
                 
                 
                 ;CodeVisionAVR C Compiler V2.05.3 Standard
                 ;(C) Copyright 1998-2011 Pavel Haiduc, HP InfoTech s.r.l.
                 ;http://www.hpinfotech.com
                 
                 ;Chip type                : ATmega128
                 ;Program type             : Application
                 ;Clock frequency          : 14,745600 MHz
                 ;Memory model             : Small
                 ;Optimize for             : Size
                 ;(s)printf features       : float, width, precision
                 ;(s)scanf features        : int, width
                 ;External RAM size        : 0
                 ;Data Stack size          : 1024 byte(s)
                 ;Heap size                : 0 byte(s)
                 ;Promote 'char' to 'int'  : Yes
                 ;'char' is unsigned       : Yes
                 ;8 bit enums              : Yes
                 ;Global 'const' stored in FLASH     : No
                 ;Enhanced function parameter passing: Yes
                 ;Enhanced core instructions         : On
                 ;Smart register allocation          : On
                 ;Automatic register allocation      : On
                 
                 	#pragma AVRPART ADMIN PART_NAME ATmega128
                 	#pragma AVRPART MEMORY PROG_FLASH 131072
                 	#pragma AVRPART MEMORY EEPROM 4096
                 	#pragma AVRPART MEMORY INT_SRAM SIZE 4351
                 	#pragma AVRPART MEMORY INT_SRAM START_ADDR 0x100
                 
                 	#define CALL_SUPPORTED 1
                 
                 	.LISTMAC
                 	.EQU UDRE=0x5
                 	.EQU RXC=0x7
                 	.EQU USR=0xB
                 	.EQU UDR=0xC
                 	.EQU SPSR=0xE
                 	.EQU SPDR=0xF
                 	.EQU EERE=0x0
                 	.EQU EEWE=0x1
                 	.EQU EEMWE=0x2
                 	.EQU EECR=0x1C
                 	.EQU EEDR=0x1D
                 	.EQU EEARL=0x1E
                 	.EQU EEARH=0x1F
                 	.EQU WDTCR=0x21
                 	.EQU MCUCR=0x35
                 	.EQU RAMPZ=0x3B
                 	.EQU SPL=0x3D
                 	.EQU SPH=0x3E
                 	.EQU SREG=0x3F
                 	.EQU XMCRA=0x6D
                 	.EQU XMCRB=0x6C
                 
                 	.DEF R0X0=R0
                 	.DEF R0X1=R1
                 	.DEF R0X2=R2
                 	.DEF R0X3=R3
                 	.DEF R0X4=R4
                 	.DEF R0X5=R5
                 	.DEF R0X6=R6
                 	.DEF R0X7=R7
                 	.DEF R0X8=R8
                 	.DEF R0X9=R9
                 	.DEF R0XA=R10
                 	.DEF R0XB=R11
                 	.DEF R0XC=R12
                 	.DEF R0XD=R13
                 	.DEF R0XE=R14
                 	.DEF R0XF=R15
                 	.DEF R0X10=R16
                 	.DEF R0X11=R17
                 	.DEF R0X12=R18
                 	.DEF R0X13=R19
                 	.DEF R0X14=R20
                 	.DEF R0X15=R21
                 	.DEF R0X16=R22
                 	.DEF R0X17=R23
                 	.DEF R0X18=R24
                 	.DEF R0X19=R25
                 	.DEF R0X1A=R26
                 	.DEF R0X1B=R27
                 	.DEF R0X1C=R28
                 	.DEF R0X1D=R29
                 	.DEF R0X1E=R30
                 	.DEF R0X1F=R31
                 
                 	.EQU __SRAM_START=0x0100
                 	.EQU __SRAM_END=0x10FF
                 	.EQU __DSTACK_SIZE=0x0400
                 	.EQU __HEAP_SIZE=0x0000
                 	.EQU __CLEAR_SRAM_SIZE=__SRAM_END-__SRAM_START+1
                 
                 	.MACRO __CPD1N
                 	CPI  R30,LOW(@0)
                 	LDI  R26,HIGH(@0)
                 	CPC  R31,R26
                 	LDI  R26,BYTE3(@0)
                 	CPC  R22,R26
                 	LDI  R26,BYTE4(@0)
                 	CPC  R23,R26
                 	.ENDM
                 
                 	.MACRO __CPD2N
                 	CPI  R26,LOW(@0)
                 	LDI  R30,HIGH(@0)
                 	CPC  R27,R30
                 	LDI  R30,BYTE3(@0)
                 	CPC  R24,R30
                 	LDI  R30,BYTE4(@0)
                 	CPC  R25,R30
                 	.ENDM
                 
                 	.MACRO __CPWRR
                 	CP   R@0,R@2
                 	CPC  R@1,R@3
                 	.ENDM
                 
                 	.MACRO __CPWRN
                 	CPI  R@0,LOW(@2)
                 	LDI  R30,HIGH(@2)
                 	CPC  R@1,R30
                 	.ENDM
                 
                 	.MACRO __ADDB1MN
                 	SUBI R30,LOW(-@0-(@1))
                 	.ENDM
                 
                 	.MACRO __ADDB2MN
                 	SUBI R26,LOW(-@0-(@1))
                 	.ENDM
                 
                 	.MACRO __ADDW1MN
                 	SUBI R30,LOW(-@0-(@1))
                 	SBCI R31,HIGH(-@0-(@1))
                 	.ENDM
                 
                 	.MACRO __ADDW2MN
                 	SUBI R26,LOW(-@0-(@1))
                 	SBCI R27,HIGH(-@0-(@1))
                 	.ENDM
                 
                 	.MACRO __ADDW1FN
                 	SUBI R30,LOW(-2*@0-(@1))
                 	SBCI R31,HIGH(-2*@0-(@1))
                 	.ENDM
                 
                 	.MACRO __ADDD1FN
                 	SUBI R30,LOW(-2*@0-(@1))
                 	SBCI R31,HIGH(-2*@0-(@1))
                 	SBCI R22,BYTE3(-2*@0-(@1))
                 	.ENDM
                 
                 	.MACRO __ADDD1N
                 	SUBI R30,LOW(-@0)
                 	SBCI R31,HIGH(-@0)
                 	SBCI R22,BYTE3(-@0)
                 	SBCI R23,BYTE4(-@0)
                 	.ENDM
                 
                 	.MACRO __ADDD2N
                 	SUBI R26,LOW(-@0)
                 	SBCI R27,HIGH(-@0)
                 	SBCI R24,BYTE3(-@0)
                 	SBCI R25,BYTE4(-@0)
                 	.ENDM
                 
                 	.MACRO __SUBD1N
                 	SUBI R30,LOW(@0)
                 	SBCI R31,HIGH(@0)
                 	SBCI R22,BYTE3(@0)
                 	SBCI R23,BYTE4(@0)
                 	.ENDM
                 
                 	.MACRO __SUBD2N
                 	SUBI R26,LOW(@0)
                 	SBCI R27,HIGH(@0)
                 	SBCI R24,BYTE3(@0)
                 	SBCI R25,BYTE4(@0)
                 	.ENDM
                 
                 	.MACRO __ANDBMNN
                 	LDS  R30,@0+(@1)
                 	ANDI R30,LOW(@2)
                 	STS  @0+(@1),R30
                 	.ENDM
                 
                 	.MACRO __ANDWMNN
                 	LDS  R30,@0+(@1)
                 	ANDI R30,LOW(@2)
                 	STS  @0+(@1),R30
                 	LDS  R30,@0+(@1)+1
                 	ANDI R30,HIGH(@2)
                 	STS  @0+(@1)+1,R30
                 	.ENDM
                 
                 	.MACRO __ANDD1N
                 	ANDI R30,LOW(@0)
                 	ANDI R31,HIGH(@0)
                 	ANDI R22,BYTE3(@0)
                 	ANDI R23,BYTE4(@0)
                 	.ENDM
                 
                 	.MACRO __ANDD2N
                 	ANDI R26,LOW(@0)
                 	ANDI R27,HIGH(@0)
                 	ANDI R24,BYTE3(@0)
                 	ANDI R25,BYTE4(@0)
                 	.ENDM
                 
                 	.MACRO __ORBMNN
                 	LDS  R30,@0+(@1)
                 	ORI  R30,LOW(@2)
                 	STS  @0+(@1),R30
                 	.ENDM
                 
                 	.MACRO __ORWMNN
                 	LDS  R30,@0+(@1)
                 	ORI  R30,LOW(@2)
                 	STS  @0+(@1),R30
                 	LDS  R30,@0+(@1)+1
                 	ORI  R30,HIGH(@2)
                 	STS  @0+(@1)+1,R30
                 	.ENDM
                 
                 	.MACRO __ORD1N
                 	ORI  R30,LOW(@0)
                 	ORI  R31,HIGH(@0)
                 	ORI  R22,BYTE3(@0)
                 	ORI  R23,BYTE4(@0)
                 	.ENDM
                 
                 	.MACRO __ORD2N
                 	ORI  R26,LOW(@0)
                 	ORI  R27,HIGH(@0)
                 	ORI  R24,BYTE3(@0)
                 	ORI  R25,BYTE4(@0)
                 	.ENDM
                 
                 	.MACRO __DELAY_USB
                 	LDI  R24,LOW(@0)
                 __DELAY_USB_LOOP:
                 	DEC  R24
                 	BRNE __DELAY_USB_LOOP
                 	.ENDM
                 
                 	.MACRO __DELAY_USW
                 	LDI  R24,LOW(@0)
                 	LDI  R25,HIGH(@0)
                 __DELAY_USW_LOOP:
                 	SBIW R24,1
                 	BRNE __DELAY_USW_LOOP
                 	.ENDM
                 
                 	.MACRO __GETD1S
                 	LDD  R30,Y+@0
                 	LDD  R31,Y+@0+1
                 	LDD  R22,Y+@0+2
                 	LDD  R23,Y+@0+3
                 	.ENDM
                 
                 	.MACRO __GETD2S
                 	LDD  R26,Y+@0
                 	LDD  R27,Y+@0+1
                 	LDD  R24,Y+@0+2
                 	LDD  R25,Y+@0+3
                 	.ENDM
                 
                 	.MACRO __PUTD1S
                 	STD  Y+@0,R30
                 	STD  Y+@0+1,R31
                 	STD  Y+@0+2,R22
                 	STD  Y+@0+3,R23
                 	.ENDM
                 
                 	.MACRO __PUTD2S
                 	STD  Y+@0,R26
                 	STD  Y+@0+1,R27
                 	STD  Y+@0+2,R24
                 	STD  Y+@0+3,R25
                 	.ENDM
                 
                 	.MACRO __PUTDZ2
                 	STD  Z+@0,R26
                 	STD  Z+@0+1,R27
                 	STD  Z+@0+2,R24
                 	STD  Z+@0+3,R25
                 	.ENDM
                 
                 	.MACRO __CLRD1S
                 	STD  Y+@0,R30
                 	STD  Y+@0+1,R30
                 	STD  Y+@0+2,R30
                 	STD  Y+@0+3,R30
                 	.ENDM
                 
                 	.MACRO __POINTB1MN
                 	LDI  R30,LOW(@0+(@1))
                 	.ENDM
                 
                 	.MACRO __POINTW1MN
                 	LDI  R30,LOW(@0+(@1))
                 	LDI  R31,HIGH(@0+(@1))
                 	.ENDM
                 
                 	.MACRO __POINTD1M
                 	LDI  R30,LOW(@0)
                 	LDI  R31,HIGH(@0)
                 	LDI  R22,BYTE3(@0)
                 	LDI  R23,BYTE4(@0)
                 	.ENDM
                 
                 	.MACRO __POINTW1FN
                 	LDI  R30,LOW(2*@0+(@1))
                 	LDI  R31,HIGH(2*@0+(@1))
                 	.ENDM
                 
                 	.MACRO __POINTD1FN
                 	LDI  R30,LOW(2*@0+(@1))
                 	LDI  R31,HIGH(2*@0+(@1))
                 	LDI  R22,BYTE3(2*@0+(@1))
                 	LDI  R23,BYTE4(2*@0+(@1))
                 	.ENDM
                 
                 	.MACRO __POINTB2MN
                 	LDI  R26,LOW(@0+(@1))
                 	.ENDM
                 
                 	.MACRO __POINTW2MN
                 	LDI  R26,LOW(@0+(@1))
                 	LDI  R27,HIGH(@0+(@1))
                 	.ENDM
                 
                 	.MACRO __POINTW2FN
                 	LDI  R26,LOW(2*@0+(@1))
                 	LDI  R27,HIGH(2*@0+(@1))
                 	.ENDM
                 
                 	.MACRO __POINTD2FN
                 	LDI  R26,LOW(2*@0+(@1))
                 	LDI  R27,HIGH(2*@0+(@1))
                 	LDI  R24,BYTE3(2*@0+(@1))
                 	LDI  R25,BYTE4(2*@0+(@1))
                 	.ENDM
                 
                 	.MACRO __POINTBRM
                 	LDI  R@0,LOW(@1)
                 	.ENDM
                 
                 	.MACRO __POINTWRM
                 	LDI  R@0,LOW(@2)
                 	LDI  R@1,HIGH(@2)
                 	.ENDM
                 
                 	.MACRO __POINTBRMN
                 	LDI  R@0,LOW(@1+(@2))
                 	.ENDM
                 
                 	.MACRO __POINTWRMN
                 	LDI  R@0,LOW(@2+(@3))
                 	LDI  R@1,HIGH(@2+(@3))
                 	.ENDM
                 
                 	.MACRO __POINTWRFN
                 	LDI  R@0,LOW(@2*2+(@3))
                 	LDI  R@1,HIGH(@2*2+(@3))
                 	.ENDM
                 
                 	.MACRO __GETD1N
                 	LDI  R30,LOW(@0)
                 	LDI  R31,HIGH(@0)
                 	LDI  R22,BYTE3(@0)
                 	LDI  R23,BYTE4(@0)
                 	.ENDM
                 
                 	.MACRO __GETD2N
                 	LDI  R26,LOW(@0)
                 	LDI  R27,HIGH(@0)
                 	LDI  R24,BYTE3(@0)
                 	LDI  R25,BYTE4(@0)
                 	.ENDM
                 
                 	.MACRO __GETB1MN
                 	LDS  R30,@0+(@1)
                 	.ENDM
                 
                 	.MACRO __GETB1HMN
                 	LDS  R31,@0+(@1)
                 	.ENDM
                 
                 	.MACRO __GETW1MN
                 	LDS  R30,@0+(@1)
                 	LDS  R31,@0+(@1)+1
                 	.ENDM
                 
                 	.MACRO __GETD1MN
                 	LDS  R30,@0+(@1)
                 	LDS  R31,@0+(@1)+1
                 	LDS  R22,@0+(@1)+2
                 	LDS  R23,@0+(@1)+3
                 	.ENDM
                 
                 	.MACRO __GETBRMN
                 	LDS  R@0,@1+(@2)
                 	.ENDM
                 
                 	.MACRO __GETWRMN
                 	LDS  R@0,@2+(@3)
                 	LDS  R@1,@2+(@3)+1
                 	.ENDM
                 
                 	.MACRO __GETWRZ
                 	LDD  R@0,Z+@2
                 	LDD  R@1,Z+@2+1
                 	.ENDM
                 
                 	.MACRO __GETD2Z
                 	LDD  R26,Z+@0
                 	LDD  R27,Z+@0+1
                 	LDD  R24,Z+@0+2
                 	LDD  R25,Z+@0+3
                 	.ENDM
                 
                 	.MACRO __GETB2MN
                 	LDS  R26,@0+(@1)
                 	.ENDM
                 
                 	.MACRO __GETW2MN
                 	LDS  R26,@0+(@1)
                 	LDS  R27,@0+(@1)+1
                 	.ENDM
                 
                 	.MACRO __GETD2MN
                 	LDS  R26,@0+(@1)
                 	LDS  R27,@0+(@1)+1
                 	LDS  R24,@0+(@1)+2
                 	LDS  R25,@0+(@1)+3
                 	.ENDM
                 
                 	.MACRO __PUTB1MN
                 	STS  @0+(@1),R30
                 	.ENDM
                 
                 	.MACRO __PUTW1MN
                 	STS  @0+(@1),R30
                 	STS  @0+(@1)+1,R31
                 	.ENDM
                 
                 	.MACRO __PUTD1MN
                 	STS  @0+(@1),R30
                 	STS  @0+(@1)+1,R31
                 	STS  @0+(@1)+2,R22
                 	STS  @0+(@1)+3,R23
                 	.ENDM
                 
                 	.MACRO __PUTB1EN
                 	LDI  R26,LOW(@0+(@1))
                 	LDI  R27,HIGH(@0+(@1))
                 	CALL __EEPROMWRB
                 	.ENDM
                 
                 	.MACRO __PUTW1EN
                 	LDI  R26,LOW(@0+(@1))
                 	LDI  R27,HIGH(@0+(@1))
                 	CALL __EEPROMWRW
                 	.ENDM
                 
                 	.MACRO __PUTD1EN
                 	LDI  R26,LOW(@0+(@1))
                 	LDI  R27,HIGH(@0+(@1))
                 	CALL __EEPROMWRD
                 	.ENDM
                 
                 	.MACRO __PUTBR0MN
                 	STS  @0+(@1),R0
                 	.ENDM
                 
                 	.MACRO __PUTBMRN
                 	STS  @0+(@1),R@2
                 	.ENDM
                 
                 	.MACRO __PUTWMRN
                 	STS  @0+(@1),R@2
                 	STS  @0+(@1)+1,R@3
                 	.ENDM
                 
                 	.MACRO __PUTBZR
                 	STD  Z+@1,R@0
                 	.ENDM
                 
                 	.MACRO __PUTWZR
                 	STD  Z+@2,R@0
                 	STD  Z+@2+1,R@1
                 	.ENDM
                 
                 	.MACRO __GETW1R
                 	MOV  R30,R@0
                 	MOV  R31,R@1
                 	.ENDM
                 
                 	.MACRO __GETW2R
                 	MOV  R26,R@0
                 	MOV  R27,R@1
                 	.ENDM
                 
                 	.MACRO __GETWRN
                 	LDI  R@0,LOW(@2)
                 	LDI  R@1,HIGH(@2)
                 	.ENDM
                 
                 	.MACRO __PUTW1R
                 	MOV  R@0,R30
                 	MOV  R@1,R31
                 	.ENDM
                 
                 	.MACRO __PUTW2R
                 	MOV  R@0,R26
                 	MOV  R@1,R27
                 	.ENDM
                 
                 	.MACRO __ADDWRN
                 	SUBI R@0,LOW(-@2)
                 	SBCI R@1,HIGH(-@2)
                 	.ENDM
                 
                 	.MACRO __ADDWRR
                 	ADD  R@0,R@2
                 	ADC  R@1,R@3
                 	.ENDM
                 
                 	.MACRO __SUBWRN
                 	SUBI R@0,LOW(@2)
                 	SBCI R@1,HIGH(@2)
                 	.ENDM
                 
                 	.MACRO __SUBWRR
                 	SUB  R@0,R@2
                 	SBC  R@1,R@3
                 	.ENDM
                 
                 	.MACRO __ANDWRN
                 	ANDI R@0,LOW(@2)
                 	ANDI R@1,HIGH(@2)
                 	.ENDM
                 
                 	.MACRO __ANDWRR
                 	AND  R@0,R@2
                 	AND  R@1,R@3
                 	.ENDM
                 
                 	.MACRO __ORWRN
                 	ORI  R@0,LOW(@2)
                 	ORI  R@1,HIGH(@2)
                 	.ENDM
                 
                 	.MACRO __ORWRR
                 	OR   R@0,R@2
                 	OR   R@1,R@3
                 	.ENDM
                 
                 	.MACRO __EORWRR
                 	EOR  R@0,R@2
                 	EOR  R@1,R@3
                 	.ENDM
                 
                 	.MACRO __GETWRS
                 	LDD  R@0,Y+@2
                 	LDD  R@1,Y+@2+1
                 	.ENDM
                 
                 	.MACRO __PUTBSR
                 	STD  Y+@1,R@0
                 	.ENDM
                 
                 	.MACRO __PUTWSR
                 	STD  Y+@2,R@0
                 	STD  Y+@2+1,R@1
                 	.ENDM
                 
                 	.MACRO __MOVEWRR
                 	MOV  R@0,R@2
                 	MOV  R@1,R@3
                 	.ENDM
                 
                 	.MACRO __INWR
                 	IN   R@0,@2
                 	IN   R@1,@2+1
                 	.ENDM
                 
                 	.MACRO __OUTWR
                 	OUT  @2+1,R@1
                 	OUT  @2,R@0
                 	.ENDM
                 
                 	.MACRO __CALL1MN
                 	LDS  R30,@0+(@1)
                 	LDS  R31,@0+(@1)+1
                 	ICALL
                 	.ENDM
                 
                 	.MACRO __CALL1FN
                 	LDI  R30,LOW(2*@0+(@1))
                 	LDI  R31,HIGH(2*@0+(@1))
                 	CALL __GETW1PF
                 	ICALL
                 	.ENDM
                 
                 	.MACRO __CALL2EN
                 	LDI  R26,LOW(@0+(@1))
                 	LDI  R27,HIGH(@0+(@1))
                 	CALL __EEPROMRDW
                 	ICALL
                 	.ENDM
                 
                 	.MACRO __GETW1STACK
                 	IN   R26,SPL
                 	IN   R27,SPH
                 	ADIW R26,@0+1
                 	LD   R30,X+
                 	LD   R31,X
                 	.ENDM
                 
                 	.MACRO __GETD1STACK
                 	IN   R26,SPL
                 	IN   R27,SPH
                 	ADIW R26,@0+1
                 	LD   R30,X+
                 	LD   R31,X+
                 	LD   R22,X
                 	.ENDM
                 
                 	.MACRO __NBST
                 	BST  R@0,@1
                 	IN   R30,SREG
                 	LDI  R31,0x40
                 	EOR  R30,R31
                 	OUT  SREG,R30
                 	.ENDM
                 
                 
                 	.MACRO __PUTB1SN
                 	LDD  R26,Y+@0
                 	LDD  R27,Y+@0+1
                 	SUBI R26,LOW(-@1)
                 	SBCI R27,HIGH(-@1)
                 	ST   X,R30
                 	.ENDM
                 
                 	.MACRO __PUTW1SN
                 	LDD  R26,Y+@0
                 	LDD  R27,Y+@0+1
                 	SUBI R26,LOW(-@1)
                 	SBCI R27,HIGH(-@1)
                 	ST   X+,R30
                 	ST   X,R31
                 	.ENDM
                 
                 	.MACRO __PUTD1SN
                 	LDD  R26,Y+@0
                 	LDD  R27,Y+@0+1
                 	SUBI R26,LOW(-@1)
                 	SBCI R27,HIGH(-@1)
                 	CALL __PUTDP1
                 	.ENDM
                 
                 	.MACRO __PUTB1SNS
                 	LDD  R26,Y+@0
                 	LDD  R27,Y+@0+1
                 	ADIW R26,@1
                 	ST   X,R30
                 	.ENDM
                 
                 	.MACRO __PUTW1SNS
                 	LDD  R26,Y+@0
                 	LDD  R27,Y+@0+1
                 	ADIW R26,@1
                 	ST   X+,R30
                 	ST   X,R31
                 	.ENDM
                 
                 	.MACRO __PUTD1SNS
                 	LDD  R26,Y+@0
                 	LDD  R27,Y+@0+1
                 	ADIW R26,@1
                 	CALL __PUTDP1
                 	.ENDM
                 
                 	.MACRO __PUTB1PMN
                 	LDS  R26,@0
                 	LDS  R27,@0+1
                 	SUBI R26,LOW(-@1)
                 	SBCI R27,HIGH(-@1)
                 	ST   X,R30
                 	.ENDM
                 
                 	.MACRO __PUTW1PMN
                 	LDS  R26,@0
                 	LDS  R27,@0+1
                 	SUBI R26,LOW(-@1)
                 	SBCI R27,HIGH(-@1)
                 	ST   X+,R30
                 	ST   X,R31
                 	.ENDM
                 
                 	.MACRO __PUTD1PMN
                 	LDS  R26,@0
                 	LDS  R27,@0+1
                 	SUBI R26,LOW(-@1)
                 	SBCI R27,HIGH(-@1)
                 	CALL __PUTDP1
                 	.ENDM
                 
                 	.MACRO __PUTB1PMNS
                 	LDS  R26,@0
                 	LDS  R27,@0+1
                 	ADIW R26,@1
                 	ST   X,R30
                 	.ENDM
                 
                 	.MACRO __PUTW1PMNS
                 	LDS  R26,@0
                 	LDS  R27,@0+1
                 	ADIW R26,@1
                 	ST   X+,R30
                 	ST   X,R31
                 	.ENDM
                 
                 	.MACRO __PUTD1PMNS
                 	LDS  R26,@0
                 	LDS  R27,@0+1
                 	ADIW R26,@1
                 	CALL __PUTDP1
                 	.ENDM
                 
                 	.MACRO __PUTB1RN
                 	MOVW R26,R@0
                 	SUBI R26,LOW(-@1)
                 	SBCI R27,HIGH(-@1)
                 	ST   X,R30
                 	.ENDM
                 
                 	.MACRO __PUTW1RN
                 	MOVW R26,R@0
                 	SUBI R26,LOW(-@1)
                 	SBCI R27,HIGH(-@1)
                 	ST   X+,R30
                 	ST   X,R31
                 	.ENDM
                 
                 	.MACRO __PUTD1RN
                 	MOVW R26,R@0
                 	SUBI R26,LOW(-@1)
                 	SBCI R27,HIGH(-@1)
                 	CALL __PUTDP1
                 	.ENDM
                 
                 	.MACRO __PUTB1RNS
                 	MOVW R26,R@0
                 	ADIW R26,@1
                 	ST   X,R30
                 	.ENDM
                 
                 	.MACRO __PUTW1RNS
                 	MOVW R26,R@0
                 	ADIW R26,@1
                 	ST   X+,R30
                 	ST   X,R31
                 	.ENDM
                 
                 	.MACRO __PUTD1RNS
                 	MOVW R26,R@0
                 	ADIW R26,@1
                 	CALL __PUTDP1
                 	.ENDM
                 
                 	.MACRO __PUTB1RON
                 	MOV  R26,R@0
                 	MOV  R27,R@1
                 	SUBI R26,LOW(-@2)
                 	SBCI R27,HIGH(-@2)
                 	ST   X,R30
                 	.ENDM
                 
                 	.MACRO __PUTW1RON
                 	MOV  R26,R@0
                 	MOV  R27,R@1
                 	SUBI R26,LOW(-@2)
                 	SBCI R27,HIGH(-@2)
                 	ST   X+,R30
                 	ST   X,R31
                 	.ENDM
                 
                 	.MACRO __PUTD1RON
                 	MOV  R26,R@0
                 	MOV  R27,R@1
                 	SUBI R26,LOW(-@2)
                 	SBCI R27,HIGH(-@2)
                 	CALL __PUTDP1
                 	.ENDM
                 
                 	.MACRO __PUTB1RONS
                 	MOV  R26,R@0
                 	MOV  R27,R@1
                 	ADIW R26,@2
                 	ST   X,R30
                 	.ENDM
                 
                 	.MACRO __PUTW1RONS
                 	MOV  R26,R@0
                 	MOV  R27,R@1
                 	ADIW R26,@2
                 	ST   X+,R30
                 	ST   X,R31
                 	.ENDM
                 
                 	.MACRO __PUTD1RONS
                 	MOV  R26,R@0
                 	MOV  R27,R@1
                 	ADIW R26,@2
                 	CALL __PUTDP1
                 	.ENDM
                 
                 
                 	.MACRO __GETB1SX
                 	MOVW R30,R28
                 	SUBI R30,LOW(-@0)
                 	SBCI R31,HIGH(-@0)
                 	LD   R30,Z
                 	.ENDM
                 
                 	.MACRO __GETB1HSX
                 	MOVW R30,R28
                 	SUBI R30,LOW(-@0)
                 	SBCI R31,HIGH(-@0)
                 	LD   R31,Z
                 	.ENDM
                 
                 	.MACRO __GETW1SX
                 	MOVW R30,R28
                 	SUBI R30,LOW(-@0)
                 	SBCI R31,HIGH(-@0)
                 	LD   R0,Z+
                 	LD   R31,Z
                 	MOV  R30,R0
                 	.ENDM
                 
                 	.MACRO __GETD1SX
                 	MOVW R30,R28
                 	SUBI R30,LOW(-@0)
                 	SBCI R31,HIGH(-@0)
                 	LD   R0,Z+
                 	LD   R1,Z+
                 	LD   R22,Z+
                 	LD   R23,Z
                 	MOVW R30,R0
                 	.ENDM
                 
                 	.MACRO __GETB2SX
                 	MOVW R26,R28
                 	SUBI R26,LOW(-@0)
                 	SBCI R27,HIGH(-@0)
                 	LD   R26,X
                 	.ENDM
                 
                 	.MACRO __GETW2SX
                 	MOVW R26,R28
                 	SUBI R26,LOW(-@0)
                 	SBCI R27,HIGH(-@0)
                 	LD   R0,X+
                 	LD   R27,X
                 	MOV  R26,R0
                 	.ENDM
                 
                 	.MACRO __GETD2SX
                 	MOVW R26,R28
                 	SUBI R26,LOW(-@0)
                 	SBCI R27,HIGH(-@0)
                 	LD   R0,X+
                 	LD   R1,X+
                 	LD   R24,X+
                 	LD   R25,X
                 	MOVW R26,R0
                 	.ENDM
                 
                 	.MACRO __GETBRSX
                 	MOVW R30,R28
                 	SUBI R30,LOW(-@1)
                 	SBCI R31,HIGH(-@1)
                 	LD   R@0,Z
                 	.ENDM
                 
                 	.MACRO __GETWRSX
                 	MOVW R30,R28
                 	SUBI R30,LOW(-@2)
                 	SBCI R31,HIGH(-@2)
                 	LD   R@0,Z+
                 	LD   R@1,Z
                 	.ENDM
                 
                 	.MACRO __GETBRSX2
                 	MOVW R26,R28
                 	SUBI R26,LOW(-@1)
                 	SBCI R27,HIGH(-@1)
                 	LD   R@0,X
                 	.ENDM
                 
                 	.MACRO __GETWRSX2
                 	MOVW R26,R28
                 	SUBI R26,LOW(-@2)
                 	SBCI R27,HIGH(-@2)
                 	LD   R@0,X+
                 	LD   R@1,X
                 	.ENDM
                 
                 	.MACRO __LSLW8SX
                 	MOVW R30,R28
                 	SUBI R30,LOW(-@0)
                 	SBCI R31,HIGH(-@0)
                 	LD   R31,Z
                 	CLR  R30
                 	.ENDM
                 
                 	.MACRO __PUTB1SX
                 	MOVW R26,R28
                 	SUBI R26,LOW(-@0)
                 	SBCI R27,HIGH(-@0)
                 	ST   X,R30
                 	.ENDM
                 
                 	.MACRO __PUTW1SX
                 	MOVW R26,R28
                 	SUBI R26,LOW(-@0)
                 	SBCI R27,HIGH(-@0)
                 	ST   X+,R30
                 	ST   X,R31
                 	.ENDM
                 
                 	.MACRO __PUTD1SX
                 	MOVW R26,R28
                 	SUBI R26,LOW(-@0)
                 	SBCI R27,HIGH(-@0)
                 	ST   X+,R30
                 	ST   X+,R31
                 	ST   X+,R22
                 	ST   X,R23
                 	.ENDM
                 
                 	.MACRO __CLRW1SX
                 	MOVW R26,R28
                 	SUBI R26,LOW(-@0)
                 	SBCI R27,HIGH(-@0)
                 	ST   X+,R30
                 	ST   X,R30
                 	.ENDM
                 
                 	.MACRO __CLRD1SX
                 	MOVW R26,R28
                 	SUBI R26,LOW(-@0)
                 	SBCI R27,HIGH(-@0)
                 	ST   X+,R30
                 	ST   X+,R30
                 	ST   X+,R30
                 	ST   X,R30
                 	.ENDM
                 
                 	.MACRO __PUTB2SX
                 	MOVW R30,R28
                 	SUBI R30,LOW(-@0)
                 	SBCI R31,HIGH(-@0)
                 	ST   Z,R26
                 	.ENDM
                 
                 	.MACRO __PUTW2SX
                 	MOVW R30,R28
                 	SUBI R30,LOW(-@0)
                 	SBCI R31,HIGH(-@0)
                 	ST   Z+,R26
                 	ST   Z,R27
                 	.ENDM
                 
                 	.MACRO __PUTD2SX
                 	MOVW R30,R28
                 	SUBI R30,LOW(-@0)
                 	SBCI R31,HIGH(-@0)
                 	ST   Z+,R26
                 	ST   Z+,R27
                 	ST   Z+,R24
                 	ST   Z,R25
                 	.ENDM
                 
                 	.MACRO __PUTBSRX
                 	MOVW R30,R28
                 	SUBI R30,LOW(-@1)
                 	SBCI R31,HIGH(-@1)
                 	ST   Z,R@0
                 	.ENDM
                 
                 	.MACRO __PUTWSRX
                 	MOVW R30,R28
                 	SUBI R30,LOW(-@2)
                 	SBCI R31,HIGH(-@2)
                 	ST   Z+,R@0
                 	ST   Z,R@1
                 	.ENDM
                 
                 	.MACRO __PUTB1SNX
                 	MOVW R26,R28
                 	SUBI R26,LOW(-@0)
                 	SBCI R27,HIGH(-@0)
                 	LD   R0,X+
                 	LD   R27,X
                 	MOV  R26,R0
                 	SUBI R26,LOW(-@1)
                 	SBCI R27,HIGH(-@1)
                 	ST   X,R30
                 	.ENDM
                 
                 	.MACRO __PUTW1SNX
                 	MOVW R26,R28
                 	SUBI R26,LOW(-@0)
                 	SBCI R27,HIGH(-@0)
                 	LD   R0,X+
                 	LD   R27,X
                 	MOV  R26,R0
                 	SUBI R26,LOW(-@1)
                 	SBCI R27,HIGH(-@1)
                 	ST   X+,R30
                 	ST   X,R31
                 	.ENDM
                 
                 	.MACRO __PUTD1SNX
                 	MOVW R26,R28
                 	SUBI R26,LOW(-@0)
                 	SBCI R27,HIGH(-@0)
                 	LD   R0,X+
                 	LD   R27,X
                 	MOV  R26,R0
                 	SUBI R26,LOW(-@1)
                 	SBCI R27,HIGH(-@1)
                 	ST   X+,R30
                 	ST   X+,R31
                 	ST   X+,R22
                 	ST   X,R23
                 	.ENDM
                 
                 	.MACRO __MULBRR
                 	MULS R@0,R@1
                 	MOVW R30,R0
                 	.ENDM
                 
                 	.MACRO __MULBRRU
                 	MUL  R@0,R@1
                 	MOVW R30,R0
                 	.ENDM
                 
                 	.MACRO __MULBRR0
                 	MULS R@0,R@1
                 	.ENDM
                 
                 	.MACRO __MULBRRU0
                 	MUL  R@0,R@1
                 	.ENDM
                 
                 	.MACRO __MULBNWRU
                 	LDI  R26,@2
                 	MUL  R26,R@0
                 	MOVW R30,R0
                 	MUL  R26,R@1
                 	ADD  R31,R0
                 	.ENDM
                 
                 ;NAME DEFINITIONS FOR GLOBAL VARIABLES ALLOCATED TO REGISTERS
                 	.DEF _rx_wr_index0=R5
                 	.DEF _rx_rd_index0=R4
                 	.DEF _rx_counter0=R7
                 	.DEF _counter_ms=R6
                 	.DEF _adc_data=R8
                 	.DEF _t_kuba_count=R11
                 	.DEF _pressureOver=R10
                 	.DEF _timerSignOn=R13
                 	.DEF _ssTrig=R12
                 
                 	.CSEG
                 	.ORG 0x00
                 
                 ;START OF CODE MARKER
                 __START_OF_CODE:
                 
                 ;INTERRUPT VECTORS
000000 940c 066a 	JMP  __RESET
000002 940c 0000 	JMP  0x00
000004 940c 0000 	JMP  0x00
000006 940c 069d 	JMP  _ext_int2_isr
000008 940c 0000 	JMP  0x00
00000a 940c 0000 	JMP  0x00
00000c 940c 0000 	JMP  0x00
00000e 940c 0000 	JMP  0x00
000010 940c 0000 	JMP  0x00
000012 940c 0000 	JMP  0x00
000014 940c 077b 	JMP  _timer2_ovf_isr
000016 940c 0000 	JMP  0x00
000018 940c 0000 	JMP  0x00
00001a 940c 0000 	JMP  0x00
00001c 940c 0721 	JMP  _timer1_ovf_isr
00001e 940c 0000 	JMP  0x00
000020 940c 0720 	JMP  _timer0_ovf_isr
000022 940c 0000 	JMP  0x00
000024 940c 06fd 	JMP  _usart0_rx_isr
000026 940c 0000 	JMP  0x00
000028 940c 0000 	JMP  0x00
00002a 940c 0796 	JMP  _adc_isr
00002c 940c 0000 	JMP  0x00
00002e 940c 0000 	JMP  0x00
000030 940c 0000 	JMP  0x00
000032 940c 0000 	JMP  0x00
000034 940c 0000 	JMP  0x00
000036 940c 0000 	JMP  0x00
000038 940c 0000 	JMP  0x00
00003a 940c 0000 	JMP  0x00
00003c 940c 0000 	JMP  0x00
00003e 940c 0000 	JMP  0x00
000040 940c 0000 	JMP  0x00
000042 940c 0000 	JMP  0x00
000044 940c 0000 	JMP  0x00
                 
                 _yesno:
000046 052c
000047 0526      	.DB  LOW(_set_off*2),HIGH(_set_off*2),LOW(_set_on*2),HIGH(_set_on*2)
                 _labels:
000048 0534
000049 0532
00004a 0538
00004b 0542      	.DB  LOW(_label_min*2),HIGH(_label_min*2),LOW(_label_grad*2),HIGH(_label_grad*2),LOW(_label_mmhb*2),HIGH(_label_mmhb*2),LOW(_label_percent*2),HIGH(_label_percent*2)
00004c 0544
00004d 0548
00004e 054e      	.DB  LOW(_label_ml*2),HIGH(_label_ml*2),LOW(_label_mlph*2),HIGH(_label_mlph*2),LOW(_label_ms*2),HIGH(_label_ms*2)
                 _nlcd_Font:
00004f 0204
000050 02ff
000051 2004
000052 ff40      	.DB  0x4,0x2,0xFF,0x2,0x4,0x20,0x40,0xFF
000053 2040
000054 0000
000055 0000
000056 0000      	.DB  0x40,0x20,0x0,0x0,0x0,0x0,0x0,0x0
000057 5f00
000058 0000
000059 0700
00005a 0700      	.DB  0x0,0x5F,0x0,0x0,0x0,0x7,0x0,0x7
00005b 1400
00005c 147f
00005d 147f
00005e 2a24      	.DB  0x0,0x14,0x7F,0x14,0x7F,0x14,0x24,0x2A
00005f 2a7f
000060 2312
000061 0813
000062 6264      	.DB  0x7F,0x2A,0x12,0x23,0x13,0x8,0x64,0x62
000063 4936
000064 2255
000065 0050
000066 0305      	.DB  0x36,0x49,0x55,0x22,0x50,0x0,0x5,0x3
000067 0000
000068 1c00
000069 4122
00006a 0000      	.DB  0x0,0x0,0x0,0x1C,0x22,0x41,0x0,0x0
00006b 2241
00006c 001c
00006d 2a08
00006e 2a1c      	.DB  0x41,0x22,0x1C,0x0,0x8,0x2A,0x1C,0x2A
00006f 0808
000070 3e08
000071 0808
000072 5000      	.DB  0x8,0x8,0x8,0x3E,0x8,0x8,0x0,0x50
000073 0030
000074 0800
000075 0808
000076 0808      	.DB  0x30,0x0,0x0,0x8,0x8,0x8,0x8,0x8
000077 3000
000078 0030
000079 2000
00007a 0810      	.DB  0x0,0x30,0x30,0x0,0x0,0x20,0x10,0x8
00007b 0204
00007c 513e
00007d 4549
00007e 003e      	.DB  0x4,0x2,0x3E,0x51,0x49,0x45,0x3E,0x0
00007f 7f42
000080 0040
000081 6142
000082 4951      	.DB  0x42,0x7F,0x40,0x0,0x42,0x61,0x51,0x49
000083 2146
000084 4541
000085 314b
000086 1418      	.DB  0x46,0x21,0x41,0x45,0x4B,0x31,0x18,0x14
000087 7f12
000088 2710
000089 4545
00008a 3945      	.DB  0x12,0x7F,0x10,0x27,0x45,0x45,0x45,0x39
00008b 4a3c
00008c 4949
00008d 0130
00008e 0971      	.DB  0x3C,0x4A,0x49,0x49,0x30,0x1,0x71,0x9
00008f 0305
000090 4936
000091 4949
000092 0636      	.DB  0x5,0x3,0x36,0x49,0x49,0x49,0x36,0x6
000093 4949
000094 1e29
000095 3600
000096 0036      	.DB  0x49,0x49,0x29,0x1E,0x0,0x36,0x36,0x0
000097 0000
000098 3656
000099 0000
00009a 0800      	.DB  0x0,0x0,0x56,0x36,0x0,0x0,0x0,0x8
00009b 2214
00009c 1441
00009d 1414
00009e 1414      	.DB  0x14,0x22,0x41,0x14,0x14,0x14,0x14,0x14
00009f 2241
0000a0 0814
0000a1 0200
0000a2 5101      	.DB  0x41,0x22,0x14,0x8,0x0,0x2,0x1,0x51
0000a3 0609
0000a4 4932
0000a5 4179
0000a6 7e3e      	.DB  0x9,0x6,0x32,0x49,0x79,0x41,0x3E,0x7E
0000a7 1111
0000a8 7e11
0000a9 497f
0000aa 4949      	.DB  0x11,0x11,0x11,0x7E,0x7F,0x49,0x49,0x49
0000ab 3e36
0000ac 4141
0000ad 2241
0000ae 417f      	.DB  0x36,0x3E,0x41,0x41,0x41,0x22,0x7F,0x41
0000af 2241
0000b0 7f1c
0000b1 4949
0000b2 4149      	.DB  0x41,0x22,0x1C,0x7F,0x49,0x49,0x49,0x41
0000b3 097f
0000b4 0109
0000b5 3e01
0000b6 4141      	.DB  0x7F,0x9,0x9,0x1,0x1,0x3E,0x41,0x41
0000b7 3251
0000b8 087f
0000b9 0808
0000ba 007f      	.DB  0x51,0x32,0x7F,0x8,0x8,0x8,0x7F,0x0
0000bb 7f41
0000bc 0041
0000bd 4020
0000be 3f41      	.DB  0x41,0x7F,0x41,0x0,0x20,0x40,0x41,0x3F
0000bf 7f01
0000c0 1408
0000c1 4122
0000c2 407f      	.DB  0x1,0x7F,0x8,0x14,0x22,0x41,0x7F,0x40
0000c3 4040
0000c4 7f40
0000c5 0402
0000c6 7f02      	.DB  0x40,0x40,0x40,0x7F,0x2,0x4,0x2,0x7F
0000c7 047f
0000c8 1008
0000c9 3e7f
0000ca 4141      	.DB  0x7F,0x4,0x8,0x10,0x7F,0x3E,0x41,0x41
0000cb 3e41
0000cc 097f
0000cd 0909
0000ce 3e06      	.DB  0x41,0x3E,0x7F,0x9,0x9,0x9,0x6,0x3E
0000cf 5141
0000d0 5e21
0000d1 097f
0000d2 2919      	.DB  0x41,0x51,0x21,0x5E,0x7F,0x9,0x19,0x29
0000d3 4646
0000d4 4949
0000d5 3149
0000d6 0101      	.DB  0x46,0x46,0x49,0x49,0x49,0x31,0x1,0x1
0000d7 017f
0000d8 3f01
0000d9 4040
0000da 3f40      	.DB  0x7F,0x1,0x1,0x3F,0x40,0x40,0x40,0x3F
0000db 201f
0000dc 2040
0000dd 7f1f
0000de 1820      	.DB  0x1F,0x20,0x40,0x20,0x1F,0x7F,0x20,0x18
0000df 7f20
0000e0 1463
0000e1 1408
0000e2 0363      	.DB  0x20,0x7F,0x63,0x14,0x8,0x14,0x63,0x3
0000e3 7804
0000e4 0304
0000e5 5161
0000e6 4549      	.DB  0x4,0x78,0x4,0x3,0x61,0x51,0x49,0x45
0000e7 0043
0000e8 7f00
0000e9 4141
0000ea 0402      	.DB  0x43,0x0,0x0,0x7F,0x41,0x41,0x2,0x4
0000eb 1008
0000ec 4120
0000ed 7f41
0000ee 0000      	.DB  0x8,0x10,0x20,0x41,0x41,0x7F,0x0,0x0
0000ef 0204
0000f0 0201
0000f1 4004
0000f2 4040      	.DB  0x4,0x2,0x1,0x2,0x4,0x40,0x40,0x40
0000f3 4040
0000f4 0100
0000f5 0402
0000f6 2000      	.DB  0x40,0x40,0x0,0x1,0x2,0x4,0x0,0x20
0000f7 5454
0000f8 7854
0000f9 487f
0000fa 4444      	.DB  0x54,0x54,0x54,0x78,0x7F,0x48,0x44,0x44
0000fb 3838
0000fc 4444
0000fd 2044
0000fe 4438      	.DB  0x38,0x38,0x44,0x44,0x44,0x20,0x38,0x44
0000ff 4844
000100 387f
000101 5454
000102 1854      	.DB  0x44,0x48,0x7F,0x38,0x54,0x54,0x54,0x18
000103 7e08
000104 0109
000105 0802
000106 5414      	.DB  0x8,0x7E,0x9,0x1,0x2,0x8,0x14,0x54
000107 3c54
000108 087f
000109 0404
00010a 0078      	.DB  0x54,0x3C,0x7F,0x8,0x4,0x4,0x78,0x0
00010b 7d44
00010c 0040
00010d 4020
00010e 3d44      	.DB  0x44,0x7D,0x40,0x0,0x20,0x40,0x44,0x3D
00010f 0000
000110 107f
000111 4428
000112 4100      	.DB  0x0,0x0,0x7F,0x10,0x28,0x44,0x0,0x41
000113 407f
000114 7c00
000115 1804
000116 7804      	.DB  0x7F,0x40,0x0,0x7C,0x4,0x18,0x4,0x78
000117 087c
000118 0404
000119 3878
00011a 4444      	.DB  0x7C,0x8,0x4,0x4,0x78,0x38,0x44,0x44
00011b 3844
00011c 147c
00011d 1414
00011e 0808      	.DB  0x44,0x38,0x7C,0x14,0x14,0x14,0x8,0x8
00011f 1414
000120 7c18
000121 087c
000122 0404      	.DB  0x14,0x14,0x18,0x7C,0x7C,0x8,0x4,0x4
000123 4808
000124 5454
000125 2054
000126 3f04      	.DB  0x8,0x48,0x54,0x54,0x54,0x20,0x4,0x3F
000127 4044
000128 3c20
000129 4040
00012a 7c20      	.DB  0x44,0x40,0x20,0x3C,0x40,0x40,0x20,0x7C
00012b 201c
00012c 2040
00012d 3c1c
00012e 3040      	.DB  0x1C,0x20,0x40,0x20,0x1C,0x3C,0x40,0x30
00012f 3c40
000130 2844
000131 2810
000132 0c44      	.DB  0x40,0x3C,0x44,0x28,0x10,0x28,0x44,0xC
000133 5050
000134 3c50
000135 6444
000136 4c54      	.DB  0x50,0x50,0x50,0x3C,0x44,0x64,0x54,0x4C
000137 0044
000138 3608
000139 0041
00013a 0000      	.DB  0x44,0x0,0x8,0x36,0x41,0x0,0x0,0x0
00013b 007f
00013c 0000
00013d 3641
00013e 0008      	.DB  0x7F,0x0,0x0,0x0,0x41,0x36,0x8,0x0
00013f 0102
000140 0402
000141 0802
000142 2a1c      	.DB  0x2,0x1,0x2,0x4,0x2,0x8,0x1C,0x2A
000143 0808
000144 117e
000145 1111
000146 7f7e      	.DB  0x8,0x8,0x7E,0x11,0x11,0x11,0x7E,0x7F
000147 4949
000148 3349
000149 497f
00014a 4949      	.DB  0x49,0x49,0x49,0x33,0x7F,0x49,0x49,0x49
00014b 7f36
00014c 0101
00014d 0301
00014e 51e0      	.DB  0x36,0x7F,0x1,0x1,0x1,0x3,0xE0,0x51
00014f 414f
000150 7fff
000151 4949
000152 4949      	.DB  0x4F,0x41,0xFF,0x7F,0x49,0x49,0x49,0x49
000153 0877
000154 087f
000155 4977
000156 4949      	.DB  0x77,0x8,0x7F,0x8,0x77,0x49,0x49,0x49
000157 3649
000158 107f
000159 0408
00015a 7c7f      	.DB  0x49,0x36,0x7F,0x10,0x8,0x4,0x7F,0x7C
00015b 1221
00015c 7c09
00015d 087f
00015e 2214      	.DB  0x21,0x12,0x9,0x7C,0x7F,0x8,0x14,0x22
00015f 2041
000160 3f41
000161 7f01
000162 027f      	.DB  0x41,0x20,0x41,0x3F,0x1,0x7F,0x7F,0x2
000163 020c
000164 7f7f
000165 0808
000166 7f08      	.DB  0xC,0x2,0x7F,0x7F,0x8,0x8,0x8,0x7F
000167 413e
000168 4141
000169 7f3e
00016a 0101      	.DB  0x3E,0x41,0x41,0x41,0x3E,0x7F,0x1,0x1
00016b 7f01
00016c 097f
00016d 0909
00016e 3e06      	.DB  0x1,0x7F,0x7F,0x9,0x9,0x9,0x6,0x3E
00016f 4141
000170 2241
000171 0101
000172 017f      	.DB  0x41,0x41,0x41,0x22,0x1,0x1,0x7F,0x1
000173 2701
000174 4848
000175 3f48
000176 221c      	.DB  0x1,0x27,0x48,0x48,0x48,0x3F,0x1C,0x22
000177 227f
000178 631c
000179 0814
00017a 6314      	.DB  0x7F,0x22,0x1C,0x63,0x14,0x8,0x14,0x63
00017b 407f
00017c 4040
00017d 07ff
00017e 0808      	.DB  0x7F,0x40,0x40,0x40,0xFF,0x7,0x8,0x8
00017f 7f08
000180 407f
000181 407f
000182 7f7f      	.DB  0x8,0x7F,0x7F,0x40,0x7F,0x40,0x7F,0x7F
000183 7f40
000184 ff40
000185 7f01
000186 4848      	.DB  0x40,0x7F,0x40,0xFF,0x1,0x7F,0x48,0x48
000187 7f30
000188 3048
000189 7f00
00018a 487f      	.DB  0x30,0x7F,0x48,0x30,0x0,0x7F,0x7F,0x48
00018b 3048
00018c 2200
00018d 4941
00018e 3e49      	.DB  0x48,0x30,0x0,0x22,0x41,0x49,0x49,0x3E
00018f 087f
000190 413e
000191 463e
000192 1929      	.DB  0x7F,0x8,0x3E,0x41,0x3E,0x46,0x29,0x19
000193 7f09
000194 5420
000195 5454
000196 3c78      	.DB  0x9,0x7F,0x20,0x54,0x54,0x54,0x78,0x3C
000197 4a4a
000198 3149
000199 547c
00019a 2854      	.DB  0x4A,0x4A,0x49,0x31,0x7C,0x54,0x54,0x28
00019b 7c00
00019c 0404
00019d 0c04
00019e 54e0      	.DB  0x0,0x7C,0x4,0x4,0x4,0xC,0xE0,0x54
00019f 444c
0001a0 38fc
0001a1 5454
0001a2 0854      	.DB  0x4C,0x44,0xFC,0x38,0x54,0x54,0x54,0x8
0001a3 106c
0001a4 107c
0001a5 446c
0001a6 5444      	.DB  0x6C,0x10,0x7C,0x10,0x6C,0x44,0x44,0x54
0001a7 2854
0001a8 207c
0001a9 0810
0001aa 787c      	.DB  0x54,0x28,0x7C,0x20,0x10,0x8,0x7C,0x78
0001ab 2442
0001ac 7812
0001ad 107c
0001ae 4428      	.DB  0x42,0x24,0x12,0x78,0x7C,0x10,0x28,0x44
0001af 2000
0001b0 3c44
0001b1 7c04
0001b2 087c      	.DB  0x0,0x20,0x44,0x3C,0x4,0x7C,0x7C,0x8
0001b3 0810
0001b4 7c7c
0001b5 1010
0001b6 7c10      	.DB  0x10,0x8,0x7C,0x7C,0x10,0x10,0x10,0x7C
0001b7 4438
0001b8 4444
0001b9 7c38
0001ba 0404      	.DB  0x38,0x44,0x44,0x44,0x38,0x7C,0x4,0x4
0001bb 7c04
0001bc 147c
0001bd 1414
0001be 3808      	.DB  0x4,0x7C,0x7C,0x14,0x14,0x14,0x8,0x38
0001bf 4444
0001c0 4444
0001c1 0404
0001c2 047c      	.DB  0x44,0x44,0x44,0x44,0x4,0x4,0x7C,0x4
0001c3 0c04
0001c4 5050
0001c5 3c50
0001c6 2418      	.DB  0x4,0xC,0x50,0x50,0x50,0x3C,0x18,0x24
0001c7 247e
0001c8 4418
0001c9 1028
0001ca 4428      	.DB  0x7E,0x24,0x18,0x44,0x28,0x10,0x28,0x44
0001cb 407c
0001cc 4040
0001cd 0cfc
0001ce 1010      	.DB  0x7C,0x40,0x40,0x40,0xFC,0xC,0x10,0x10
0001cf 7c10
0001d0 407c
0001d1 407c
0001d2 7c7c      	.DB  0x10,0x7C,0x7C,0x40,0x7C,0x40,0x7C,0x7C
0001d3 7c40
0001d4 fc40
0001d5 7c04
0001d6 5050      	.DB  0x40,0x7C,0x40,0xFC,0x4,0x7C,0x50,0x50
0001d7 7c20
0001d8 2050
0001d9 7c00
0001da 507c      	.DB  0x20,0x7C,0x50,0x20,0x0,0x7C,0x7C,0x50
0001db 2050
0001dc 2800
0001dd 5444
0001de 3854      	.DB  0x50,0x20,0x0,0x28,0x44,0x54,0x54,0x38
0001df 107c
0001e0 4438
0001e1 0838
0001e2 3454      	.DB  0x7C,0x10,0x38,0x44,0x38,0x8,0x54,0x34
0001e3 7c14      	.DB  0x14,0x7C
                 _valve_cls_lbs:
0001e4 00c7      	.DB  0xC7,0x0
                 _valve_reg_lbs:
0001e5 00d0      	.DB  0xD0,0x0
                 _valve_opn_lbs:
0001e6 00ce      	.DB  0xCE,0x0
                 _valve_lbs:
0001e7 03c8
0001e8 03ca
0001e9 03cc      	.DB  LOW(_valve_cls_lbs*2),HIGH(_valve_cls_lbs*2),LOW(_valve_reg_lbs*2),HIGH(_valve_reg_lbs*2),LOW(_valve_opn_lbs*2),HIGH(_valve_opn_lbs*2)
                 _distilation:
0001ea e8c4
0001eb f2f1
0001ec ebe8
0001ed f6ff      	.DB  0xC4,0xE8,0xF1,0xF2,0xE8,0xEB,0xFF,0xF6
0001ee ffe8
D:\info\Shems\spirt\spirt v.1\spirt\program_V0.32\List\spirt.asm(1245): warning: .cseg .db misalignment - padding zero byte
0001ef 0000      	.DB  0xE8,0xFF,0x0
                 _rectification:
0001f0 e5d0
0001f1 f2ea
0001f2 f4e8
0001f3 eae8      	.DB  0xD0,0xE5,0xEA,0xF2,0xE8,0xF4,0xE8,0xEA
0001f4 f6e0
0001f5 ffe8
D:\info\Shems\spirt\spirt v.1\spirt\program_V0.32\List\spirt.asm(1248): warning: .cseg .db misalignment - padding zero byte
0001f6 0000      	.DB  0xE0,0xF6,0xE8,0xFF,0x0
                 _settings:
0001f7 e0cf
0001f8 e0f0
0001f9 e5ec
0001fa f0f2      	.DB  0xCF,0xE0,0xF0,0xE0,0xEC,0xE5,0xF2,0xF0
0001fb 00fb      	.DB  0xFB,0x0
                 _set_dist:
0001fc e8c4
0001fd f2f1
0001fe ebe8
0001ff f6ff      	.DB  0xC4,0xE8,0xF1,0xF2,0xE8,0xEB,0xFF,0xF6
000200 e8e8
D:\info\Shems\spirt\spirt v.1\spirt\program_V0.32\List\spirt.asm(1254): warning: .cseg .db misalignment - padding zero byte
000201 0000      	.DB  0xE8,0xE8,0x0
                 _set_rectif:
000202 e5d0
000203 f2ea
000204 f4e8
000205 eae8      	.DB  0xD0,0xE5,0xEA,0xF2,0xE8,0xF4,0xE8,0xEA
000206 f6e0
000207 e8e8
D:\info\Shems\spirt\spirt v.1\spirt\program_V0.32\List\spirt.asm(1257): warning: .cseg .db misalignment - padding zero byte
000208 0000      	.DB  0xE0,0xF6,0xE8,0xE8,0x0
                 _set_temp_sensors:
000209 e0c4
00020a f7f2
00020b eae8
00020c e2ee      	.DB  0xC4,0xE0,0xF2,0xF7,0xE8,0xEA,0xEE,0xE2
00020d f220
00020e ece5
00020f 00ef      	.DB  0x20,0xF2,0xE5,0xEC,0xEF,0x0
                 _set_calibrate_vlv:
000210 e0ca
000211 e8eb
000212 f0e1
000213 e2ee      	.DB  0xCA,0xE0,0xEB,0xE8,0xE1,0xF0,0xEE,0xE2
000214 e0ea
000215 ea20
000216 2eeb
D:\info\Shems\spirt\spirt v.1\spirt\program_V0.32\List\spirt.asm(1263): warning: .cseg .db misalignment - padding zero byte
000217 0000      	.DB  0xEA,0xE0,0x20,0xEA,0xEB,0x2E,0x0
                 _set_dis_t:
000218 2074
000219 f3ea
00021a e0e1
00021b ee20      	.DB  0x74,0x20,0xEA,0xF3,0xE1,0xE0,0x20,0xEE
00021c eaf2
00021d 2eeb
D:\info\Shems\spirt\spirt v.1\spirt\program_V0.32\List\spirt.asm(1266): warning: .cseg .db misalignment - padding zero byte
00021e 0000      	.DB  0xF2,0xEA,0xEB,0x2E,0x0
                 _set_dis_pten:
00021f f2d0
000220 edfd
000221 ed20
000222 f7e0      	.DB  0xD0,0xF2,0xFD,0xED,0x20,0xED,0xE0,0xF7
000223 ebe0
000224 edfc
000225 ffe0
D:\info\Shems\spirt\spirt v.1\spirt\program_V0.32\List\spirt.asm(1269): warning: .cseg .db misalignment - padding zero byte
000226 0000      	.DB  0xE0,0xEB,0xFC,0xED,0xE0,0xFF,0x0
                 _set_rect_pten_min:
000227 f2d0
000228 edfd
000229 ec20
00022a ede8      	.DB  0xD0,0xF2,0xFD,0xED,0x20,0xEC,0xE8,0xED
00022b 7420
00022c 363e
00022d 0030      	.DB  0x20,0x74,0x3E,0x36,0x30,0x0
                 _set_rect_Pkol_max:
00022e 2050
00022f eeea
000230 eeeb
000231 fbed      	.DB  0x50,0x20,0xEA,0xEE,0xEB,0xEE,0xED,0xFB
000232 ec20
000233 eae0
000234 00f1      	.DB  0x20,0xEC,0xE0,0xEA,0xF1,0x0
                 _set_rect_t_otbor:
000235 2074
000236 f2ee
000237 eee1
000238 e0f0      	.DB  0x74,0x20,0xEE,0xF2,0xE1,0xEE,0xF0,0xE0
D:\info\Shems\spirt\spirt v.1\spirt\program_V0.32\List\spirt.asm(1278): warning: .cseg .db misalignment - padding zero byte
000239 0000      	.DB  0x0
                 _set_rect_dt_otbor:
00023a 7464
00023b ee20
00023c e1f2
00023d f0ee      	.DB  0x64,0x74,0x20,0xEE,0xF2,0xE1,0xEE,0xF0
00023e 00e0      	.DB  0xE0,0x0
                 _set_rect_T1_valve:
00023f 3154
000240 e720
000241 e4e0
000242 202e      	.DB  0x54,0x31,0x20,0xE7,0xE0,0xE4,0x2E,0x20
000243 ebea
000244 efe0
000245 002e      	.DB  0xEA,0xEB,0xE0,0xEF,0x2E,0x0
                 _set_rect_T2_valve:
000246 3254
000247 e720
000248 e4e0
000249 202e      	.DB  0x54,0x32,0x20,0xE7,0xE0,0xE4,0x2E,0x20
00024a ebea
00024b efe0
00024c 002e      	.DB  0xEA,0xEB,0xE0,0xEF,0x2E,0x0
                 _set_rect_t_kuba_v:
00024d 2074
00024e f3ea
00024f e0e1
000250 e720      	.DB  0x74,0x20,0xEA,0xF3,0xE1,0xE0,0x20,0xE7
000251 e4e0
000252 202e
000253 ebea
D:\info\Shems\spirt\spirt v.1\spirt\program_V0.32\List\spirt.asm(1290): warning: .cseg .db misalignment - padding zero byte
000254 0000      	.DB  0xE0,0xE4,0x2E,0x20,0xEA,0xEB,0x0
                 _set_rect_t_kuba_off:
000255 2074
000256 f3ea
000257 e0e1
000258 ee20      	.DB  0x74,0x20,0xEA,0xF3,0xE1,0xE0,0x20,0xEE
000259 eaf2
00025a 2eeb
D:\info\Shems\spirt\spirt v.1\spirt\program_V0.32\List\spirt.asm(1293): warning: .cseg .db misalignment - padding zero byte
00025b 0000      	.DB  0xF2,0xEA,0xEB,0x2E,0x0
                 _set_rect_head_val:
00025c e1ce
00025d e5fa
00025e 20ec
00025f eee3      	.DB  0xCE,0xE1,0xFA,0xE5,0xEC,0x20,0xE3,0xEE
000260 eeeb
000261 00e2      	.DB  0xEB,0xEE,0xE2,0x0
                 _set_rect_body_spd:
000262 ead1
000263 f0ee
000264 f1ee
000265 fcf2      	.DB  0xD1,0xEA,0xEE,0xF0,0xEE,0xF1,0xF2,0xFC
000266 ee20
000267 e1f2
000268 002e      	.DB  0x20,0xEE,0xF2,0xE1,0x2E,0x0
                 _set_rect_pulse_d:
000269 ebc4
00026a f2e8
00026b 202e
00026c ece8      	.DB  0xC4,0xEB,0xE8,0xF2,0x2E,0x20,0xE8,0xEC
00026d f3ef
00026e fceb
00026f e0f1
D:\info\Shems\spirt\spirt v.1\spirt\program_V0.32\List\spirt.asm(1302): warning: .cseg .db misalignment - padding zero byte
000270 0000      	.DB  0xEF,0xF3,0xEB,0xFC,0xF1,0xE0,0x0
                 _set_rect_fact_q:
000271 e0d4
000272 f2ea
000273 ee20
000274 fae1      	.DB  0xD4,0xE0,0xEA,0xF2,0x20,0xEE,0xE1,0xFA
000275 ece5
000276 ee20
000277 e1f2
D:\info\Shems\spirt\spirt v.1\spirt\program_V0.32\List\spirt.asm(1305): warning: .cseg .db misalignment - padding zero byte
000278 0000      	.DB  0xE5,0xEC,0x20,0xEE,0xF2,0xE1,0x0
                 _set_rect_k_factor:
000279 eeca
00027a f4fd
00027b 2ef4
00027c f020      	.DB  0xCA,0xEE,0xFD,0xF4,0xF4,0x2E,0x20,0xF0
00027d f1e0
00027e eef5
00027f e0e4
D:\info\Shems\spirt\spirt v.1\spirt\program_V0.32\List\spirt.asm(1308): warning: .cseg .db misalignment - padding zero byte
000280 0000      	.DB  0xE0,0xF1,0xF5,0xEE,0xE4,0xE0,0x0
                 _set_sens_tkub:
000281 20d2
000282 f3ea
000283 e0e1
D:\info\Shems\spirt\spirt v.1\spirt\program_V0.32\List\spirt.asm(1310): warning: .cseg .db misalignment - padding zero byte
000284 0000      	.DB  0xD2,0x20,0xEA,0xF3,0xE1,0xE0,0x0
                 _set_sens_tkolona_down:
000285 20d2
000286 eeea
000287 eeeb
000288 fbed      	.DB  0xD2,0x20,0xEA,0xEE,0xEB,0xEE,0xED,0xFB
000289 ed20
00028a e7e8
D:\info\Shems\spirt\spirt v.1\spirt\program_V0.32\List\spirt.asm(1313): warning: .cseg .db misalignment - padding zero byte
00028b 0000      	.DB  0x20,0xED,0xE8,0xE7,0x0
                 _set_sens_tkolona_up:
00028c 20d2
00028d eeea
00028e eeeb
00028f fbed      	.DB  0xD2,0x20,0xEA,0xEE,0xEB,0xEE,0xED,0xFB
000290 e220
000291 f0e5
000292 00f5      	.DB  0x20,0xE2,0xE5,0xF0,0xF5,0x0
                 _set_on:
000293 eac2
000294 2eeb
D:\info\Shems\spirt\spirt v.1\spirt\program_V0.32\List\spirt.asm(1318): warning: .cseg .db misalignment - padding zero byte
000295 0000      	.DB  0xC2,0xEA,0xEB,0x2E,0x0
                 _set_off:
000296 fbc2
000297 ebea
000298 002e      	.DB  0xC2,0xFB,0xEA,0xEB,0x2E,0x0
                 _label_grad:
000299 00d1      	.DB  0xD1,0x0
                 _label_min:
00029a e8ec
00029b 00ed      	.DB  0xEC,0xE8,0xED,0x0
                 _label_mmhb:
00029c ecec
00029d f02e
00029e 2ef2
00029f f2f1      	.DB  0xEC,0xEC,0x2E,0xF0,0xF2,0x2E,0xF1,0xF2
D:\info\Shems\spirt\spirt v.1\spirt\program_V0.32\List\spirt.asm(1327): warning: .cseg .db misalignment - padding zero byte
0002a0 0000      	.DB  0x0
                 _label_percent:
0002a1 0025      	.DB  0x25,0x0
                 _label_ml:
0002a2 ebec
0002a3 002e      	.DB  0xEC,0xEB,0x2E,0x0
                 _label_mlph:
0002a4 ebec
0002a5 2f2e
0002a6 00f7      	.DB  0xEC,0xEB,0x2E,0x2F,0xF7,0x0
                 _label_ms:
0002a7 312a
0002a8 2030
0002a9 f1ec
D:\info\Shems\spirt\spirt v.1\spirt\program_V0.32\List\spirt.asm(1335): warning: .cseg .db misalignment - padding zero byte
0002aa 0000      	.DB  0x2A,0x31,0x30,0x20,0xEC,0xF1,0x0
                 
                 ;REGISTER BIT VARIABLES INITIALIZATION
                 __REG_BIT_VARS:
0002ab 0000      	.DW  0x0000
                 
                 _0x25:
D:\info\Shems\spirt\spirt v.1\spirt\program_V0.32\List\spirt.asm(1342): warning: .cseg .db misalignment - padding zero byte
0002ac 0004      	.DB  0x4
                 _0x26:
0002ad 0190      	.DB  0x90,0x1
                 _0x32:
D:\info\Shems\spirt\spirt v.1\spirt\program_V0.32\List\spirt.asm(1346): warning: .cseg .db misalignment - padding zero byte
0002ae 0000      	.DB  0x0
                 _0x0:
0002af 2d2d
0002b0 2d2d
0002b1 2d2d
0002b2 2d2d      	.DB  0x2D,0x2D,0x2D,0x2D,0x2D,0x2D,0x2D,0x2D
0002b3 2d2d
0002b4 2d2d
0002b5 2d2d
0002b6 2d2d      	.DB  0x2D,0x2D,0x2D,0x2D,0x2D,0x2D,0x2D,0x2D
0002b7 2000
0002b8 694e
0002b9 6f6b
0002ba 6f70      	.DB  0x0,0x20,0x4E,0x69,0x6B,0x6F,0x70,0x6F
0002bb 006c
0002bc 2020
0002bd 2020
0002be 7270      	.DB  0x6C,0x0,0x20,0x20,0x20,0x20,0x70,0x72
0002bf 7365
0002c0 6e65
0002c1 2074
0002c2 2020      	.DB  0x65,0x73,0x65,0x6E,0x74,0x20,0x20,0x20
0002c3 2020
0002c4 2000
0002c5 2020
0002c6 3c2d      	.DB  0x20,0x20,0x0,0x20,0x20,0x20,0x2D,0x3C
0002c7 cfd1
0002c8 d0c8
0002c9 3ed2
0002ca 202d      	.DB  0xD1,0xCF,0xC8,0xD0,0xD2,0x3E,0x2D,0x20
0002cb 2020
0002cc 0020
0002cd 2020
0002ce ea20      	.DB  0x20,0x20,0x20,0x0,0x20,0x20,0x20,0xEA
0002cf edee
0002d0 f0f2
0002d1 ebee
0002d2 e5eb      	.DB  0xEE,0xED,0xF2,0xF0,0xEE,0xEB,0xEB,0xE5
0002d3 20f0
0002d4 2020
0002d5 2000
0002d6 7768      	.DB  0xF0,0x20,0x20,0x20,0x0,0x20,0x68,0x77
0002d7 7620
0002d8 312e
0002d9 312e
0002da 2064      	.DB  0x20,0x76,0x2E,0x31,0x2E,0x31,0x64,0x20
0002db 2020
0002dc 2020
0002dd 0020
0002de 7320      	.DB  0x20,0x20,0x20,0x20,0x20,0x0,0x20,0x73
0002df 2077
0002e0 2e76
0002e1 2e30
0002e2 3233      	.DB  0x77,0x20,0x76,0x2E,0x30,0x2E,0x33,0x32
0002e3 662e
0002e4 7520
0002e5 696e
0002e6 2000      	.DB  0x2E,0x66,0x20,0x75,0x6E,0x69,0x0,0x20
0002e7 edc8
0002e8 f6e8
0002e9 e0e8
0002ea e8eb      	.DB  0xC8,0xED,0xE8,0xF6,0xE8,0xE0,0xEB,0xE8
0002eb e0e7
0002ec e8f6
0002ed 20ff
0002ee 0020      	.DB  0xE7,0xE0,0xF6,0xE8,0xFF,0x20,0x20,0x0
0002ef 2020
0002f0 e0e4
0002f1 f7f2
0002f2 eae8      	.DB  0x20,0x20,0xE4,0xE0,0xF2,0xF7,0xE8,0xEA
0002f3 e2ee
0002f4 d220
0002f5 2020
0002f6 2020      	.DB  0xEE,0xE2,0x20,0xD2,0x20,0x20,0x20,0x20
0002f7 2000
0002f8 2020
0002f9 cd20
0002fa e9e0      	.DB  0x0,0x20,0x20,0x20,0x20,0xCD,0xE0,0xE9
0002fb e5e4
0002fc eeed
0002fd 2020
0002fe 2020      	.DB  0xE4,0xE5,0xED,0xEE,0x20,0x20,0x20,0x20
0002ff 0020
000300 6925
000301 f820
000302 00f2      	.DB  0x20,0x0,0x25,0x69,0x20,0xF8,0xF2,0x0
                 _0x6000A:
000303 120f
000304 1279
000305 10f3
000306 11b1      	.DB  LOW(_HandlerEventButUp),HIGH(_HandlerEventButUp),LOW(_HandlerEventButDown),HIGH(_HandlerEventButDown),LOW(_HandlerEventButEnter),HIGH(_HandlerEventButEnter),LOW(_HandlerEventButEsc),HIGH(_HandlerEventButEsc)
000307 0f26
000308 1082
000309 10ab
00030a 12eb      	.DB  LOW(_HandlerEventTimer_1s),HIGH(_HandlerEventTimer_1s),LOW(_HandlerEventTimer_250ms),HIGH(_HandlerEventTimer_250ms),LOW(_HandlerEventTimer_10ms),HIGH(_HandlerEventTimer_10ms),LOW(_HandlerEventButLUp),HIGH(_HandlerEventButLUp)
00030b 132e
00030c 0ecb
00030d 0edf      	.DB  LOW(_HandlerEventButLDown),HIGH(_HandlerEventButLDown),LOW(_HandlerEventTimer_10s),HIGH(_HandlerEventTimer_10s),LOW(_HandlerEventTimer_1Hz),HIGH(_HandlerEventTimer_1Hz)
                 _0x80003:
D:\info\Shems\spirt\spirt v.1\spirt\program_V0.32\List\spirt.asm(1374): warning: .cseg .db misalignment - padding zero byte
00030e 0001      	.DB  0x1
                 _0x80117:
00030f 0000
000310 0000      	.DB  0x0,0x0,0x0,0x0
                 _0x80000:
000311 e5cd
000312 20f2
000313 e0ed
000314 ede7      	.DB  0xCD,0xE5,0xF2,0x20,0xED,0xE0,0xE7,0xED
000315 f7e0
000316 ede5
000317 fbed
000318 00f5      	.DB  0xE0,0xF7,0xE5,0xED,0xED,0xFB,0xF5,0x0
000319 2020
00031a e420
00031b f2e0
00031c e8f7      	.DB  0x20,0x20,0x20,0xE4,0xE0,0xF2,0xF7,0xE8
00031d eeea
00031e 20e2
00031f 2020
000320 0020      	.DB  0xEA,0xEE,0xE2,0x20,0x20,0x20,0x20,0x0
000321 2020
000322 2020
000323 2074
000324 f3ea      	.DB  0x20,0x20,0x20,0x20,0x74,0x20,0xEA,0xF3
000325 e0e1
000326 2021
000327 2020
000328 0020      	.DB  0xE1,0xE0,0x21,0x20,0x20,0x20,0x20,0x0
000329 2074
00032a eeea
00032b eeeb
00032c fbed      	.DB  0x74,0x20,0xEA,0xEE,0xEB,0xEE,0xED,0xFB
00032d e220
00032e f0e5
00032f 21f5
000330 0020      	.DB  0x20,0xE2,0xE5,0xF0,0xF5,0x21,0x20,0x0
000331 cf20
000332 e4ee
000333 ebea
000334 f7fe      	.DB  0x20,0xCF,0xEE,0xE4,0xEA,0xEB,0xFE,0xF7
000335 ede5
000336 20fb
000337 e5ed
000338 0020      	.DB  0xE5,0xED,0xFB,0x20,0xED,0xE5,0x20,0x0
000339 2020
00033a f1e2
00033b 20e5
00033c e0e4      	.DB  0x20,0x20,0xE2,0xF1,0xE5,0x20,0xE4,0xE0
00033d f7f2
00033e eae8
00033f 20e8
000340 0020      	.DB  0xF2,0xF7,0xE8,0xEA,0xE8,0x20,0x20,0x0
000341 e820
000342 e8eb
000343 ee20
000344 eaf2      	.DB  0x20,0xE8,0xEB,0xE8,0x20,0xEE,0xF2,0xEA
000345 feeb
000346 e5f7
000347 fbed
000348 0020      	.DB  0xEB,0xFE,0xF7,0xE5,0xED,0xFB,0x20,0x0
000349 ef20
00034a ebee
00034b eeed
00034c f2f1      	.DB  0x20,0xEF,0xEE,0xEB,0xED,0xEE,0xF1,0xF2
00034d fefc
00034e e220
00034f e5f1
000350 0021      	.DB  0xFC,0xFE,0x20,0xE2,0xF1,0xE5,0x21,0x0
000351 2020
000352 cd20
000353 20e5
000354 e5e2      	.DB  0x20,0x20,0x20,0xCD,0xE5,0x20,0xE2,0xE5
000355 edf0
000356 e9fb
000357 2020
000358 0020      	.DB  0xF0,0xED,0xFB,0xE9,0x20,0x20,0x20,0x0
000359 2020
00035a 2020
00035b e0e4
00035c f7f2      	.DB  0x20,0x20,0x20,0x20,0xE4,0xE0,0xF2,0xF7
00035d eae8
00035e 2020
00035f 2020
000360 0020      	.DB  0xE8,0xEA,0x20,0x20,0x20,0x20,0x20,0x0
000361 2020
000362 2020
000363 e5cd
000364 e220      	.DB  0x20,0x20,0x20,0x20,0xCD,0xE5,0x20,0xE2
000365 f0e5
000366 fbed
000367 20e9
000368 2020      	.DB  0xE5,0xF0,0xED,0xFB,0xE9,0x20,0x20,0x20
000369 2000
00036a 2020
00036b 2020
00036c e0e4      	.DB  0x0,0x20,0x20,0x20,0x20,0x20,0xE4,0xE0
00036d f7f2
00036e eae8
00036f 2020
000370 2020      	.DB  0xF2,0xF7,0xE8,0xEA,0x20,0x20,0x20,0x20
000371 0020
000372 7420
000373 ea20
000374 ebee      	.DB  0x20,0x0,0x20,0x74,0x20,0xEA,0xEE,0xEB
000375 edee
000376 20fb
000377 e5e2
000378 f5f0      	.DB  0xEE,0xED,0xFB,0x20,0xE2,0xE5,0xF0,0xF5
000379 2021
00037a 2000
00037b 2020
00037c e8c4      	.DB  0x21,0x20,0x0,0x20,0x20,0x20,0xC4,0xE8
00037d f2f1
00037e ebe8
00037f f6ff
000380 ffe8      	.DB  0xF1,0xF2,0xE8,0xEB,0xFF,0xF6,0xE8,0xFF
000381 2020
000382 0020
000383 f0cf
000384 f0e5      	.DB  0x20,0x20,0x20,0x0,0xCF,0xF0,0xE5,0xF0
000385 e0e2
000386 fcf2
000387 ef00
000388 eef0      	.DB  0xE2,0xE0,0xF2,0xFC,0x0,0xEF,0xF0,0xEE
000389 e5f6
00038a f1f1
00038b 003f
00038c 453c      	.DB  0xF6,0xE5,0xF1,0xF1,0x3F,0x0,0x3C,0x45
00038d 544e
00038e c43e
00038f 20e0
000390 453c      	.DB  0x4E,0x54,0x3E,0xC4,0xE0,0x20,0x3C,0x45
000391 4353
000392 cd3e
000393 f2e5
000394 c400      	.DB  0x53,0x43,0x3E,0xCD,0xE5,0xF2,0x0,0xC4
000395 f1e8
000396 e8f2
000397 ebeb
000398 f6ff      	.DB  0xE8,0xF1,0xF2,0xE8,0xEB,0xEB,0xFF,0xF6
000399 ffe8
00039a c200
00039b e5f0
00039c ffec      	.DB  0xE8,0xFF,0x0,0xC2,0xF0,0xE5,0xEC,0xFF
00039d 253a
00039e 6932
00039f 253a
0003a0 6932      	.DB  0x3A,0x25,0x32,0x69,0x3A,0x25,0x32,0x69
0003a1 253a
0003a2 6932
0003a3 7400
0003a4 eeea      	.DB  0x3A,0x25,0x32,0x69,0x0,0x74,0xEA,0xEE
0003a5 20eb
0003a6 20e2
0003a7 2d25
0003a8 2e33      	.DB  0xEB,0x20,0xE2,0x20,0x25,0x2D,0x33,0x2E
0003a9 6632
0003aa 2520
0003ab 0073
0003ac ea74      	.DB  0x32,0x66,0x20,0x25,0x73,0x0,0x74,0xEA
0003ad e1f3
0003ae 20e0
0003af 2520
0003b0 332d      	.DB  0xF3,0xE1,0xE0,0x20,0x20,0x25,0x2D,0x33
0003b1 322e
0003b2 2066
0003b3 7325
0003b4 2500      	.DB  0x2E,0x32,0x66,0x20,0x25,0x73,0x0,0x25
0003b5 ca63
0003b6 2deb
0003b7 7325
0003b8 2520      	.DB  0x63,0xCA,0xEB,0x2D,0x25,0x73,0x20,0x25
0003b9 2563
0003ba 2e34
0003bb 6630
0003bc ec20      	.DB  0x63,0x25,0x34,0x2E,0x30,0x66,0x20,0xEC
0003bd 2feb
0003be 00f7
0003bf 6325
0003c0 ddd2      	.DB  0xEB,0x2F,0xF7,0x0,0x25,0x63,0xD2,0xDD
0003c1 20cd
0003c2 3325
0003c3 2569
0003c4 0025      	.DB  0xCD,0x20,0x25,0x33,0x69,0x25,0x25,0x0
0003c5 7420
0003c6 ea20
0003c7 ebee
0003c8 edee      	.DB  0x20,0x74,0x20,0xEA,0xEE,0xEB,0xEE,0xED
0003c9 20fb
0003ca e8ed
0003cb 21e7
0003cc 0020      	.DB  0xFB,0x20,0xED,0xE8,0xE7,0x21,0x20,0x0
0003cd e5d0
0003ce f2ea
0003cf f4e8
0003d0 eae8      	.DB  0xD0,0xE5,0xEA,0xF2,0xE8,0xF4,0xE8,0xEA
0003d1 f6e0
0003d2 ffe8
0003d3 2000
0003d4 e5d0      	.DB  0xE0,0xF6,0xE8,0xFF,0x0,0x20,0xD0,0xE5
0003d5 f2ea
0003d6 f4e8
0003d7 eae8
0003d8 f6e0      	.DB  0xEA,0xF2,0xE8,0xF4,0xE8,0xEA,0xE0,0xF6
0003d9 ffe8
0003da 7400
0003db eeea
0003dc 20eb      	.DB  0xE8,0xFF,0x0,0x74,0xEA,0xEE,0xEB,0x20
0003dd 20ed
0003de 2d25
0003df 2e33
0003e0 6632      	.DB  0xED,0x20,0x25,0x2D,0x33,0x2E,0x32,0x66
0003e1 2520
0003e2 0073
0003e3 2020
0003e4 2020      	.DB  0x20,0x25,0x73,0x0,0x20,0x20,0x20,0x20
0003e5 2020
0003e6 2020
0003e7 2020
0003e8 2020      	.DB  0x20,0x20,0x20,0x20,0x20,0x20,0x20,0x20
0003e9 2020
0003ea 2020
0003eb d200
0003ec cddd      	.DB  0x20,0x20,0x20,0x20,0x0,0xD2,0xDD,0xCD
0003ed 3325
0003ee 2569
0003ef 0025
0003f0 5cd1      	.DB  0x25,0x33,0x69,0x25,0x25,0x0,0xD1,0x5C
0003f1 20d1
0003f2 7325
0003f3 ca20
0003f4 2520      	.DB  0xD1,0x20,0x25,0x73,0x20,0xCA,0x20,0x25
0003f5 0069
0003f6 f256
0003f7 2520
0003f8 2e34      	.DB  0x69,0x0,0x56,0xF2,0x20,0x25,0x34,0x2E
0003f9 6630
0003fa ec20
0003fb 2feb
0003fc 00f7      	.DB  0x30,0x66,0x20,0xEC,0xEB,0x2F,0xF7,0x0
0003fd e351
0003fe 2520
0003ff 2e34
000400 6632      	.DB  0x51,0xE3,0x20,0x25,0x34,0x2E,0x32,0x66
000401 ec20
000402 00eb
000403 2020
000404 c420      	.DB  0x20,0xEC,0xEB,0x0,0x20,0x20,0x20,0xC4
000405 f1e8
000406 e8f2
000407 ebeb
000408 f6ff      	.DB  0xE8,0xF1,0xF2,0xE8,0xEB,0xEB,0xFF,0xF6
000409 ffe8
00040a 2020
00040b 0020
00040c 2020      	.DB  0xE8,0xFF,0x20,0x20,0x20,0x0,0x20,0x20
00040d e5d0
00040e f2ea
00040f f4e8
000410 eae8      	.DB  0xD0,0xE5,0xEA,0xF2,0xE8,0xF4,0xE8,0xEA
000411 f6e0
000412 ffe8
000413 2020
000414 cf00      	.DB  0xE0,0xF6,0xE8,0xFF,0x20,0x20,0x0,0xCF
000415 eef0
000416 e5f6
000417 f1f1
000418 ee00      	.DB  0xF0,0xEE,0xF6,0xE5,0xF1,0xF1,0x0,0xEE
000419 eeea
00041a f7ed
00041b ede5
00041c 0021      	.DB  0xEA,0xEE,0xED,0xF7,0xE5,0xED,0x21,0x0
00041d e0ca
00041e e8eb
00041f f0e1
000420 e2ee      	.DB  0xCA,0xE0,0xEB,0xE8,0xE1,0xF0,0xEE,0xE2
000421 e0ea
000422 ce00
000423 e4f2
000424 e7ee      	.DB  0xEA,0xE0,0x0,0xCE,0xF2,0xE4,0xEE,0xE7
000425 f0e8
000426 e2ee
000427 ede0
000428 eeed      	.DB  0xE8,0xF0,0xEE,0xE2,0xE0,0xED,0xED,0xEE
000429 203a
00042a 5100
00042b 2520
00042c 2e34      	.DB  0x3A,0x20,0x0,0x51,0x20,0x25,0x34,0x2E
00042d 6632
00042e ec20
00042f 00eb
000430 206b      	.DB  0x32,0x66,0x20,0xEC,0xEB,0x0,0x6B,0x20
000431 3125
000432 342e
000433 2066
000434 ebec      	.DB  0x25,0x31,0x2E,0x34,0x66,0x20,0xEC,0xEB
000435 6900
000436 2520
000437 2069
000438 ece8      	.DB  0x0,0x69,0x20,0x25,0x69,0x20,0xE8,0xEC
000439 2eef
D:\info\Shems\spirt\spirt v.1\spirt\program_V0.32\List\spirt.asm(1452): warning: .cseg .db misalignment - padding zero byte
00043a 0000      	.DB  0xEF,0x2E,0x0
                 _0xA0003:
00043b 03d4
00043c 0a7f
00043d 0000
00043e e000      	.DB  LOW(_distilation*2),HIGH(_distilation*2),LOW(_RunDistilation),HIGH(_RunDistilation),0x0,0x0,0x0,LOW(_rectification*2)
00043f 9e03
000440 000b
000441 0000
000442 03ee      	.DB  HIGH(_rectification*2),LOW(_RunRectification),HIGH(_RunRectification),0x0,0x0,0x0,LOW(_settings*2),HIGH(_settings*2)
000443 1375
D:\info\Shems\spirt\spirt v.1\spirt\program_V0.32\List\spirt.asm(1456): warning: .cseg .db misalignment - padding zero byte
000444 0003      	.DB  LOW(_goto_menu),HIGH(_goto_menu),0x3
                 _0xA0004:
000445 03f8
000446 1375
000447 0001
000448 0402      	.DB  LOW(_set_dist*2),HIGH(_set_dist*2),LOW(_goto_menu),HIGH(_goto_menu),0x1,0x0,0x2,LOW(_set_rectif*2)
000449 7504
00044a 0213
00044b 0200
00044c 0412      	.DB  HIGH(_set_rectif*2),LOW(_goto_menu),HIGH(_goto_menu),0x2,0x0,0x2,LOW(_set_temp_sensors*2),HIGH(_set_temp_sensors*2)
00044d 1375
00044e 0004
00044f 2002
000450 e104      	.DB  LOW(_goto_menu),HIGH(_goto_menu),0x4,0x0,0x2,LOW(_set_calibrate_vlv*2),HIGH(_set_calibrate_vlv*2),LOW(_CalibrateValve)
000451 0016
000452 0200      	.DB  HIGH(_CalibrateValve),0x0,0x0,0x2
                 _0xA0005:
000453 0430
000454 1480
000455 0300
000456 3e00      	.DB  LOW(_set_dis_t*2),HIGH(_set_dis_t*2),LOW(_SetParam),HIGH(_SetParam),0x0,0x3,0x0,LOW(_set_dis_pten*2)
000457 8004
000458 0014
D:\info\Shems\spirt\spirt v.1\spirt\program_V0.32\List\spirt.asm(1464): warning: .cseg .db misalignment - padding zero byte
000459 0003      	.DB  HIGH(_set_dis_pten*2),LOW(_SetParam),HIGH(_SetParam),0x0,0x3
                 _0xA0006:
00045a 044e
00045b 1480
00045c 0300
00045d 5c01      	.DB  LOW(_set_rect_pten_min*2),HIGH(_set_rect_pten_min*2),LOW(_SetParam),HIGH(_SetParam),0x0,0x3,0x1,LOW(_set_rect_Pkol_max*2)
00045e 8004
00045f 0014
000460 0103
000461 046a      	.DB  HIGH(_set_rect_Pkol_max*2),LOW(_SetParam),HIGH(_SetParam),0x0,0x3,0x1,LOW(_set_rect_t_otbor*2),HIGH(_set_rect_t_otbor*2)
000462 1480
000463 0300
000464 7401
000465 8004      	.DB  LOW(_SetParam),HIGH(_SetParam),0x0,0x3,0x1,LOW(_set_rect_dt_otbor*2),HIGH(_set_rect_dt_otbor*2),LOW(_SetParam)
000466 0014
000467 0103
000468 047e
000469 1480      	.DB  HIGH(_SetParam),0x0,0x3,0x1,LOW(_set_rect_T1_valve*2),HIGH(_set_rect_T1_valve*2),LOW(_SetParam),HIGH(_SetParam)
00046a 0300
00046b 8c01
00046c 8004
00046d 0014      	.DB  0x0,0x3,0x1,LOW(_set_rect_T2_valve*2),HIGH(_set_rect_T2_valve*2),LOW(_SetParam),HIGH(_SetParam),0x0
00046e 0103
00046f 049a
000470 1480
000471 0300      	.DB  0x3,0x1,LOW(_set_rect_t_kuba_v*2),HIGH(_set_rect_t_kuba_v*2),LOW(_SetParam),HIGH(_SetParam),0x0,0x3
000472 aa01
000473 8004
000474 0014
000475 0103      	.DB  0x1,LOW(_set_rect_t_kuba_off*2),HIGH(_set_rect_t_kuba_off*2),LOW(_SetParam),HIGH(_SetParam),0x0,0x3,0x1
000476 04b8
000477 1480
000478 0300
000479 c401      	.DB  LOW(_set_rect_head_val*2),HIGH(_set_rect_head_val*2),LOW(_SetParam),HIGH(_SetParam),0x0,0x3,0x1,LOW(_set_rect_body_spd*2)
00047a 8004
00047b 0014
00047c 0103
00047d 04d2      	.DB  HIGH(_set_rect_body_spd*2),LOW(_SetParam),HIGH(_SetParam),0x0,0x3,0x1,LOW(_set_rect_pulse_d*2),HIGH(_set_rect_pulse_d*2)
00047e 1480
00047f 0300
000480 e201
000481 8004      	.DB  LOW(_SetParam),HIGH(_SetParam),0x0,0x3,0x1,LOW(_set_rect_fact_q*2),HIGH(_set_rect_fact_q*2),LOW(_SetParam)
000482 0014
000483 0103
000484 04f2
000485 1480      	.DB  HIGH(_SetParam),0x0,0x3,0x1,LOW(_set_rect_k_factor*2),HIGH(_set_rect_k_factor*2),LOW(_SetParam),HIGH(_SetParam)
000486 0300
D:\info\Shems\spirt\spirt v.1\spirt\program_V0.32\List\spirt.asm(1477): warning: .cseg .db misalignment - padding zero byte
000487 0001      	.DB  0x0,0x3,0x1
                 _0xA0007:
000488 0502
000489 162b
00048a 0300
00048b 0a02      	.DB  LOW(_set_sens_tkub*2),HIGH(_set_sens_tkub*2),LOW(_InitSensors),HIGH(_InitSensors),0x0,0x3,0x2,LOW(_set_sens_tkolona_down*2)
00048c 2b05
00048d 0016
00048e 0203
00048f 0518      	.DB  HIGH(_set_sens_tkolona_down*2),LOW(_InitSensors),HIGH(_InitSensors),0x0,0x3,0x2,LOW(_set_sens_tkolona_up*2),HIGH(_set_sens_tkolona_up*2)
000490 162b
000491 0300
D:\info\Shems\spirt\spirt v.1\spirt\program_V0.32\List\spirt.asm(1481): warning: .cseg .db misalignment - padding zero byte
000492 0002      	.DB  LOW(_InitSensors),HIGH(_InitSensors),0x0,0x3,0x2
                 _0xA0008:
000493 0300
000494 0f0f
000495 0201
000496 0f40      	.DB  0x0,0x3,LOW(_menu__G005),HIGH(_menu__G005),0x1,0x2,LOW(_menu_set_dist_G005),HIGH(_menu_set_dist_G005)
000497 0d02
000498 0f4e
000499 0403
00049a 0f24      	.DB  0x2,0xD,LOW(_menu_set_rect_G005),HIGH(_menu_set_rect_G005),0x3,0x4,LOW(_menu_settings_G005),HIGH(_menu_settings_G005)
00049b 0304
00049c 0fa9      	.DB  0x4,0x3,LOW(_menu_set_init_G005),HIGH(_menu_set_init_G005)
                 _0xA0000:
00049d 252d
00049e 2d73
00049f 2d00
0004a0 cc3d      	.DB  0x2D,0x25,0x73,0x2D,0x0,0x2D,0x3D,0xCC
0004a1 ede5
0004a2 3dfe
0004a3 002d
0004a4 255b      	.DB  0xE5,0xED,0xFE,0x3D,0x2D,0x0,0x5B,0x25
0004a5 5d73
0004a6 2500
0004a7 0073      	.DB  0x73,0x5D,0x0,0x25,0x73,0x0
                 _0xC0000:
0004a8 252d
0004a9 2d73
0004aa 2a00
0004ab 7325      	.DB  0x2D,0x25,0x73,0x2D,0x0,0x2A,0x25,0x73
0004ac 002a
0004ad 3125
0004ae 342e
0004af 2066      	.DB  0x2A,0x0,0x25,0x31,0x2E,0x34,0x66,0x20
0004b0 7325
0004b1 2500
0004b2 2e33
0004b3 6632      	.DB  0x25,0x73,0x0,0x25,0x33,0x2E,0x32,0x66
0004b4 2520
0004b5 0073
0004b6 7525
0004b7 2520      	.DB  0x20,0x25,0x73,0x0,0x25,0x75,0x20,0x25
0004b8 0073
0004b9 253c
0004ba 3e73
0004bb c800      	.DB  0x73,0x0,0x3C,0x25,0x73,0x3E,0x0,0xC8
0004bc e8ed
0004bd e8f6
0004be ebe0
0004bf e7e8      	.DB  0xED,0xE8,0xF6,0xE8,0xE0,0xEB,0xE8,0xE7
0004c0 f6e0
0004c1 ffe8
0004c2 cf00
0004c3 e4ee      	.DB  0xE0,0xF6,0xE8,0xFF,0x0,0xCF,0xEE,0xE4
0004c4 ebea
0004c5 f7fe
0004c6 f2e8
0004c7 20e5      	.DB  0xEA,0xEB,0xFE,0xF7,0xE8,0xF2,0xE5,0x20
0004c8 e4ee
0004c9 ede8
0004ca e400
0004cb f2e0      	.DB  0xEE,0xE4,0xE8,0xED,0x0,0xE4,0xE0,0xF2
0004cc e8f7
0004cd 20ea
0004ce 2121
0004cf 0021      	.DB  0xF7,0xE8,0xEA,0x20,0x21,0x21,0x21,0x0
0004d0 e0ed
0004d1 ece6
0004d2 f2e8
0004d3 20e5      	.DB  0xED,0xE0,0xE6,0xEC,0xE8,0xF2,0xE5,0x20
0004d4 453c
0004d5 544e
0004d6 003e
0004d7 4449      	.DB  0x3C,0x45,0x4E,0x54,0x3E,0x0,0x49,0x44
0004d8 253a
0004d9 5832
0004da 3225
0004db 0058      	.DB  0x3A,0x25,0x32,0x58,0x25,0x32,0x58,0x0
0004dc c820
0004dd e8ed
0004de e8f6
0004df ebe0      	.DB  0x20,0xC8,0xED,0xE8,0xF6,0xE8,0xE0,0xEB
0004e0 e7e8
0004e1 f6e0
0004e2 ffe8
0004e3 0020      	.DB  0xE8,0xE7,0xE0,0xF6,0xE8,0xFF,0x20,0x0
0004e4 ef20
0004e5 eef0
0004e6 ebf8
0004e7 00e0      	.DB  0x20,0xEF,0xF0,0xEE,0xF8,0xEB,0xE0,0x0
0004e8 f320
0004e9 eff1
0004ea f8e5
0004eb eeed      	.DB  0x20,0xF3,0xF1,0xEF,0xE5,0xF8,0xED,0xEE
0004ec 0021
0004ed ed20
0004ee 20e5
0004ef f0ef      	.DB  0x21,0x0,0x20,0xED,0xE5,0x20,0xEF,0xF0
0004f0 f8ee
0004f1 e0eb
0004f2 202e
0004f3 ebc4      	.DB  0xEE,0xF8,0xEB,0xE0,0x2E,0x20,0xC4,0xEB
0004f4 00ff
0004f5 eeef
0004f6 f2e2
0004f7 f0ee      	.DB  0xFF,0x0,0xEF,0xEE,0xE2,0xF2,0xEE,0xF0
0004f8 20e0
0004f9 e0ed
0004fa ece6
0004fb f2e8      	.DB  0xE0,0x20,0xED,0xE0,0xE6,0xEC,0xE8,0xF2
0004fc 00e5
0004fd 453c
0004fe 544e
0004ff 2e3e      	.DB  0xE5,0x0,0x3C,0x45,0x4E,0x54,0x3E,0x2E
000500 3c20
000501 5345
000502 3e43
000503 e400      	.DB  0x20,0x3C,0x45,0x53,0x43,0x3E,0x0,0xE4
000504 ffeb
000505 e220
000506 f5fb
000507 e4ee      	.DB  0xEB,0xFF,0x20,0xE2,0xFB,0xF5,0xEE,0xE4
000508 2ee0
000509 2000
00050a 2020
00050b e0ca      	.DB  0xE0,0x2E,0x0,0x20,0x20,0x20,0xCA,0xE0
00050c e8eb
00050d f0e1
00050e e2ee
00050f e0ea      	.DB  0xEB,0xE8,0xE1,0xF0,0xEE,0xE2,0xEA,0xE0
000510 2020
000511 0020
000512 e420
000513 e7ee      	.DB  0x20,0x20,0x20,0x0,0x20,0xE4,0xEE,0xE7
000514 f0e8
000515 202e
000516 ebea
000517 efe0      	.DB  0xE8,0xF0,0x2E,0x20,0xEA,0xEB,0xE0,0xEF
000518 ede0
000519 20e0
00051a 2000
00051b ce20      	.DB  0xE0,0xED,0xE0,0x20,0x0,0x20,0x20,0xCE
00051c e1f2
00051d f0ee
00051e 3520
00051f 2030      	.DB  0xF2,0xE1,0xEE,0xF0,0x20,0x35,0x30,0x20
000520 ebec
000521 202e
000522 0020
000523 2020      	.DB  0xEC,0xEB,0x2E,0x20,0x20,0x0,0x20,0x20
000524 c420
000525 ffeb
000526 ed20
000527 f7e0      	.DB  0x20,0xC4,0xEB,0xFF,0x20,0xED,0xE0,0xF7
000528 ebe0
000529 20e0
00052a 2020
00052b 2000      	.DB  0xE0,0xEB,0xE0,0x20,0x20,0x20,0x0,0x20
00052c e0ed
00052d ece6
00052e f2e8
00052f 20e5      	.DB  0xED,0xE0,0xE6,0xEC,0xE8,0xF2,0xE5,0x20
000530 453c
000531 544e
000532 203e
000533 0020      	.DB  0x3C,0x45,0x4E,0x54,0x3E,0x20,0x20,0x0
                 _0x2020000:
000534 4e2d
000535 4e41
D:\info\Shems\spirt\spirt v.1\spirt\program_V0.32\List\spirt.asm(1527): warning: .cseg .db misalignment - padding zero byte
000536 0000      	.DB  0x2D,0x4E,0x41,0x4E,0x0
                 _0x2040060:
D:\info\Shems\spirt\spirt v.1\spirt\program_V0.32\List\spirt.asm(1529): warning: .cseg .db misalignment - padding zero byte
000537 0001      	.DB  0x1
                 _0x2040000:
000538 4e2d
000539 4e41
00053a 4900
00053b 464e      	.DB  0x2D,0x4E,0x41,0x4E,0x0,0x49,0x4E,0x46
D:\info\Shems\spirt\spirt v.1\spirt\program_V0.32\List\spirt.asm(1532): warning: .cseg .db misalignment - padding zero byte
00053c 0000      	.DB  0x0
                 
                 __GLOBAL_INI_TBL:
00053d 0001      	.DW  0x01
00053e 0002      	.DW  0x02
00053f 0556      	.DW  __REG_BIT_VARS*2
                 
000540 0001      	.DW  0x01
000541 0a2d      	.DW  _valvePulse
000542 0558      	.DW  _0x25*2
                 
000543 0002      	.DW  0x02
000544 0a30      	.DW  _pwmPeriod
000545 055a      	.DW  _0x26*2
                 
000546 0011      	.DW  0x11
000547 0500      	.DW  _0x27
000548 055e      	.DW  _0x0*2
                 
000549 0009      	.DW  0x09
00054a 0511      	.DW  _0x27+17
00054b 056f      	.DW  _0x0*2+17
                 
00054c 0011      	.DW  0x11
00054d 051a      	.DW  _0x27+26
00054e 0578      	.DW  _0x0*2+26
                 
00054f 0011      	.DW  0x11
000550 052b      	.DW  _0x27+43
000551 0589      	.DW  _0x0*2+43
                 
000552 0011      	.DW  0x11
000553 053c      	.DW  _0x27+60
000554 059a      	.DW  _0x0*2+60
                 
000555 0011      	.DW  0x11
000556 054d      	.DW  _0x27+77
000557 05ab      	.DW  _0x0*2+77
                 
000558 0011      	.DW  0x11
000559 055e      	.DW  _0x27+94
00055a 05bc      	.DW  _0x0*2+94
                 
00055b 0011      	.DW  0x11
00055c 056f      	.DW  _0x27+111
00055d 05cd      	.DW  _0x0*2+111
                 
00055e 0011      	.DW  0x11
00055f 0580      	.DW  _0x27+128
000560 05de      	.DW  _0x0*2+128
                 
000561 0011      	.DW  0x11
000562 0591      	.DW  _0x27+145
000563 05ef      	.DW  _0x0*2+145
                 
000564 0001      	.DW  0x01
000565 0006      	.DW  0x06
000566 055c      	.DW  _0x32*2
                 
000567 0016      	.DW  0x16
000568 0ec9      	.DW  _FuncAr
000569 0606      	.DW  _0x6000A*2
                 
00056a 0001      	.DW  0x01
00056b 0a1f      	.DW  _mode
00056c 061c      	.DW  _0x80003*2
                 
00056d 0010      	.DW  0x10
00056e 05a2      	.DW  _0x80007
00056f 0622      	.DW  _0x80000*2
                 
000570 0010      	.DW  0x10
000571 05b2      	.DW  _0x80007+16
000572 0632      	.DW  _0x80000*2+16
                 
000573 0010      	.DW  0x10
000574 05c2      	.DW  _0x80007+32
000575 0642      	.DW  _0x80000*2+32
                 
000576 0010      	.DW  0x10
000577 05d2      	.DW  _0x80007+48
000578 0622      	.DW  _0x80000*2
                 
000579 0010      	.DW  0x10
00057a 05e2      	.DW  _0x80007+64
00057b 0632      	.DW  _0x80000*2+16
                 
00057c 0010      	.DW  0x10
00057d 05f2      	.DW  _0x80007+80
00057e 0652      	.DW  _0x80000*2+48
                 
00057f 0010      	.DW  0x10
000580 0602      	.DW  _0x80007+96
000581 0662      	.DW  _0x80000*2+64
                 
000582 0010      	.DW  0x10
000583 0612      	.DW  _0x80007+112
000584 0672      	.DW  _0x80000*2+80
                 
000585 0010      	.DW  0x10
000586 0622      	.DW  _0x80007+128
000587 0682      	.DW  _0x80000*2+96
                 
000588 0010      	.DW  0x10
000589 0632      	.DW  _0x80007+144
00058a 0692      	.DW  _0x80000*2+112
                 
00058b 0010      	.DW  0x10
00058c 0642      	.DW  _0x80007+160
00058d 06a2      	.DW  _0x80000*2+128
                 
00058e 0010      	.DW  0x10
00058f 0652      	.DW  _0x80007+176
000590 06b2      	.DW  _0x80000*2+144
                 
000591 0010      	.DW  0x10
000592 0662      	.DW  _0x80007+192
000593 0642      	.DW  _0x80000*2+32
                 
000594 0011      	.DW  0x11
000595 0672      	.DW  _0x80007+208
000596 06c2      	.DW  _0x80000*2+160
                 
000597 0011      	.DW  0x11
000598 0683      	.DW  _0x80007+225
000599 06d3      	.DW  _0x80000*2+177
                 
00059a 0011      	.DW  0x11
00059b 0694      	.DW  _0x80007+242
00059c 06e4      	.DW  _0x80000*2+194
                 
00059d 0011      	.DW  0x11
00059e 06a5      	.DW  _0x8000F
00059f 06f5      	.DW  _0x80000*2+211
                 
0005a0 0009      	.DW  0x09
0005a1 06b6      	.DW  _0x8000F+17
0005a2 0706      	.DW  _0x80000*2+228
                 
0005a3 0009      	.DW  0x09
0005a4 06bf      	.DW  _0x8000F+26
0005a5 070f      	.DW  _0x80000*2+237
                 
0005a6 0011      	.DW  0x11
0005a7 06c8      	.DW  _0x8000F+35
0005a8 0718      	.DW  _0x80000*2+246
                 
0005a9 000c      	.DW  0x0C
0005aa 06d9      	.DW  _0x8000F+52
0005ab 0729      	.DW  _0x80000*2+263
                 
0005ac 0010      	.DW  0x10
0005ad 06e5      	.DW  _0x80025
0005ae 0622      	.DW  _0x80000*2
                 
0005af 0010      	.DW  0x10
0005b0 06f5      	.DW  _0x80025+16
0005b1 0632      	.DW  _0x80000*2+16
                 
0005b2 0010      	.DW  0x10
0005b3 0705      	.DW  _0x80025+32
0005b4 0642      	.DW  _0x80000*2+32
                 
0005b5 0010      	.DW  0x10
0005b6 0715      	.DW  _0x80025+48
0005b7 0622      	.DW  _0x80000*2
                 
0005b8 0010      	.DW  0x10
0005b9 0725      	.DW  _0x80025+64
0005ba 0632      	.DW  _0x80000*2+16
                 
0005bb 0010      	.DW  0x10
0005bc 0735      	.DW  _0x80025+80
0005bd 078a      	.DW  _0x80000*2+360
                 
0005be 0010      	.DW  0x10
0005bf 0745      	.DW  _0x80025+96
0005c0 0622      	.DW  _0x80000*2
                 
0005c1 0010      	.DW  0x10
0005c2 0755      	.DW  _0x80025+112
0005c3 0632      	.DW  _0x80000*2+16
                 
0005c4 0010      	.DW  0x10
0005c5 0765      	.DW  _0x80025+128
0005c6 0652      	.DW  _0x80000*2+48
                 
0005c7 0010      	.DW  0x10
0005c8 0775      	.DW  _0x80025+144
0005c9 0662      	.DW  _0x80000*2+64
                 
0005ca 0010      	.DW  0x10
0005cb 0785      	.DW  _0x80025+160
0005cc 0672      	.DW  _0x80000*2+80
                 
0005cd 0010      	.DW  0x10
0005ce 0795      	.DW  _0x80025+176
0005cf 0682      	.DW  _0x80000*2+96
                 
0005d0 0010      	.DW  0x10
0005d1 07a5      	.DW  _0x80025+192
0005d2 0692      	.DW  _0x80000*2+112
                 
0005d3 0010      	.DW  0x10
0005d4 07b5      	.DW  _0x80025+208
0005d5 06a2      	.DW  _0x80000*2+128
                 
0005d6 0010      	.DW  0x10
0005d7 07c5      	.DW  _0x80025+224
0005d8 06b2      	.DW  _0x80000*2+144
                 
0005d9 0010      	.DW  0x10
0005da 07d5      	.DW  _0x80025+240
0005db 0642      	.DW  _0x80000*2+32
                 
0005dc 0011      	.DW  0x11
0005dd 07e5      	.DW  _0x80025+256
0005de 06c2      	.DW  _0x80000*2+160
                 
0005df 0011      	.DW  0x11
0005e0 07f6      	.DW  _0x80025+273
0005e1 06d3      	.DW  _0x80000*2+177
                 
0005e2 0011      	.DW  0x11
0005e3 0807      	.DW  _0x80025+290
0005e4 06e4      	.DW  _0x80000*2+194
                 
0005e5 0010      	.DW  0x10
0005e6 0818      	.DW  _0x80025+307
0005e7 06a2      	.DW  _0x80000*2+128
                 
0005e8 0010      	.DW  0x10
0005e9 0828      	.DW  _0x80025+323
0005ea 06b2      	.DW  _0x80000*2+144
                 
0005eb 0010      	.DW  0x10
0005ec 0838      	.DW  _0x80025+339
0005ed 078a      	.DW  _0x80000*2+360
                 
0005ee 000d      	.DW  0x0D
0005ef 0848      	.DW  _0x80031
0005f0 079a      	.DW  _0x80000*2+376
                 
0005f1 0009      	.DW  0x09
0005f2 0855      	.DW  _0x80031+13
0005f3 0706      	.DW  _0x80000*2+228
                 
0005f4 0009      	.DW  0x09
0005f5 085e      	.DW  _0x80031+22
0005f6 070f      	.DW  _0x80000*2+237
                 
0005f7 0011      	.DW  0x11
0005f8 0867      	.DW  _0x80031+31
0005f9 0718      	.DW  _0x80000*2+246
                 
0005fa 000e      	.DW  0x0E
0005fb 0878      	.DW  _0x80031+48
0005fc 07a7      	.DW  _0x80000*2+389
                 
0005fd 0011      	.DW  0x11
0005fe 0886      	.DW  _0x80031+62
0005ff 07c6      	.DW  _0x80000*2+420
                 
000600 0012      	.DW  0x12
000601 0897      	.DW  _0x80044
000602 0806      	.DW  _0x80000*2+484
                 
000603 0011      	.DW  0x11
000604 08a9      	.DW  _0x80044+18
000605 0818      	.DW  _0x80000*2+502
                 
000606 0008      	.DW  0x08
000607 08ba      	.DW  _0x80044+35
000608 0829      	.DW  _0x80000*2+519
                 
000609 0009      	.DW  0x09
00060a 08c2      	.DW  _0x80044+43
00060b 0831      	.DW  _0x80000*2+527
                 
00060c 000b      	.DW  0x0B
00060d 08cb      	.DW  _0x80047
00060e 083a      	.DW  _0x80000*2+536
                 
00060f 0009      	.DW  0x09
000610 08d6      	.DW  _0x80047+11
000611 0706      	.DW  _0x80000*2+228
                 
000612 0009      	.DW  0x09
000613 08df      	.DW  _0x80047+20
000614 070f      	.DW  _0x80000*2+237
                 
000615 0011      	.DW  0x11
000616 08e8      	.DW  _0x80047+29
000617 0718      	.DW  _0x80000*2+246
                 
000618 000b      	.DW  0x0B
000619 08f9      	.DW  _0x80047+46
00061a 083a      	.DW  _0x80000*2+536
                 
00061b 0010      	.DW  0x10
00061c 0904      	.DW  _0x80047+57
00061d 0845      	.DW  _0x80000*2+547
                 
00061e 0004      	.DW  0x04
00061f 000a      	.DW  0x0A
000620 061e      	.DW  _0x80117*2
                 
000621 0013      	.DW  0x13
000622 0f0f      	.DW  _menu__G005
000623 0876      	.DW  _0xA0003*2
                 
000624 001c      	.DW  0x1C
000625 0f24      	.DW  _menu_settings_G005
000626 088a      	.DW  _0xA0004*2
                 
000627 000d      	.DW  0x0D
000628 0f40      	.DW  _menu_set_dist_G005
000629 08a6      	.DW  _0xA0005*2
                 
00062a 005b      	.DW  0x5B
00062b 0f4e      	.DW  _menu_set_rect_G005
00062c 08b4      	.DW  _0xA0006*2
                 
00062d 0015      	.DW  0x15
00062e 0fa9      	.DW  _menu_set_init_G005
00062f 0910      	.DW  _0xA0007*2
                 
000630 0014      	.DW  0x14
000631 0ae3      	.DW  _menu
000632 0926      	.DW  _0xA0008*2
                 
000633 000e      	.DW  0x0E
000634 0914      	.DW  _0xC001F
000635 0977      	.DW  _0xC0000*2+39
                 
000636 0010      	.DW  0x10
000637 0922      	.DW  _0xC001F+14
000638 0985      	.DW  _0xC0000*2+53
                 
000639 000b      	.DW  0x0B
00063a 0932      	.DW  _0xC001F+30
00063b 0995      	.DW  _0xC0000*2+69
                 
00063c 000e      	.DW  0x0E
00063d 093d      	.DW  _0xC001F+41
00063e 09a0      	.DW  _0xC0000*2+80
                 
00063f 0010      	.DW  0x10
000640 094b      	.DW  _0xC0024
000641 09b8      	.DW  _0xC0000*2+104
                 
000642 0008      	.DW  0x08
000643 095b      	.DW  _0xC0024+16
000644 09c8      	.DW  _0xC0000*2+120
                 
000645 000a      	.DW  0x0A
000646 0963      	.DW  _0xC0024+24
000647 09d0      	.DW  _0xC0000*2+128
                 
000648 0010      	.DW  0x10
000649 096d      	.DW  _0xC0024+34
00064a 09b8      	.DW  _0xC0000*2+104
                 
00064b 0010      	.DW  0x10
00064c 097d      	.DW  _0xC0024+50
00064d 09da      	.DW  _0xC0000*2+138
                 
00064e 0010      	.DW  0x10
00064f 098d      	.DW  _0xC0024+66
000650 09ea      	.DW  _0xC0000*2+154
                 
000651 000d      	.DW  0x0D
000652 099d      	.DW  _0xC0024+82
000653 09fa      	.DW  _0xC0000*2+170
                 
000654 000c      	.DW  0x0C
000655 09aa      	.DW  _0xC0024+95
000656 0a07      	.DW  _0xC0000*2+183
                 
000657 0011      	.DW  0x11
000658 09b6      	.DW  _0xC0026
000659 0a13      	.DW  _0xC0000*2+195
                 
00065a 0011      	.DW  0x11
00065b 09c7      	.DW  _0xC0026+17
00065c 0a24      	.DW  _0xC0000*2+212
                 
00065d 0011      	.DW  0x11
00065e 09d8      	.DW  _0xC0026+34
00065f 0a35      	.DW  _0xC0000*2+229
                 
000660 0011      	.DW  0x11
000661 09e9      	.DW  _0xC0026+51
000662 0a46      	.DW  _0xC0000*2+246
                 
000663 0011      	.DW  0x11
000664 09fa      	.DW  _0xC0026+68
000665 0a57      	.DW  _0xC0000*2+263
                 
000666 0001      	.DW  0x01
000667 0fbe      	.DW  __seed_G102
000668 0a6e      	.DW  _0x2040060*2
                 
                 _0xFFFFFFFF:
000669 0000      	.DW  0
                 
                 __RESET:
00066a 94f8      	CLI
00066b 27ee      	CLR  R30
00066c bbec      	OUT  EECR,R30
                 
                 ;INTERRUPT VECTORS ARE PLACED
                 ;AT THE START OF FLASH
00066d e0f1      	LDI  R31,1
00066e bff5      	OUT  MCUCR,R31
00066f bfe5      	OUT  MCUCR,R30
000670 93e0 006c 	STS  XMCRB,R30
                 
                 ;DISABLE WATCHDOG
000672 e1f8      	LDI  R31,0x18
000673 bdf1      	OUT  WDTCR,R31
000674 bde1      	OUT  WDTCR,R30
                 
                 ;CLEAR R2-R14
000675 e08d      	LDI  R24,(14-2)+1
000676 e0a2      	LDI  R26,2
000677 27bb      	CLR  R27
                 __CLEAR_REG:
000678 93ed      	ST   X+,R30
000679 958a      	DEC  R24
00067a f7e9      	BRNE __CLEAR_REG
                 
                 ;CLEAR SRAM
00067b e080      	LDI  R24,LOW(__CLEAR_SRAM_SIZE)
00067c e190      	LDI  R25,HIGH(__CLEAR_SRAM_SIZE)
00067d e0a0      	LDI  R26,LOW(__SRAM_START)
00067e e0b1      	LDI  R27,HIGH(__SRAM_START)
                 __CLEAR_SRAM:
00067f 93ed      	ST   X+,R30
000680 9701      	SBIW R24,1
000681 f7e9      	BRNE __CLEAR_SRAM
                 
                 ;GLOBAL VARIABLES INITIALIZATION
000682 e7ea      	LDI  R30,LOW(__GLOBAL_INI_TBL*2)
000683 e0fa      	LDI  R31,HIGH(__GLOBAL_INI_TBL*2)
                 __GLOBAL_INI_NEXT:
000684 9185      	LPM  R24,Z+
000685 9195      	LPM  R25,Z+
000686 9700      	SBIW R24,0
000687 f061      	BREQ __GLOBAL_INI_END
000688 91a5      	LPM  R26,Z+
000689 91b5      	LPM  R27,Z+
00068a 9005      	LPM  R0,Z+
00068b 9015      	LPM  R1,Z+
00068c 01bf      	MOVW R22,R30
00068d 01f0      	MOVW R30,R0
                 __GLOBAL_INI_LOOP:
00068e 9005      	LPM  R0,Z+
00068f 920d      	ST   X+,R0
000690 9701      	SBIW R24,1
000691 f7e1      	BRNE __GLOBAL_INI_LOOP
000692 01fb      	MOVW R30,R22
000693 cff0      	RJMP __GLOBAL_INI_NEXT
                 __GLOBAL_INI_END:
                 
000694 bf8b      	OUT  RAMPZ,R24
                 
                 ;HARDWARE STACK POINTER INITIALIZATION
000695 efef      	LDI  R30,LOW(__SRAM_END-__HEAP_SIZE)
000696 bfed      	OUT  SPL,R30
000697 e1e0      	LDI  R30,HIGH(__SRAM_END-__HEAP_SIZE)
000698 bfee      	OUT  SPH,R30
                 
                 ;DATA STACK POINTER INITIALIZATION
000699 e0c0      	LDI  R28,LOW(__SRAM_START+__DSTACK_SIZE)
00069a e0d5      	LDI  R29,HIGH(__SRAM_START+__DSTACK_SIZE)
                 
00069b 940c 0799 	JMP  _main
                 
                 	.ESEG
                 	.ORG 0
                 
                 	.DSEG
                 	.ORG 0x500
                 
                 	.CSEG
                 ;/*****************************************************
                 ;This program was produced by the
                 ;CodeWizardAVR V2.05.3 Standard
                 ;Automatic Program Generator
                 ; Copyright 1998-2011 Pavel Haiduc, HP InfoTech s.r.l.
                 ;http://www.hpinfotech.com
                 ;
                 ;Project :
                 ;Version :
                 ;Date    : 06.03.2015
                 ;Author  : PerTic@n
                 ;Company : If You Like This Software,Buy It
                 ;Comments:
                 ;
                 ;
                 ;Chip type               : ATmega128
                 ;Program type            : Application
                 ;AVR Core Clock frequency: 14,745600 MHz
                 ;Memory model            : Small
                 ;External RAM size       : 0
                 ;Data Stack size         : 1024
                 ;*****************************************************/
                 ;#include <mega128.h>
                 	#ifndef __SLEEP_DEFINED__
                 	#define __SLEEP_DEFINED__
                 	.EQU __se_bit=0x20
                 	.EQU __sm_mask=0x1C
                 	.EQU __sm_powerdown=0x10
                 	.EQU __sm_powersave=0x18
                 	.EQU __sm_standby=0x14
                 	.EQU __sm_ext_standby=0x1C
                 	.EQU __sm_adc_noise_red=0x08
                 	.SET power_ctrl_reg=mcucr
                 	#endif
                 ;#include <delay.h>
                 ;#include <nokia1100_lcd_lib.h>
                 ;#include <circlebuffer.h>
                 ;#include <handlers.h>
                 ;#include <buttons.h>
                 ;#include <general.h>
                 ;#include <hwinit.h>
                 ;#include <settings.h>
                 ;#include <menu.h>
                 ;
                 ;#include <OWIPolled.h>
                 ;#include <OWIHighLevelFunctions.h>
                 ;#include <OWIBitFunctions.h>
                 ;#include <OWIcrc.h>
                 ;
                 ;unsigned char ds1820_devices;
                 ;OWI_device ds1820_rom_codes[MAX_DS1820];
                 ;OWI_device t_rom_codes[MAX_DS1820];
                 ;
                 ;// External Interrupt 2 service routine
                 ;interrupt [EXT_INT2] void ext_int2_isr(void)
                 ; 0000 002D {
                 
                 	.CSEG
                 _ext_int2_isr:
00069d 940e 1e8b 	CALL SUBOPT_0x0
                 ; 0000 002E // Place your code here
                 ; 0000 002F static  char halph_wave_counter = 0, halph_wave_counter3 = 0;
                 ; 0000 0030 static  unsigned int halph_wave_counter2 = 0;
                 ; 0000 0031 
                 ; 0000 0032 if (++halph_wave_counter3 >= 99) { //100
00069f 91a0 0b2d 	LDS  R26,_halph_wave_counter3_S0000000000
0006a1 5faf      	SUBI R26,-LOW(1)
0006a2 93a0 0b2d 	STS  _halph_wave_counter3_S0000000000,R26
0006a4 36a3      	CPI  R26,LOW(0x63)
0006a5 f030      	BRLO _0x3
                 ; 0000 0033     ES_PlaceHeadEvent(EVENT_TIMER_1Hz);
0006a6 e0ab      	LDI  R26,LOW(11)
0006a7 940e 0a50 	CALL _ES_PlaceHeadEvent
                 ; 0000 0034     halph_wave_counter3 = 0;
0006a9 e0e0      	LDI  R30,LOW(0)
0006aa 93e0 0b2d 	STS  _halph_wave_counter3_S0000000000,R30
                 ; 0000 0035 }
                 ; 0000 0036 
                 ; 0000 0037  if (heater_power == 100) {
                 _0x3:
0006ac 91a0 0a2b 	LDS  R26,_heater_power
0006ae 36a4      	CPI  R26,LOW(0x64)
0006af f411      	BRNE _0x4
                 ; 0000 0038     HEATER_ON;
0006b0 9ada      	SBI  0x1B,2
                 ; 0000 0039     halph_wave_counter = 0;
0006b1 c019      	RJMP _0x2F
                 ; 0000 003A  } else if (heater_power > 0) {
                 _0x4:
0006b2 91a0 0a2b 	LDS  R26,_heater_power
0006b4 30a1      	CPI  R26,LOW(0x1)
0006b5 f0a0      	BRLO _0x6
                 ; 0000 003B 
                 ; 0000 003C     if (++halph_wave_counter >= heater_power) {
0006b6 91a0 0b2c 	LDS  R26,_halph_wave_counter_S0000000000
0006b8 5faf      	SUBI R26,-LOW(1)
0006b9 93a0 0b2c 	STS  _halph_wave_counter_S0000000000,R26
0006bb 91e0 0a2b 	LDS  R30,_heater_power
0006bd 17ae      	CP   R26,R30
0006be f010      	BRLO _0x7
                 ; 0000 003D         HEATER_OFF;
0006bf 98da      	CBI  0x1B,2
                 ; 0000 003E     } else {
0006c0 c001      	RJMP _0x8
                 _0x7:
                 ; 0000 003F         HEATER_ON;
0006c1 9ada      	SBI  0x1B,2
                 ; 0000 0040     }
                 _0x8:
                 ; 0000 0041 
                 ; 0000 0042     if (halph_wave_counter >= 99) { //100
0006c2 91a0 0b2c 	LDS  R26,_halph_wave_counter_S0000000000
0006c4 36a3      	CPI  R26,LOW(0x63)
0006c5 f018      	BRLO _0x9
                 ; 0000 0043         halph_wave_counter = 0;
0006c6 e0e0      	LDI  R30,LOW(0)
0006c7 93e0 0b2c 	STS  _halph_wave_counter_S0000000000,R30
                 ; 0000 0044     }
                 ; 0000 0045  } else {
                 _0x9:
0006c9 c004      	RJMP _0xA
                 _0x6:
                 ; 0000 0046     HEATER_OFF;
0006ca 98da      	CBI  0x1B,2
                 ; 0000 0047     halph_wave_counter = 0;
                 _0x2F:
0006cb e0e0      	LDI  R30,LOW(0)
0006cc 93e0 0b2c 	STS  _halph_wave_counter_S0000000000,R30
                 ; 0000 0048  }
                 _0xA:
                 ; 0000 0049 
                 ; 0000 004A  //////////   valve pwm control ////
                 ; 0000 004B  halph_wave_counter2 ++;
0006ce e2ae      	LDI  R26,LOW(_halph_wave_counter2_S0000000000)
0006cf e0bb      	LDI  R27,HIGH(_halph_wave_counter2_S0000000000)
0006d0 940e 1e99 	CALL SUBOPT_0x1
                 ; 0000 004C  if (halph_wave_counter2 >= pwmPeriod - 1) {
0006d2 91e0 0a30 	LDS  R30,_pwmPeriod
0006d4 91f0 0a31 	LDS  R31,_pwmPeriod+1
0006d6 9731      	SBIW R30,1
0006d7 91a0 0b2e 	LDS  R26,_halph_wave_counter2_S0000000000
0006d9 91b0 0b2f 	LDS  R27,_halph_wave_counter2_S0000000000+1
0006db 17ae      	CP   R26,R30
0006dc 07bf      	CPC  R27,R31
0006dd f068      	BRLO _0xB
                 ; 0000 004D      halph_wave_counter2 = 0;
0006de e0e0      	LDI  R30,LOW(0)
0006df 93e0 0b2e 	STS  _halph_wave_counter2_S0000000000,R30
0006e1 93e0 0b2f 	STS  _halph_wave_counter2_S0000000000+1,R30
                 ; 0000 004E      if (pwmOn) {
0006e3 91e0 0a2c 	LDS  R30,_pwmOn
0006e5 30e0      	CPI  R30,0
0006e6 f021      	BREQ _0xC
                 ; 0000 004F          impulseCounter++;
0006e7 e2ae      	LDI  R26,LOW(_impulseCounter)
0006e8 e0ba      	LDI  R27,HIGH(_impulseCounter)
0006e9 940e 1e99 	CALL SUBOPT_0x1
                 ; 0000 0050      }
                 ; 0000 0051  }
                 _0xC:
                 ; 0000 0052  if (pwmOn) {
                 _0xB:
0006eb 91e0 0a2c 	LDS  R30,_pwmOn
0006ed 30e0      	CPI  R30,0
0006ee f069      	BREQ _0xD
                 ; 0000 0053     if (halph_wave_counter2 < valvePulse) {
0006ef 91e0 0a2d 	LDS  R30,_valvePulse
0006f1 91a0 0b2e 	LDS  R26,_halph_wave_counter2_S0000000000
0006f3 91b0 0b2f 	LDS  R27,_halph_wave_counter2_S0000000000+1
0006f5 e0f0      	LDI  R31,0
0006f6 17ae      	CP   R26,R30
0006f7 07bf      	CPC  R27,R31
0006f8 f410      	BRSH _0xE
                 ; 0000 0054         VALVE_OPN;
0006f9 9adb      	SBI  0x1B,3
                 ; 0000 0055     } else {
0006fa c001      	RJMP _0xF
                 _0xE:
                 ; 0000 0056         VALVE_CLS;
0006fb 98db      	CBI  0x1B,3
                 ; 0000 0057     }
                 _0xF:
                 ; 0000 0058  }
                 ; 0000 0059 
                 ; 0000 005A // heater_watchdog++;
                 ; 0000 005B }
                 _0xD:
0006fc c08b      	RJMP _0x31
                 ;
                 ;#ifndef RXB8
                 ;#define RXB8 1
                 ;#endif
                 ;
                 ;#ifndef TXB8
                 ;#define TXB8 0
                 ;#endif
                 ;
                 ;#ifndef UPE
                 ;#define UPE 2
                 ;#endif
                 ;
                 ;#ifndef DOR
                 ;#define DOR 3
                 ;#endif
                 ;
                 ;#ifndef FE
                 ;#define FE 4
                 ;#endif
                 ;
                 ;#ifndef UDRE
                 ;#define UDRE 5
                 ;#endif
                 ;
                 ;#ifndef RXC
                 ;#define RXC 7
                 ;#endif
                 ;
                 ;#define FRAMING_ERROR (1<<FE)
                 ;#define PARITY_ERROR (1<<UPE)
                 ;#define DATA_OVERRUN (1<<DOR)
                 ;#define DATA_REGISTER_EMPTY (1<<UDRE)
                 ;#define RX_COMPLETE (1<<RXC)
                 ;
                 ;// USART0 Receiver buffer
                 ;#define RX_BUFFER_SIZE0 8
                 ;char rx_buffer0[RX_BUFFER_SIZE0];
                 ;
                 ;#if RX_BUFFER_SIZE0 <= 256
                 ;unsigned char rx_wr_index0,rx_rd_index0,rx_counter0;
                 ;#else
                 ;unsigned int rx_wr_index0,rx_rd_index0,rx_counter0;
                 ;#endif
                 ;
                 ;unsigned char counter_ms = 0;
                 ;
                 ;// This flag is set on USART0 Receiver buffer overflow
                 ;bit rx_buffer_overflow0;
                 ;
                 ;// USART0 Receiver interrupt service routine
                 ;interrupt [USART0_RXC] void usart0_rx_isr(void)
                 ; 0000 0090 {
                 _usart0_rx_isr:
0006fd 93ea      	ST   -Y,R30
0006fe 93fa      	ST   -Y,R31
0006ff b7ef      	IN   R30,SREG
000700 93ea      	ST   -Y,R30
                 ; 0000 0091 char status,data;
                 ; 0000 0092 status=UCSR0A;
000701 931a      	ST   -Y,R17
000702 930a      	ST   -Y,R16
                 ;	status -> R17
                 ;	data -> R16
000703 b11b      	IN   R17,11
                 ; 0000 0093 data=UDR0;
000704 b10c      	IN   R16,12
                 ; 0000 0094 if ((status & (FRAMING_ERROR | PARITY_ERROR | DATA_OVERRUN))==0)
000705 2fe1      	MOV  R30,R17
000706 71ec      	ANDI R30,LOW(0x1C)
000707 f489      	BRNE _0x10
                 ; 0000 0095    {
                 ; 0000 0096    rx_buffer0[rx_wr_index0++]=data;
000708 2de5      	MOV  R30,R5
000709 9453      	INC  R5
00070a e0f0      	LDI  R31,0
00070b 5de0      	SUBI R30,LOW(-_rx_buffer0)
00070c 4ff4      	SBCI R31,HIGH(-_rx_buffer0)
00070d 8300      	ST   Z,R16
                 ; 0000 0097 #if RX_BUFFER_SIZE0 == 256
                 ; 0000 0098    // special case for receiver buffer size=256
                 ; 0000 0099    if (++rx_counter0 == 0) rx_buffer_overflow0=1;
                 ; 0000 009A #else
                 ; 0000 009B    if (rx_wr_index0 == RX_BUFFER_SIZE0) rx_wr_index0=0;
00070e e0e8      	LDI  R30,LOW(8)
00070f 15e5      	CP   R30,R5
000710 f409      	BRNE _0x11
000711 2455      	CLR  R5
                 ; 0000 009C    if (++rx_counter0 == RX_BUFFER_SIZE0)
                 _0x11:
000712 9473      	INC  R7
000713 e0e8      	LDI  R30,LOW(8)
000714 15e7      	CP   R30,R7
000715 f419      	BRNE _0x12
                 ; 0000 009D       {
                 ; 0000 009E       rx_counter0=0;
000716 2477      	CLR  R7
                 ; 0000 009F       rx_buffer_overflow0=1;
000717 9468      	SET
000718 f820      	BLD  R2,0
                 ; 0000 00A0       }
                 ; 0000 00A1 #endif
                 ; 0000 00A2    }
                 _0x12:
                 ; 0000 00A3 }
                 _0x10:
000719 9109      	LD   R16,Y+
00071a 9119      	LD   R17,Y+
00071b 91e9      	LD   R30,Y+
00071c bfef      	OUT  SREG,R30
00071d 91f9      	LD   R31,Y+
00071e 91e9      	LD   R30,Y+
00071f 9518      	RETI
                 ;
                 ;#ifndef _DEBUG_TERMINAL_IO_
                 ;// Get a character from the USART0 Receiver buffer
                 ;#define _ALTERNATE_GETCHAR_
                 ;#pragma used+
                 ;char getchar(void)
                 ; 0000 00AA {
                 ; 0000 00AB char data;
                 ; 0000 00AC while (rx_counter0==0);
                 ;	data -> R17
                 ; 0000 00AD data=rx_buffer0[rx_rd_index0++];
                 ; 0000 00AE #if RX_BUFFER_SIZE0 != 256
                 ; 0000 00AF if (rx_rd_index0 == RX_BUFFER_SIZE0) rx_rd_index0=0;
                 ; 0000 00B0 #endif
                 ; 0000 00B1 #asm("cli")
                 ; 0000 00B2 --rx_counter0;
                 ; 0000 00B3 #asm("sei")
                 ; 0000 00B4 return data;
                 ; 0000 00B5 }
                 ;#pragma used-
                 ;#endif
                 ;
                 ;// Standard Input/Output functions
                 ;#include <stdio.h>
                 ;
                 ;// Timer 0 overflow interrupt service routine
                 ;interrupt [TIM0_OVF] void timer0_ovf_isr(void)
                 ; 0000 00BE {
                 _timer0_ovf_isr:
                 ; 0000 00BF // Place your code here
                 ; 0000 00C0 
                 ; 0000 00C1 }
000720 9518      	RETI
                 ;
                 ;// Timer1 overflow interrupt service routine
                 ;interrupt [TIM1_OVF] void timer1_ovf_isr(void)
                 ; 0000 00C5 {
                 _timer1_ovf_isr:
000721 940e 1e8b 	CALL SUBOPT_0x0
                 ; 0000 00C6 
                 ; 0000 00C7 static unsigned char counter = 0;
                 ; 0000 00C8 // Reinitialize Timer1 value
                 ; 0000 00C9 TCNT1H=0xC7B1 >> 8;
000723 ece7      	LDI  R30,LOW(199)
000724 bded      	OUT  0x2D,R30
                 ; 0000 00CA TCNT1L=0xC7B1 & 0xff;
000725 ebe1      	LDI  R30,LOW(177)
000726 bdec      	OUT  0x2C,R30
                 ; 0000 00CB // Place your code here
                 ; 0000 00CC 
                 ; 0000 00CD ES_PlaceEvent(EVENT_TIMER_1S);
000727 e0a5      	LDI  R26,LOW(5)
000728 940e 0a32 	CALL _ES_PlaceEvent
                 ; 0000 00CE counter ++;
00072a 91e0 0b38 	LDS  R30,_counter_S0000004000
00072c 5fef      	SUBI R30,-LOW(1)
00072d 93e0 0b38 	STS  _counter_S0000004000,R30
                 ; 0000 00CF if (counter >= 10) {
00072f 91a0 0b38 	LDS  R26,_counter_S0000004000
000731 30aa      	CPI  R26,LOW(0xA)
000732 f030      	BRLO _0x17
                 ; 0000 00D0     ES_PlaceEvent(EVENT_TIMER_10S);
000733 e0aa      	LDI  R26,LOW(10)
000734 940e 0a32 	CALL _ES_PlaceEvent
                 ; 0000 00D1     counter = 0;
000736 e0e0      	LDI  R30,LOW(0)
000737 93e0 0b38 	STS  _counter_S0000004000,R30
                 ; 0000 00D2 }
                 ; 0000 00D3 
                 ; 0000 00D4 if (mode == RUN_DIST || mode == RUN_RECT || mode == RUN_RECT_SET || mode == CALIBRATE_RUN) {
                 _0x17:
000739 91a0 0a1f 	LDS  R26,_mode
00073b 30a4      	CPI  R26,LOW(0x4)
00073c f031      	BREQ _0x19
00073d 30a5      	CPI  R26,LOW(0x5)
00073e f021      	BREQ _0x19
00073f 30a6      	CPI  R26,LOW(0x6)
000740 f011      	BREQ _0x19
000741 30a8      	CPI  R26,LOW(0x8)
000742 f4e1      	BRNE _0x18
                 _0x19:
                 ; 0000 00D5     sec ++;
000743 91e0 0a28 	LDS  R30,_sec
000745 5fef      	SUBI R30,-LOW(1)
000746 93e0 0a28 	STS  _sec,R30
                 ; 0000 00D6     if (sec >= 60) {
000748 91a0 0a28 	LDS  R26,_sec
00074a 33ac      	CPI  R26,LOW(0x3C)
00074b f098      	BRLO _0x1B
                 ; 0000 00D7         minutes ++;
00074c 91e0 0a29 	LDS  R30,_minutes
00074e 5fef      	SUBI R30,-LOW(1)
00074f 93e0 0a29 	STS  _minutes,R30
                 ; 0000 00D8         sec = 0;
000751 e0e0      	LDI  R30,LOW(0)
000752 93e0 0a28 	STS  _sec,R30
                 ; 0000 00D9         if (minutes >= 60) {
000754 91a0 0a29 	LDS  R26,_minutes
000756 33ac      	CPI  R26,LOW(0x3C)
000757 f038      	BRLO _0x1C
                 ; 0000 00DA             minutes = 0;
000758 93e0 0a29 	STS  _minutes,R30
                 ; 0000 00DB             hours ++;
00075a 91e0 0a2a 	LDS  R30,_hours
00075c 5fef      	SUBI R30,-LOW(1)
00075d 93e0 0a2a 	STS  _hours,R30
                 ; 0000 00DC         }
                 ; 0000 00DD     }
                 _0x1C:
                 ; 0000 00DE }
                 _0x1B:
                 ; 0000 00DF 
                 ; 0000 00E0 if (mode == RUN_RECT || mode == RUN_RECT_SET) {
                 _0x18:
00075f 91a0 0a1f 	LDS  R26,_mode
000761 30a5      	CPI  R26,LOW(0x5)
000762 f011      	BREQ _0x1E
000763 30a6      	CPI  R26,LOW(0x6)
000764 f4a9      	BRNE _0x1D
                 _0x1E:
                 ; 0000 00E1         if (!timerOn){
000765 91e0 0a21 	LDS  R30,_timerOn
000767 30e0      	CPI  R30,0
000768 f421      	BRNE _0x20
                 ; 0000 00E2             timer ++;
000769 e2a3      	LDI  R26,LOW(_timer)
00076a e0ba      	LDI  R27,HIGH(_timer)
00076b 940e 1e99 	CALL SUBOPT_0x1
                 ; 0000 00E3         }
                 ; 0000 00E4         if (!timerOn && startStop){
                 _0x20:
00076d 91e0 0a21 	LDS  R30,_timerOn
00076f 30e0      	CPI  R30,0
000770 f421      	BRNE _0x22
000771 91e0 0a22 	LDS  R30,_startStop
000773 30e0      	CPI  R30,0
000774 f409      	BRNE _0x23
                 _0x22:
000775 c004      	RJMP _0x21
                 _0x23:
                 ; 0000 00E5             timer_off ++;
000776 e2a5      	LDI  R26,LOW(_timer_off)
000777 e0ba      	LDI  R27,HIGH(_timer_off)
000778 940e 1e99 	CALL SUBOPT_0x1
                 ; 0000 00E6         }
                 ; 0000 00E7 }
                 _0x21:
                 ; 0000 00E8 }
                 _0x1D:
00077a c00d      	RJMP _0x31
                 ;
                 ;// Timer2 overflow interrupt service routine
                 ;interrupt [TIM2_OVF] void timer2_ovf_isr(void)
                 ; 0000 00EC {
                 _timer2_ovf_isr:
00077b 940e 1e8b 	CALL SUBOPT_0x0
                 ; 0000 00ED // Place your code here
                 ; 0000 00EE 
                 ; 0000 00EF if (++counter_ms >= 15) {
00077d 9463      	INC  R6
00077e e0ef      	LDI  R30,LOW(15)
00077f 166e      	CP   R6,R30
000780 f020      	BRLO _0x24
                 ; 0000 00F0     ES_PlaceEvent(EVENT_TIMER_250MS);
000781 e0a6      	LDI  R26,LOW(6)
000782 940e 0a32 	CALL _ES_PlaceEvent
                 ; 0000 00F1     counter_ms = 0;
000784 2466      	CLR  R6
                 ; 0000 00F2 }
                 ; 0000 00F3 
                 ; 0000 00F4 ES_PlaceEvent(EVENT_TIMER_10MS);
                 _0x24:
000785 e0a7      	LDI  R26,LOW(7)
000786 940e 0a32 	CALL _ES_PlaceEvent
                 ; 0000 00F5 
                 ; 0000 00F6 }
                 _0x31:
000788 91e9      	LD   R30,Y+
000789 bfef      	OUT  SREG,R30
00078a 91f9      	LD   R31,Y+
00078b 91e9      	LD   R30,Y+
00078c 91b9      	LD   R27,Y+
00078d 91a9      	LD   R26,Y+
00078e 9199      	LD   R25,Y+
00078f 9189      	LD   R24,Y+
000790 9179      	LD   R23,Y+
000791 9169      	LD   R22,Y+
000792 90f9      	LD   R15,Y+
000793 9019      	LD   R1,Y+
000794 9009      	LD   R0,Y+
000795 9518      	RETI
                 ;
                 ;unsigned int adc_data;
                 ;
                 ;
                 ;// ADC interrupt service routine
                 ;interrupt [ADC_INT] void adc_isr(void)
                 ; 0000 00FD {
                 _adc_isr:
                 ; 0000 00FE // Read the AD conversion result
                 ; 0000 00FF adc_data=ADCW;
                +
000796 b084     +IN R8 , 4
000797 b095     +IN R9 , 4 + 1
                 	__INWR 8,9,4
                 ; 0000 0100 
                 ; 0000 0101 }
000798 9518      	RETI
                 ;
                 ;// Read the AD conversion result
                 ;// with noise canceling
                 ;unsigned int read_adc(unsigned char adc_input)
                 ; 0000 0106 {
                 ; 0000 0107 ADMUX=adc_input | (ADC_VREF_TYPE & 0xff);
                 ;	adc_input -> Y+0
                 ; 0000 0108 // Delay needed for the stabilization of the ADC input voltage
                 ; 0000 0109 delay_us(10);
                 ; 0000 010A #asm
                 ; 0000 010B     in   r30,mcucr
                 ; 0000 010C     cbr  r30,__sm_mask
                 ; 0000 010D     sbr  r30,__se_bit | __sm_adc_noise_red
                 ; 0000 010E     out  mcucr,r30
                 ; 0000 010F     sleep
                 ; 0000 0110     cbr  r30,__se_bit
                 ; 0000 0111     out  mcucr,r30
                 ; 0000 0112 #endasm
                 ; 0000 0113 return adc_data;
                 ; 0000 0114 }
                 ;
                 ;// Declare your global variables here
                 ;#ifdef HW1_P
                 ;signed int p_offset;
                 ;#endif
                 ;unsigned char sec = 0;
                 ;unsigned char minutes = 0;
                 ;unsigned char hours = 0;
                 ;char heater_power = 0;
                 ;char pwmOn = 0;
                 ;char valvePulse = DEFAUL_VALVE_PULSE; // //    general.h
                 
                 	.DSEG
                 ;unsigned int impulseCounter = 0;
                 ;unsigned int pwmPeriod = 400; // 4 s
                 ;//char heater_watchdog = 0;
                 ;
                 ;void main(void)
                 ; 0000 0125 {
                 
                 	.CSEG
                 _main:
                 ; 0000 0126 // Declare your local variables here
                 ; 0000 0127 unsigned char event = 0;
                 ; 0000 0128 
                 ; 0000 0129 HW_Init();
                 ;	event -> R17
000799 e010      	LDI  R17,0
00079a 940e 16fb 	CALL _HW_Init
                 ; 0000 012A 
                 ; 0000 012B BEEP_ON;
00079c e7ef      	LDI  R30,LOW(127)
00079d bfe1      	OUT  0x31,R30
                 ; 0000 012C //DEBUG_LED_ON;
                 ; 0000 012D 
                 ; 0000 012E OWI_Init(BUS);
00079e e0a8      	LDI  R26,LOW(8)
00079f 940e 1968 	CALL _OWI_Init
                 ; 0000 012F BUT_Init();
0007a1 940e 09bd 	CALL _BUT_Init
                 ; 0000 0130 nlcd_Init();
0007a3 d058      	RCALL _nlcd_Init
                 ; 0000 0131 delay_ms(10);
0007a4 e0aa      	LDI  R26,LOW(10)
0007a5 e0b0      	LDI  R27,0
0007a6 940e 23c5 	CALL _delay_ms
                 ; 0000 0132 
                 ; 0000 0133 nlcd_GotoXY(0,0);
0007a8 940e 1e9f 	CALL SUBOPT_0x2
                 ; 0000 0134 nlcd_PrintF("----------------");
                +
0007aa e0a0     +LDI R26 , LOW ( _0x27 + ( 0 ) )
0007ab e0b5     +LDI R27 , HIGH ( _0x27 + ( 0 ) )
                 	__POINTW2MN _0x27,0
0007ac d13c      	RCALL _nlcd_PrintF
                 ; 0000 0135 nlcd_PrintWideF(" Nikopol");
                +
0007ad e1a1     +LDI R26 , LOW ( _0x27 + ( 17 ) )
0007ae e0b5     +LDI R27 , HIGH ( _0x27 + ( 17 ) )
                 	__POINTW2MN _0x27,17
0007af d14c      	RCALL _nlcd_PrintWideF
                 ; 0000 0136 nlcd_GotoXY(0,2);
0007b0 940e 1ea4 	CALL SUBOPT_0x3
                 ; 0000 0137 nlcd_PrintF("    present     ");
                +
0007b2 e1aa     +LDI R26 , LOW ( _0x27 + ( 26 ) )
0007b3 e0b5     +LDI R27 , HIGH ( _0x27 + ( 26 ) )
                 	__POINTW2MN _0x27,26
0007b4 d134      	RCALL _nlcd_PrintF
                 ; 0000 0138 nlcd_PrintF("   -<>-    ");
                +
0007b5 e2ab     +LDI R26 , LOW ( _0x27 + ( 43 ) )
0007b6 e0b5     +LDI R27 , HIGH ( _0x27 + ( 43 ) )
                 	__POINTW2MN _0x27,43
0007b7 d131      	RCALL _nlcd_PrintF
                 ; 0000 0139 nlcd_PrintF("      ");
                +
0007b8 e3ac     +LDI R26 , LOW ( _0x27 + ( 60 ) )
0007b9 e0b5     +LDI R27 , HIGH ( _0x27 + ( 60 ) )
                 	__POINTW2MN _0x27,60
0007ba d12e      	RCALL _nlcd_PrintF
                 ; 0000 013A #ifdef HW1_P
                 ; 0000 013B     nlcd_PrintF(" hw v.1.1d P sen");
                 ; 0000 013C #else
                 ; 0000 013D     nlcd_PrintF(" hw v.1.1d      ");
                +
0007bb e4ad     +LDI R26 , LOW ( _0x27 + ( 77 ) )
0007bc e0b5     +LDI R27 , HIGH ( _0x27 + ( 77 ) )
                 	__POINTW2MN _0x27,77
0007bd d12b      	RCALL _nlcd_PrintF
                 ; 0000 013E #endif
                 ; 0000 013F 
                 ; 0000 0140 #ifdef SLOW_HEAD_SPEED
                 ; 0000 0141 nlcd_PrintF(" sw v.0.32.s uni");
                 ; 0000 0142 #else
                 ; 0000 0143 nlcd_PrintF(" sw v.0.32.f uni");
                +
0007be e5ae     +LDI R26 , LOW ( _0x27 + ( 94 ) )
0007bf e0b5     +LDI R27 , HIGH ( _0x27 + ( 94 ) )
                 	__POINTW2MN _0x27,94
0007c0 d128      	RCALL _nlcd_PrintF
                 ; 0000 0144 #endif
                 ; 0000 0145 BEEP_OFF;
0007c1 e0e0      	LDI  R30,LOW(0)
0007c2 bfe1      	OUT  0x31,R30
                 ; 0000 0146 delay_ms(2000);
0007c3 940e 1ea9 	CALL SUBOPT_0x4
                 ; 0000 0147 nlcd_Clear();
                 ; 0000 0148 
                 ; 0000 0149 //DEBUG_LED_OFF;
                 ; 0000 014A 
                 ; 0000 014B nlcd_GotoXY(0,2);
0007c5 940e 1ea4 	CALL SUBOPT_0x3
                 ; 0000 014C nlcd_PrintF("   ");
                +
0007c7 e6af     +LDI R26 , LOW ( _0x27 + ( 111 ) )
0007c8 e0b5     +LDI R27 , HIGH ( _0x27 + ( 111 ) )
                 	__POINTW2MN _0x27,111
0007c9 d11f      	RCALL _nlcd_PrintF
                 ; 0000 014D nlcd_PrintF("       ");
                +
0007ca e8a0     +LDI R26 , LOW ( _0x27 + ( 128 ) )
0007cb e0b5     +LDI R27 , HIGH ( _0x27 + ( 128 ) )
                 	__POINTW2MN _0x27,128
0007cc d11c      	RCALL _nlcd_PrintF
                 ; 0000 014E nlcd_PrintF("         ");
                +
0007cd e9a1     +LDI R26 , LOW ( _0x27 + ( 145 ) )
0007ce e0b5     +LDI R27 , HIGH ( _0x27 + ( 145 ) )
                 	__POINTW2MN _0x27,145
0007cf d119      	RCALL _nlcd_PrintF
                 ; 0000 014F 
                 ; 0000 0150 if (OWI_SearchDevices(ds1820_rom_codes, MAX_DS1820, BUS, &ds1820_devices) == SEARCH_SUCCESSFUL) {
0007d0 940e 1eaf 	CALL SUBOPT_0x5
0007d2 30e0      	CPI  R30,0
0007d3 f441      	BRNE _0x28
                 ; 0000 0151     sprintf(buf, "%i ", ds1820_devices);
0007d4 940e 1ebb 	CALL SUBOPT_0x6
0007d6 91e0 0a27 	LDS  R30,_ds1820_devices
0007d8 27ff      	CLR  R31
0007d9 2766      	CLR  R22
0007da 2777      	CLR  R23
0007db c006      	RJMP _0x30
                 ; 0000 0152 } else {
                 _0x28:
                 ; 0000 0153     sprintf(buf, "%i ", 0);
0007dc 940e 1ebb 	CALL SUBOPT_0x6
                +
0007de e0e0     +LDI R30 , LOW ( 0x0 )
0007df e0f0     +LDI R31 , HIGH ( 0x0 )
0007e0 e060     +LDI R22 , BYTE3 ( 0x0 )
0007e1 e070     +LDI R23 , BYTE4 ( 0x0 )
                 	__GETD1N 0x0
                 _0x30:
0007e2 940e 2681 	CALL __PUTPARD1
0007e4 940e 1ec4 	CALL SUBOPT_0x7
                 ; 0000 0154 }
                 ; 0000 0155 nlcd_GotoXY(1,5);
0007e6 e0e1      	LDI  R30,LOW(1)
0007e7 940e 1ec9 	CALL SUBOPT_0x8
                 ; 0000 0156 nlcd_Print(buf);
0007e9 940e 1ecd 	CALL SUBOPT_0x9
                 ; 0000 0157 delay_ms(2000);
0007eb 940e 1ea9 	CALL SUBOPT_0x4
                 ; 0000 0158 nlcd_Clear();
                 ; 0000 0159 LoadParam();
0007ed 940e 15f0 	CALL _LoadParam
                 ; 0000 015A SetNewParams();
0007ef 940e 153f 	CALL _SetNewParams
                 ; 0000 015B // Global enable interrupts
                 ; 0000 015C #asm("sei")
0007f1 9478      	sei
                 ; 0000 015D 
                 ; 0000 015E /*
                 ; 0000 015F // Watchdog Timer initialization
                 ; 0000 0160 // Watchdog Timer Prescaler: OSC/2048k
                 ; 0000 0161 #pragma optsize-
                 ; 0000 0162 WDTCR=0x1F;
                 ; 0000 0163 WDTCR=0x0F;
                 ; 0000 0164 #ifdef _OPTIMIZE_SIZE_
                 ; 0000 0165 #pragma optsize+
                 ; 0000 0166 #endif
                 ; 0000 0167 */
                 ; 0000 0168 #ifdef HW1_P
                 ; 0000 0169     PresureInit();
                 ; 0000 016A #endif
                 ; 0000 016B 
                 ; 0000 016C while (1)
                 _0x2A:
                 ; 0000 016D       {
                 ; 0000 016E       // Place your code here
                 ; 0000 016F       // #asm("wdr");
                 ; 0000 0170         event = ES_GetEvent();
0007f2 940e 0a14 	CALL _ES_GetEvent
0007f4 2f1e      	MOV  R17,R30
                 ; 0000 0171         if (event)
0007f5 3010      	CPI  R17,0
0007f6 f019      	BREQ _0x2D
                 ; 0000 0172             ES_Dispatch(event);
0007f7 2fa1      	MOV  R26,R17
0007f8 940e 0a6b 	CALL _ES_Dispatch
                 ; 0000 0173       }
                 _0x2D:
0007fa cff7      	RJMP _0x2A
                 ; 0000 0174 }
                 _0x2E:
0007fb cfff      	RJMP _0x2E
                 
                 	.DSEG
                 _0x27:
000500           	.BYTE 0xA2
                 ;//***************************************************************************
                 ;//  File........: nokia1100_lcd_lib.c
                 ;//  Author(s)...: Chiper
                 ;//  URL(s)......: http://digitalchip.ru/
                 ;//  Device(s)...: ATMega...
                 ;//  Compiler....: AVR-GCC
                 ;//  Description.:  LCD-  Nokia1100   
                 ;//  Data........: 28.03.12
                 ;//  Version.....: 2.1
                 ;//***************************************************************************
                 ;//  Notice:    LCD-    
                 ;//        
                 ;//***************************************************************************
                 ;
                 ;#include <nokia1100_lcd_lib.h>
                 	#ifndef __SLEEP_DEFINED__
                 	#endif
                 ;#include <nokia1100_lcd_fnt.h>    //   (    )
                 ;#include <stdlib.h>
                 ;#include <delay.h>
                 ;#include <general.h>
                 ;
                 ;//******************************************************************************
                 ;// , ,  
                 ;
                 ;//     
                 ;#define ClearBit(reg, bit)       reg &= (~(1<<(bit)))
                 ;#define SetBit(reg, bit)         reg |= (1<<(bit))
                 ;#define InvBit(reg, bit)         reg ^= 1<<bit
                 ;
                 ;//#define pgm_read_byte(address_short) 	pgm_read_byte_near(address_short)
                 ;
                 ;//******************************************************************************
                 ;//  
                 ;void nlcd_Init(void)
                 ; 0001 0022 {
                 
                 	.CSEG
                 _nlcd_Init:
                 ; 0001 0023     //        LCD-
                 ; 0001 0024     DDR_LCD |= (1<<SCLK_LCD_PIN)|(1<<SDA_LCD_PIN)|(1<<CS_LCD_PIN)|(1<<RST_LCD_PIN);
0007fc b3e4      	IN   R30,0x14
0007fd 60ef      	ORI  R30,LOW(0xF)
0007fe bbe4      	OUT  0x14,R30
                 ; 0001 0025 
                 ; 0001 0026     CS_LCD_RESET;
0007ff 98a9      	CBI  0x15,1
                 ; 0001 0027     RST_LCD_RESET;
000800 98a8      	CBI  0x15,0
                 ; 0001 0028     delay_ms(20);            //20    5   ( 5   )
000801 e1a4      	LDI  R26,LOW(20)
000802 e0b0      	LDI  R27,0
000803 940e 23c5 	CALL _delay_ms
                 ; 0001 0029     RST_LCD_SET;
000805 9aa8      	SBI  0x15,0
                 ; 0001 002A     nlcd_SendByte(CMD_LCD_MODE,0xE2); // *** SOFTWARE RESET
000806 e0e0      	LDI  R30,LOW(0)
000807 93ea      	ST   -Y,R30
000808 eea2      	LDI  R26,LOW(226)
000809 940e 1ed1 	CALL SUBOPT_0xA
                 ; 0001 002B     nlcd_SendByte(CMD_LCD_MODE,0x3A); // *** Use internal oscillator
00080b e3aa      	LDI  R26,LOW(58)
00080c 940e 1ed1 	CALL SUBOPT_0xA
                 ; 0001 002C     nlcd_SendByte(CMD_LCD_MODE,0xEF); // *** FRAME FREQUENCY:
00080e eeaf      	LDI  R26,LOW(239)
00080f 940e 1ed1 	CALL SUBOPT_0xA
                 ; 0001 002D     nlcd_SendByte(CMD_LCD_MODE,0x04); // *** 80Hz
000811 e0a4      	LDI  R26,LOW(4)
000812 940e 1ed1 	CALL SUBOPT_0xA
                 ; 0001 002E     nlcd_SendByte(CMD_LCD_MODE,0xD0); // *** 1:65 divider
000814 eda0      	LDI  R26,LOW(208)
000815 940e 1ed1 	CALL SUBOPT_0xA
                 ; 0001 002F     nlcd_SendByte(CMD_LCD_MODE,0x20); //    Vop
000817 e2a0      	LDI  R26,LOW(32)
000818 940e 1ed1 	CALL SUBOPT_0xA
                 ; 0001 0030     nlcd_SendByte(CMD_LCD_MODE,0x90);
00081a e9a0      	LDI  R26,LOW(144)
00081b 940e 1ed1 	CALL SUBOPT_0xA
                 ; 0001 0031     nlcd_SendByte(CMD_LCD_MODE,0xA4); // all on/normal display
00081d eaa4      	LDI  R26,LOW(164)
00081e 940e 1ed1 	CALL SUBOPT_0xA
                 ; 0001 0032     nlcd_SendByte(CMD_LCD_MODE,0x2F); // Power control set(charge pump on/off)
000820 e2af      	LDI  R26,LOW(47)
000821 940e 1ed1 	CALL SUBOPT_0xA
                 ; 0001 0033                                       //  
                 ; 0001 0034     nlcd_SendByte(CMD_LCD_MODE,0x40); // set start row address = 0
000823 e4a0      	LDI  R26,LOW(64)
000824 940e 1ed1 	CALL SUBOPT_0xA
                 ; 0001 0035     nlcd_SendByte(CMD_LCD_MODE,0xB0); //  Y- = 0
000826 eba0      	LDI  R26,LOW(176)
000827 940e 1ed1 	CALL SUBOPT_0xA
                 ; 0001 0036     nlcd_SendByte(CMD_LCD_MODE,0x10); //  X-,  3 
000829 e1a0      	LDI  R26,LOW(16)
00082a 940e 1ed1 	CALL SUBOPT_0xA
                 ; 0001 0037     nlcd_SendByte(CMD_LCD_MODE,0x0);  //  X-,  4 
00082c e0a0      	LDI  R26,LOW(0)
00082d 940e 1ed1 	CALL SUBOPT_0xA
                 ; 0001 0038     #ifndef HW1_P
                 ; 0001 0039         nlcd_SendByte(CMD_LCD_MODE,0xC8); // mirror Y axis (about X axis) //      
00082f eca8      	LDI  R26,LOW(200)
000830 940e 1ed1 	CALL SUBOPT_0xA
                 ; 0001 003A     #endif
                 ; 0001 003B     //nlcd_SendByte(CMD_LCD_MODE,0xA1); //    
                 ; 0001 003C 
                 ; 0001 003D     nlcd_SendByte(CMD_LCD_MODE,0xAC); // set initial row (R0) of the display
000832 eaac      	LDI  R26,LOW(172)
000833 940e 1ed1 	CALL SUBOPT_0xA
                 ; 0001 003E     nlcd_SendByte(CMD_LCD_MODE,0x07);
000835 e0a7      	LDI  R26,LOW(7)
000836 940e 1ed1 	CALL SUBOPT_0xA
                 ; 0001 003F     //nlcd_SendByte(CMD_LCD_MODE,0xF9); //
                 ; 0001 0040     nlcd_SendByte(CMD_LCD_MODE,0xAF); //  /
000838 eaaf      	LDI  R26,LOW(175)
000839 d024      	RCALL _nlcd_SendByte
                 ; 0001 0041     nlcd_Clear(); // clear LCD
00083a d001      	RCALL _nlcd_Clear
                 ; 0001 0042 }
00083b 9508      	RET
                 ;
                 ;//******************************************************************************
                 ;//  
                 ;void nlcd_Clear(void)
                 ; 0001 0047 {
                 _nlcd_Clear:
                 ; 0001 0048     unsigned int i;
                 ; 0001 0049     nlcd_SendByte(CMD_LCD_MODE,0x40); // Y = 0
00083c 931a      	ST   -Y,R17
00083d 930a      	ST   -Y,R16
                 ;	i -> R16,R17
00083e e0e0      	LDI  R30,LOW(0)
00083f 93ea      	ST   -Y,R30
000840 e4a0      	LDI  R26,LOW(64)
000841 940e 1ed1 	CALL SUBOPT_0xA
                 ; 0001 004A     nlcd_SendByte(CMD_LCD_MODE,0xB0);
000843 eba0      	LDI  R26,LOW(176)
000844 940e 1ed1 	CALL SUBOPT_0xA
                 ; 0001 004B     nlcd_SendByte(CMD_LCD_MODE,0x10); // X = 0
000846 e1a0      	LDI  R26,LOW(16)
000847 940e 1ed1 	CALL SUBOPT_0xA
                 ; 0001 004C     nlcd_SendByte(CMD_LCD_MODE,0x00);
000849 e0a0      	LDI  R26,LOW(0)
00084a d013      	RCALL _nlcd_SendByte
                 ; 0001 004D     nlcd_xcurr=0; nlcd_ycurr=0;          //   0    
00084b e0e0      	LDI  R30,LOW(0)
00084c 93e0 0e90 	STS  _nlcd_xcurr_G001,R30
00084e 93e0 0e91 	STS  _nlcd_ycurr_G001,R30
                 ; 0001 004E     //nlcd_SendByte(CMD_LCD_MODE,0xAE); // disable display;
                 ; 0001 004F     for(i=0;i<NLCD_X_RES*NLCD_Y_RES ;i++) nlcd_SendByte(DATA_LCD_MODE,0x00);
                +
000850 e000     +LDI R16 , LOW ( 0 )
000851 e010     +LDI R17 , HIGH ( 0 )
                 	__GETWRN 16,17,0
                 _0x20004:
                +
000852 3800     +CPI R16 , LOW ( 6528 )
000853 e1e9     +LDI R30 , HIGH ( 6528 )
000854 071e     +CPC R17 , R30
                 	__CPWRN 16,17,6528
000855 f428      	BRSH _0x20005
000856 940e 1ed6 	CALL SUBOPT_0xB
                +
000858 5f0f     +SUBI R16 , LOW ( - 1 )
000859 4f1f     +SBCI R17 , HIGH ( - 1 )
                 	__ADDWRN 16,17,1
00085a cff7      	RJMP _0x20004
                 _0x20005:
                 ; 0001 0053 }
00085b 9109      	LD   R16,Y+
00085c 9119      	LD   R17,Y+
00085d 9508      	RET
                 ;
                 ;
                 ;//******************************************************************************
                 ;//   (  )  LCD-
                 ;//  mode: CMD_LCD_MODE -  
                 ;//          DATA_LCD_MODE -  
                 ;//  c:   
                 ;void nlcd_SendByte(char mode,unsigned char c)
                 ; 0001 005C {
                 _nlcd_SendByte:
                 ; 0001 005D     unsigned char i;
                 ; 0001 005E     CS_LCD_RESET;
00085e 93aa      	ST   -Y,R26
00085f 931a      	ST   -Y,R17
                 ;	mode -> Y+2
                 ;	c -> Y+1
                 ;	i -> R17
000860 98a9      	CBI  0x15,1
                 ; 0001 005F     SCLK_LCD_RESET;
000861 98ab      	CBI  0x15,3
                 ; 0001 0060 
                 ; 0001 0061     if (mode)                 // DATA_LCD_MODE
000862 81ea      	LDD  R30,Y+2
000863 30e0      	CPI  R30,0
000864 f141      	BREQ _0x20006
                 ; 0001 0062     {
                 ; 0001 0063 
                 ; 0001 0064         nlcd_memory[nlcd_xcurr][nlcd_ycurr] = c;    //    
000865 91e0 0e90 	LDS  R30,_nlcd_xcurr_G001
000867 e0a9      	LDI  R26,LOW(9)
000868 9fea      	MUL  R30,R26
000869 01f0      	MOVW R30,R0
00086a 5ce7      	SUBI R30,LOW(-_nlcd_memory_G001)
00086b 4ff4      	SBCI R31,HIGH(-_nlcd_memory_G001)
00086c 01df      	MOVW R26,R30
00086d 91e0 0e91 	LDS  R30,_nlcd_ycurr_G001
00086f 940e 1edb 	CALL SUBOPT_0xC
000871 81a9      	LDD  R26,Y+1
000872 83a0      	STD  Z+0,R26
                 ; 0001 0065         nlcd_xcurr++;                                //    
000873 91e0 0e90 	LDS  R30,_nlcd_xcurr_G001
000875 5fef      	SUBI R30,-LOW(1)
000876 93e0 0e90 	STS  _nlcd_xcurr_G001,R30
                 ; 0001 0066         if (nlcd_xcurr>95)
000878 91a0 0e90 	LDS  R26,_nlcd_xcurr_G001
00087a 36a0      	CPI  R26,LOW(0x60)
00087b f040      	BRLO _0x20007
                 ; 0001 0067         {
                 ; 0001 0068             nlcd_xcurr = 0;
00087c e0e0      	LDI  R30,LOW(0)
00087d 93e0 0e90 	STS  _nlcd_xcurr_G001,R30
                 ; 0001 0069             nlcd_ycurr++;
00087f 91e0 0e91 	LDS  R30,_nlcd_ycurr_G001
000881 5fef      	SUBI R30,-LOW(1)
000882 93e0 0e91 	STS  _nlcd_ycurr_G001,R30
                 ; 0001 006A         }
                 ; 0001 006B         if (nlcd_ycurr>8) nlcd_ycurr = 0;
                 _0x20007:
000884 91a0 0e91 	LDS  R26,_nlcd_ycurr_G001
000886 30a9      	CPI  R26,LOW(0x9)
000887 f018      	BRLO _0x20008
000888 e0e0      	LDI  R30,LOW(0)
000889 93e0 0e91 	STS  _nlcd_ycurr_G001,R30
                 ; 0001 006C 
                 ; 0001 006D         SDA_LCD_SET;                                //    LCD-
                 _0x20008:
00088b 9aaa      	SBI  0x15,2
                 ; 0001 006E     }
                 ; 0001 006F      else SDA_LCD_RESET;    // CMD_LCD_MODE
00088c c001      	RJMP _0x20009
                 _0x20006:
00088d 98aa      	CBI  0x15,2
                 ; 0001 0070 
                 ; 0001 0071     SCLK_LCD_SET;
                 _0x20009:
00088e 9aab      	SBI  0x15,3
                 ; 0001 0072 
                 ; 0001 0073     for(i=0; i<8; i++)
00088f e010      	LDI  R17,LOW(0)
                 _0x2000B:
000890 3018      	CPI  R17,8
000891 f480      	BRSH _0x2000C
                 ; 0001 0074     {
                 ; 0001 0075         SCLK_LCD_RESET;
000892 98ab      	CBI  0x15,3
                 ; 0001 0076         if(c & 0x80)
000893 81e9      	LDD  R30,Y+1
000894 78e0      	ANDI R30,LOW(0x80)
000895 f011      	BREQ _0x2000D
                 ; 0001 0077         {
                 ; 0001 0078             SDA_LCD_SET;
000896 9aaa      	SBI  0x15,2
                 ; 0001 0079         } else {
000897 c001      	RJMP _0x2000E
                 _0x2000D:
                 ; 0001 007A             SDA_LCD_RESET;
000898 98aa      	CBI  0x15,2
                 ; 0001 007B         }
                 _0x2000E:
                 ; 0001 007C         SCLK_LCD_SET;
000899 9aab      	SBI  0x15,3
                 ; 0001 007D         c <<= 1;
00089a 81e9      	LDD  R30,Y+1
00089b 0fee      	LSL  R30
00089c 83e9      	STD  Y+1,R30
                 ; 0001 007E         #ifdef LCD_DELAY_ON
                 ; 0001 007F             delay_us(NLCD_MIN_DELAY);    // *****!!!!! 34 -  ,     LCD-
                +
00089d e08a     +LDI R24 , LOW ( 10 )
                +__DELAY_USB_LOOP :
00089e 958a     +DEC R24
00089f f7f1     +BRNE __DELAY_USB_LOOP
                 	__DELAY_USB 10
                 ; 0001 0080         #endif
                 ; 0001 0081     }
0008a0 5f1f      	SUBI R17,-1
0008a1 cfee      	RJMP _0x2000B
                 _0x2000C:
                 ; 0001 0082     CS_LCD_SET;
0008a2 9aa9      	SBI  0x15,1
                 ; 0001 0083 }
0008a3 8118      	LDD  R17,Y+0
0008a4 c1d8      	RJMP _0x20A0015
                 ;
                 ;//******************************************************************************
                 ;//    LCD- NOKIA 1100   
                 ;//  c:  
                 ;void nlcd_Putc(unsigned char c)
                 ; 0001 0089 {
                 _nlcd_Putc:
                 ; 0001 008A     unsigned char i;
                 ; 0001 008B     if (c>127) c=c-64;     //      CP1251   
0008a5 93aa      	ST   -Y,R26
0008a6 931a      	ST   -Y,R17
                 ;	c -> Y+1
                 ;	i -> R17
0008a7 81a9      	LDD  R26,Y+1
0008a8 38a0      	CPI  R26,LOW(0x80)
0008a9 f018      	BRLO _0x2000F
0008aa 81e9      	LDD  R30,Y+1
0008ab 54e0      	SUBI R30,LOW(64)
0008ac 83e9      	STD  Y+1,R30
                 ; 0001 008C                         //   ASCII (   0x80)
                 ; 0001 008D     for (i = 0; i < 5; i++ ) {
                 _0x2000F:
0008ad e010      	LDI  R17,LOW(0)
                 _0x20011:
0008ae 3015      	CPI  R17,5
0008af f440      	BRSH _0x20012
                 ; 0001 008E          nlcd_SendByte(DATA_LCD_MODE, nlcd_Font[c-30][i]);  //32
0008b0 e0e1      	LDI  R30,LOW(1)
0008b1 93ea      	ST   -Y,R30
0008b2 940e 1edf 	CALL SUBOPT_0xD
0008b4 91a4      	LPM  R26,Z
0008b5 dfa8      	RCALL _nlcd_SendByte
                 ; 0001 008F     }
0008b6 5f1f      	SUBI R17,-1
0008b7 cff6      	RJMP _0x20011
                 _0x20012:
                 ; 0001 0090     nlcd_SendByte(DATA_LCD_MODE,0x00); //       1 
0008b8 940e 1ed6 	CALL SUBOPT_0xB
                 ; 0001 0091 }
0008ba 8118      	LDD  R17,Y+0
0008bb c071      	RJMP _0x20A0018
                 ;
                 ;//******************************************************************************
                 ;//     LCD- NOKIA 1100   
                 ;//  c:  
                 ;void nlcd_PutcWide(unsigned char c)
                 ; 0001 0097 {
                 _nlcd_PutcWide:
                 ; 0001 0098     unsigned char i;
                 ; 0001 0099     if (c>127) c=c-64;     //      CP1251   
0008bc 93aa      	ST   -Y,R26
0008bd 931a      	ST   -Y,R17
                 ;	c -> Y+1
                 ;	i -> R17
0008be 81a9      	LDD  R26,Y+1
0008bf 38a0      	CPI  R26,LOW(0x80)
0008c0 f018      	BRLO _0x20013
0008c1 81e9      	LDD  R30,Y+1
0008c2 54e0      	SUBI R30,LOW(64)
0008c3 83e9      	STD  Y+1,R30
                 ; 0001 009A     for ( i = 0; i < 5; i++ )  //   ASCII (   0x80)
                 _0x20013:
0008c4 e010      	LDI  R17,LOW(0)
                 _0x20015:
0008c5 3015      	CPI  R17,5
0008c6 f480      	BRSH _0x20016
                 ; 0001 009B     {
                 ; 0001 009C         unsigned char glyph = nlcd_Font[c-30][i]; //32
                 ; 0001 009D         nlcd_SendByte(DATA_LCD_MODE,glyph);
0008c7 9721      	SBIW R28,1
                 ;	c -> Y+2
                 ;	glyph -> Y+0
0008c8 940e 1edf 	CALL SUBOPT_0xD
0008ca 91e4      	LPM  R30,Z
0008cb 83e8      	ST   Y,R30
0008cc e0e1      	LDI  R30,LOW(1)
0008cd 93ea      	ST   -Y,R30
0008ce 81a9      	LDD  R26,Y+1
0008cf df8e      	RCALL _nlcd_SendByte
                 ; 0001 009E         nlcd_SendByte(DATA_LCD_MODE,glyph);
0008d0 e0e1      	LDI  R30,LOW(1)
0008d1 93ea      	ST   -Y,R30
0008d2 81a9      	LDD  R26,Y+1
0008d3 df8a      	RCALL _nlcd_SendByte
                 ; 0001 009F     }
0008d4 9621      	ADIW R28,1
0008d5 5f1f      	SUBI R17,-1
0008d6 cfee      	RJMP _0x20015
                 _0x20016:
                 ; 0001 00A0     nlcd_SendByte(DATA_LCD_MODE,0x00); //       1 
0008d7 940e 1ed6 	CALL SUBOPT_0xB
                 ; 0001 00A1 //    nlcd_SendByte(DATA_LCD_MODE,0x00); //    
                 ; 0001 00A2 }
0008d9 8118      	LDD  R17,Y+0
0008da c052      	RJMP _0x20A0018
                 ;
                 ;//******************************************************************************
                 ;//     LCD- NOKIA 1100   .   
                 ;//     ,      .
                 ;//  message:    . 0x00 -   .
                 ;void nlcd_Print(char * message)
                 ; 0001 00A9 {
                 _nlcd_Print:
                 ; 0001 00AA     while (*message) nlcd_Putc(*message++); //    
0008db 93ba      	ST   -Y,R27
0008dc 93aa      	ST   -Y,R26
                 ;	*message -> Y+0
                 _0x20017:
0008dd 81a8      	LD   R26,Y
0008de 81b9      	LDD  R27,Y+1
0008df 91ec      	LD   R30,X
0008e0 30e0      	CPI  R30,0
0008e1 f031      	BREQ _0x20019
0008e2 91ed      	LD   R30,X+
0008e3 83a8      	ST   Y,R26
0008e4 83b9      	STD  Y+1,R27
0008e5 2fae      	MOV  R26,R30
0008e6 dfbe      	RCALL _nlcd_Putc
0008e7 cff5      	RJMP _0x20017
                 _0x20019:
                 ; 0001 00AB }
0008e8 c044      	RJMP _0x20A0018
                 ;
                 ;//******************************************************************************
                 ;//     LCD- NOKIA 1100      .
                 ;//        ,      .
                 ;//  message:       . 0x00 -   .
                 ;void nlcd_PrintF(unsigned char * message)
                 ; 0001 00B2 {
                 _nlcd_PrintF:
                 ; 0001 00B3     unsigned char data;
                 ; 0001 00B4     while (data = *message, data)
0008e9 93ba      	ST   -Y,R27
0008ea 93aa      	ST   -Y,R26
0008eb 931a      	ST   -Y,R17
                 ;	*message -> Y+1
                 ;	data -> R17
                 _0x2001A:
0008ec 81a9      	LDD  R26,Y+1
0008ed 81ba      	LDD  R27,Y+1+1
0008ee 91ec      	LD   R30,X
0008ef 2f1e      	MOV  R17,R30
0008f0 3010      	CPI  R17,0
0008f1 f041      	BREQ _0x2001C
                 ; 0001 00B5     {
                 ; 0001 00B6         nlcd_Putc(data);
0008f2 2fa1      	MOV  R26,R17
0008f3 dfb1      	RCALL _nlcd_Putc
                 ; 0001 00B7         message++;
0008f4 81e9      	LDD  R30,Y+1
0008f5 81fa      	LDD  R31,Y+1+1
0008f6 9631      	ADIW R30,1
0008f7 83e9      	STD  Y+1,R30
0008f8 83fa      	STD  Y+1+1,R31
                 ; 0001 00B8     }
0008f9 cff2      	RJMP _0x2001A
                 _0x2001C:
                 ; 0001 00B9 }
0008fa 8118      	LDD  R17,Y+0
0008fb c181      	RJMP _0x20A0015
                 ;
                 ;
                 ;//******************************************************************************
                 ;//     LCD- NOKIA 1100      .
                 ;//        ,      .
                 ;//  message:       . 0x00 -   .
                 ;void nlcd_PrintWideF(unsigned char * message)
                 ; 0001 00C1 {
                 _nlcd_PrintWideF:
                 ; 0001 00C2     unsigned char data;
                 ; 0001 00C3     while (data = *message, data)
0008fc 93ba      	ST   -Y,R27
0008fd 93aa      	ST   -Y,R26
0008fe 931a      	ST   -Y,R17
                 ;	*message -> Y+1
                 ;	data -> R17
                 _0x2001D:
0008ff 81a9      	LDD  R26,Y+1
000900 81ba      	LDD  R27,Y+1+1
000901 91ec      	LD   R30,X
000902 2f1e      	MOV  R17,R30
000903 3010      	CPI  R17,0
000904 f041      	BREQ _0x2001F
                 ; 0001 00C4     {
                 ; 0001 00C5         nlcd_PutcWide(data);
000905 2fa1      	MOV  R26,R17
000906 dfb5      	RCALL _nlcd_PutcWide
                 ; 0001 00C6         message++;
000907 81e9      	LDD  R30,Y+1
000908 81fa      	LDD  R31,Y+1+1
000909 9631      	ADIW R30,1
00090a 83e9      	STD  Y+1,R30
00090b 83fa      	STD  Y+1+1,R31
                 ; 0001 00C7     }
00090c cff2      	RJMP _0x2001D
                 _0x2001F:
                 ; 0001 00C8 }
00090d 8118      	LDD  R17,Y+0
00090e c16e      	RJMP _0x20A0015
                 ;
                 ;//******************************************************************************
                 ;//       LCD- NOKIA 1100   
                 ;//   .        ,  
                 ;//    .
                 ;//  message:       . 0x00 -   .
                 ;void nlcd_PrintWide(unsigned char * message)
                 ; 0001 00D0 {
                 ; 0001 00D1     while (*message) nlcd_PutcWide(*message++);  //    
                 ;	*message -> Y+0
                 ; 0001 00D2 }
                 ;
                 ;
                 ;//******************************************************************************
                 ;//     .    
                 ;//  .   16 ,   - 8
                 ;//  x: 0..15
                 ;//  y: 0..7
                 ;void nlcd_GotoXY(char x,char y)
                 ; 0001 00DB {
                 _nlcd_GotoXY:
                 ; 0001 00DC     x=x*6;    //         
00090f 93aa      	ST   -Y,R26
                 ;	x -> Y+1
                 ;	y -> Y+0
000910 81e9      	LDD  R30,Y+1
000911 e0a6      	LDI  R26,LOW(6)
000912 02ea      	MULS R30,R26
000913 01f0      	MOVW R30,R0
000914 83e9      	STD  Y+1,R30
                 ; 0001 00DD     nlcd_xcurr=x;
000915 93e0 0e90 	STS  _nlcd_xcurr_G001,R30
                 ; 0001 00DE     nlcd_ycurr=y;
000917 81e8      	LD   R30,Y
000918 93e0 0e91 	STS  _nlcd_ycurr_G001,R30
                 ; 0001 00DF     nlcd_SendByte(CMD_LCD_MODE,(0xB0|(y&0x0F)));      //    Y: 0100 yyyy
00091a e0e0      	LDI  R30,LOW(0)
00091b 93ea      	ST   -Y,R30
00091c 81e9      	LDD  R30,Y+1
00091d 70ef      	ANDI R30,LOW(0xF)
00091e 6be0      	ORI  R30,LOW(0xB0)
00091f 2fae      	MOV  R26,R30
000920 940e 1ed1 	CALL SUBOPT_0xA
                 ; 0001 00E0     nlcd_SendByte(CMD_LCD_MODE,(0x00|(x&0x0F)));      //    X: 0000 xxxx -  (x3 x2 x1 x0)
000922 81ea      	LDD  R30,Y+2
000923 70ef      	ANDI R30,LOW(0xF)
000924 2fae      	MOV  R26,R30
000925 940e 1ed1 	CALL SUBOPT_0xA
                 ; 0001 00E1     nlcd_SendByte(CMD_LCD_MODE,(0x10|((x>>4)&0x07))); //    X: 0010 0xxx -  (x6 x5 x4)
000927 81ea      	LDD  R30,Y+2
000928 95e2      	SWAP R30
000929 70e7      	ANDI R30,LOW(0x7)
00092a 61e0      	ORI  R30,0x10
00092b 2fae      	MOV  R26,R30
00092c df31      	RCALL _nlcd_SendByte
                 ; 0001 00E2 }
                 _0x20A0018:
00092d 9622      	ADIW R28,2
00092e 9508      	RET
                 ;
                 ;//******************************************************************************
                 ;//     .     ,  
                 ;//  mode: INV_MODE_ON  INV_MODE_OFF
                 ;void nlcd_Inverse(unsigned char mode)
                 ; 0001 00E8 {
                 ; 0001 00E9     if (mode){
                 ;	mode -> Y+0
                 ; 0001 00EA         nlcd_SendByte(CMD_LCD_MODE,0xA6);
                 ; 0001 00EB     } else {
                 ; 0001 00EC         nlcd_SendByte(CMD_LCD_MODE,0xA7);
                 ; 0001 00ED     }
                 ; 0001 00EE }
                 ;
                 ;
                 ;//******************************************************************************
                 ;//    .    
                 ;//  .   96 ,   - 65
                 ;//  x: 0..95
                 ;//  y: 0..64
                 ;void nlcd_GotoXY_pix(char x,char y)
                 ; 0001 00F7 {
                 ; 0001 00F8     nlcd_xcurr=x;
                 ;	x -> Y+1
                 ;	y -> Y+0
                 ; 0001 00F9     nlcd_ycurr=y/8;
                 ; 0001 00FA 
                 ; 0001 00FB     //nlcd_SendByte(CMD_LCD_MODE,(0xB0 | ((y / 8) & 0x0F)));      //    Y: 0100 yyyy
                 ; 0001 00FC     nlcd_SendByte(CMD_LCD_MODE,(0xB0|(nlcd_ycurr&0x0F)));      //    Y: 0100 yyyy
                 ; 0001 00FD     nlcd_SendByte(CMD_LCD_MODE,(0x00 | (x & 0x0F)));      //    X: 0000 xxxx -  (x3 x2 x1 x0)
                 ; 0001 00FE     nlcd_SendByte(CMD_LCD_MODE,(0x10 | ((x>>4) & 0x07))); //    X: 0010 0xxx -  (x6 x5 x4)
                 ; 0001 00FF }
                 ;
                 ;
                 ;//******************************************************************************
                 ;//    LCD- NOKIA 1100
                 ;//  x: 0..95     (    )
                 ;//    y: 0..64    
                 ;//    pixel_mode: PIXEL_ON  -   
                 ;//                PIXEL_OFF -   
                 ;//                PIXEL_INV -   
                 ;void nlcd_Pixel(unsigned char x,unsigned char y, unsigned char pixel_mode)
                 ; 0001 010A {
                 ; 0001 010B     unsigned char temp;
                 ; 0001 010C     nlcd_GotoXY_pix(x,y);
                 ;	x -> Y+3
                 ;	y -> Y+2
                 ;	pixel_mode -> Y+1
                 ;	temp -> R17
                 ; 0001 010D     temp=nlcd_memory[nlcd_xcurr][nlcd_ycurr];
                 ; 0001 010E     switch(pixel_mode)
                 ; 0001 010F     {
                 ; 0001 0110         case PIXEL_ON:
                 ; 0001 0111             SetBit(temp, y%8);            //  
                 ; 0001 0112             break;
                 ; 0001 0113         case PIXEL_OFF:
                 ; 0001 0114              ClearBit(temp, y%8);        //  
                 ; 0001 0115             break;
                 ; 0001 0116         case PIXEL_INV:
                 ; 0001 0117              InvBit(temp, y%8);          //  
                 ; 0001 0118             break;
                 ; 0001 0119     }
                 ; 0001 011A 
                 ; 0001 011B     nlcd_memory[nlcd_xcurr][nlcd_ycurr] = temp; //    
                 ; 0001 011C     nlcd_SendByte(DATA_LCD_MODE,temp); //    
                 ; 0001 011D }
                 ;
                 ;//******************************************************************************
                 ;//    LCD- NOKIA 1100
                 ;//  x1, x2: 0..95     (    )
                 ;//    y1, y2: 0..64    
                 ;//    pixel_mode: PIXEL_ON  -   
                 ;//                PIXEL_OFF -   
                 ;//                PIXEL_INV -   
                 ;void nlcd_Line (unsigned char x1,unsigned char y1, unsigned char x2,unsigned char y2, unsigned char pixel_mode)
                 ; 0001 0127 {
                 ; 0001 0128     int dy, dx;
                 ; 0001 0129     signed char addx = 1, addy = 1;
                 ; 0001 012A     signed int     P, diff;
                 ; 0001 012B 
                 ; 0001 012C     unsigned char i = 0;
                 ; 0001 012D 
                 ; 0001 012E     dx = abs((signed char)(x2 - x1));
                 ;	x1 -> Y+15
                 ;	y1 -> Y+14
                 ;	x2 -> Y+13
                 ;	y2 -> Y+12
                 ;	pixel_mode -> Y+11
                 ;	dy -> R16,R17
                 ;	dx -> R18,R19
                 ;	addx -> R21
                 ;	addy -> R20
                 ;	P -> Y+9
                 ;	diff -> Y+7
                 ;	i -> Y+6
                 ; 0001 012F     dy = abs((signed char)(y2 - y1));
                 ; 0001 0130 
                 ; 0001 0131     if(x1 > x2)    addx = -1;
                 ; 0001 0132     if(y1 > y2)    addy = -1;
                 ; 0001 0133 
                 ; 0001 0134     if(dx >= dy)
                 ; 0001 0135     {
                 ; 0001 0136         dy *= 2;
                 ; 0001 0137         P = dy - dx;
                 ; 0001 0138 
                 ; 0001 0139         diff = P - dx;
                 ; 0001 013A 
                 ; 0001 013B         for(; i<=dx; ++i)
                 ; 0001 013C         {
                 ; 0001 013D             nlcd_Pixel(x1, y1, pixel_mode);
                 ; 0001 013E 
                 ; 0001 013F             if(P < 0)
                 ; 0001 0140             {
                 ; 0001 0141                 P  += dy;
                 ; 0001 0142                 x1 += addx;
                 ; 0001 0143             }
                 ; 0001 0144             else
                 ; 0001 0145             {
                 ; 0001 0146                 P  += diff;
                 ; 0001 0147                 x1 += addx;
                 ; 0001 0148                 y1 += addy;
                 ; 0001 0149             }
                 ; 0001 014A         }
                 ; 0001 014B     }
                 ; 0001 014C     else
                 ; 0001 014D     {
                 ; 0001 014E         dx *= 2;
                 ; 0001 014F         P = dx - dy;
                 ; 0001 0150         diff = P - dy;
                 ; 0001 0151 
                 ; 0001 0152         for(; i<=dy; ++i)
                 ; 0001 0153         {
                 ; 0001 0154             nlcd_Pixel(x1, y1, pixel_mode);
                 ; 0001 0155 
                 ; 0001 0156             if(P < 0)
                 ; 0001 0157             {
                 ; 0001 0158                 P  += dx;
                 ; 0001 0159                 y1 += addy;
                 ; 0001 015A             }
                 ; 0001 015B             else
                 ; 0001 015C             {
                 ; 0001 015D                 P  += diff;
                 ; 0001 015E                 x1 += addx;
                 ; 0001 015F                 y1 += addy;
                 ; 0001 0160             }
                 ; 0001 0161         }
                 ; 0001 0162     }
                 ; 0001 0163 }
                 ;
                 ;
                 ;
                 ;//******************************************************************************
                 ;//    LCD- NOKIA 1100
                 ;//  x: 0..95     (    )
                 ;//    y: 0..64    
                 ;//  radius:    
                 ;//  fill:        FILL_OFF  -   
                 ;//                FILL_ON      -  
                 ;//    pixel_mode: PIXEL_ON  -   
                 ;//                PIXEL_OFF -   
                 ;//                PIXEL_INV -   
                 ;
                 ;void nlcd_Circle(unsigned char x, unsigned char y, unsigned char radius, unsigned char fill, unsigned char pixel_mode)
                 ; 0001 0173 {
                 ; 0001 0174     signed char  a, b, P;
                 ; 0001 0175 
                 ; 0001 0176     a = 0;
                 ;	x -> Y+8
                 ;	y -> Y+7
                 ;	radius -> Y+6
                 ;	fill -> Y+5
                 ;	pixel_mode -> Y+4
                 ;	a -> R17
                 ;	b -> R16
                 ;	P -> R19
                 ; 0001 0177     b = radius;
                 ; 0001 0178     P = 1 - radius;
                 ; 0001 0179 
                 ; 0001 017A     do
                 ; 0001 017B     {
                 ; 0001 017C         if(fill)
                 ; 0001 017D         {
                 ; 0001 017E             nlcd_Line(x-a, y+b, x+a, y+b, pixel_mode);
                 ; 0001 017F             nlcd_Line(x-a, y-b, x+a, y-b, pixel_mode);
                 ; 0001 0180             nlcd_Line(x-b, y+a, x+b, y+a, pixel_mode);
                 ; 0001 0181             nlcd_Line(x-b, y-a, x+b, y-a, pixel_mode);
                 ; 0001 0182         }
                 ; 0001 0183         else
                 ; 0001 0184         {
                 ; 0001 0185             nlcd_Pixel(a+x, b+y, pixel_mode);
                 ; 0001 0186             nlcd_Pixel(b+x, a+y, pixel_mode);
                 ; 0001 0187             nlcd_Pixel(x-a, b+y, pixel_mode);
                 ; 0001 0188             nlcd_Pixel(x-b, a+y, pixel_mode);
                 ; 0001 0189             nlcd_Pixel(b+x, y-a, pixel_mode);
                 ; 0001 018A             nlcd_Pixel(a+x, y-b, pixel_mode);
                 ; 0001 018B             nlcd_Pixel(x-a, y-b, pixel_mode);
                 ; 0001 018C             nlcd_Pixel(x-b, y-a, pixel_mode);
                 ; 0001 018D         }
                 ; 0001 018E 
                 ; 0001 018F         if(P < 0) P += 3 + 2 * a++;
                 ; 0001 0190             else P += 5 + 2 * (a++ - b--);
                 ; 0001 0191     } while(a <= b);
                 ; 0001 0192 }
                 ;
                 ;
                 ;
                 ;//******************************************************************************
                 ;//    LCD- NOKIA 1100
                 ;//  x1, x2: 0..95     (    )
                 ;//    y1, y2: 0..64    
                 ;//    pixel_mode: PIXEL_ON  -   
                 ;//                PIXEL_OFF -   
                 ;//                PIXEL_INV -   
                 ;void nlcd_Rect (unsigned char x1, unsigned char y1, unsigned char x2, unsigned char y2, unsigned char fill, unsigned char pixel_mode)
                 ; 0001 019E {
                 ; 0001 019F     if(fill)
                 ;	x1 -> Y+5
                 ;	y1 -> Y+4
                 ;	x2 -> Y+3
                 ;	y2 -> Y+2
                 ;	fill -> Y+1
                 ;	pixel_mode -> Y+0
                 ; 0001 01A0     {            //  
                 ; 0001 01A1         unsigned char  i, xmin, xmax, ymin, ymax;
                 ; 0001 01A2 
                 ; 0001 01A3         if(x1 < x2) { xmin = x1; xmax = x2; }    //       X
                 ;	x1 -> Y+10
                 ;	y1 -> Y+9
                 ;	x2 -> Y+8
                 ;	y2 -> Y+7
                 ;	fill -> Y+6
                 ;	pixel_mode -> Y+5
                 ;	i -> Y+4
                 ;	xmin -> Y+3
                 ;	xmax -> Y+2
                 ;	ymin -> Y+1
                 ;	ymax -> Y+0
                 ; 0001 01A4          else { xmin = x2; xmax = x1; }
                 ; 0001 01A5 
                 ; 0001 01A6         if(y1 < y2) { ymin = y1; ymax = y2; }    //       Y
                 ; 0001 01A7          else { ymin = y2; ymax = y1; }
                 ; 0001 01A8 
                 ; 0001 01A9         for(; xmin <= xmax; ++xmin)
                 ; 0001 01AA         {
                 ; 0001 01AB             for(i=ymin; i<=ymax; ++i) nlcd_Pixel(xmin, i, pixel_mode);
                 ; 0001 01AC }
                 ; 0001 01AD     }
                 ; 0001 01AE     else        //  
                 ; 0001 01AF     {
                 ; 0001 01B0         nlcd_Line(x1, y1, x2, y1, pixel_mode);        //   
                 ; 0001 01B1         nlcd_Line(x1, y2, x2, y2, pixel_mode);
                 ; 0001 01B2         nlcd_Line(x1, y1+1, x1, y2-1, pixel_mode);
                 ; 0001 01B3         nlcd_Line(x2, y1+1, x2, y2-1, pixel_mode);
                 ; 0001 01B4     }
                 ; 0001 01B5 }
                 ;
                 ;
                 ;//******************************************************************************
                 ;//    LCD- NOKIA 1100
                 ;//  x: 0..95        (     )
                 ;//    y: 0..64       
                 ;//  picture:      ,  2   
                 ;//                  
                 ;void nlcd_Pict  (unsigned char x, unsigned char y, unsigned char * picture)
                 ; 0001 01BF {
                 ; 0001 01C0     unsigned char pict_width = picture[0];  //    
                 ; 0001 01C1     unsigned char pict_height = picture[1]; //    
                 ; 0001 01C2     unsigned char pict_height_bank=pict_height / 8+((pict_height%8)>0?1:0); //    
                 ; 0001 01C3     unsigned char y_pos_in_bank = y/8 + ((y%8)>0?1:0);        //   y   (  8 .)
                 ; 0001 01C4     unsigned char j;
                 ; 0001 01C5     unsigned char i;
                 ; 0001 01C6 
                 ; 0001 01C7     int adr = 2; //       
                 ; 0001 01C8 
                 ; 0001 01C9     for (i=0; i< pict_height_bank; i++)
                 ;	x -> Y+11
                 ;	y -> Y+10
                 ;	*picture -> Y+8
                 ;	pict_width -> R17
                 ;	pict_height -> R16
                 ;	pict_height_bank -> R19
                 ;	y_pos_in_bank -> R18
                 ;	j -> R21
                 ;	i -> R20
                 ;	adr -> Y+6
                 ; 0001 01CA     { //   ( )
                 ; 0001 01CB 
                 ; 0001 01CC         if (i<((NLCD_Y_RES/8)+1)) //      
                 ; 0001 01CD         {
                 ; 0001 01CE             //   
                 ; 0001 01CF             nlcd_xcurr=x;
                 ; 0001 01D0             nlcd_ycurr=y_pos_in_bank + i;
                 ; 0001 01D1 
                 ; 0001 01D2             nlcd_SendByte(CMD_LCD_MODE,(0xB0|((y_pos_in_bank+i)&0x0F))); //    Y: 0100 yyyy
                 ; 0001 01D3             nlcd_SendByte(CMD_LCD_MODE,(0x00|(x&0x0F)));      //    X: 0000 xxxx -  (x3 x2 x1 x0)
                 ; 0001 01D4             nlcd_SendByte(CMD_LCD_MODE,(0x10|((x>>4)&0x07))); //    X: 0010 0xxx -  (x6 x5 x4)
                 ; 0001 01D5 
                 ; 0001 01D6             // 
                 ; 0001 01D7             for (j = 0; j < pict_width; j++ )
                 ; 0001 01D8             {
                 ; 0001 01D9                 if ((x+j) < NLCD_X_RES) nlcd_SendByte(DATA_LCD_MODE,picture[adr]); //      
                 ; 0001 01DA                 adr++;
                 ; 0001 01DB             }
                 ; 0001 01DC         }
                 ; 0001 01DD     }
                 ; 0001 01DE }
                 ;
                 ;//***************************************************************************
                 ;//
                 ;//  Author(s)...:    http://ChipEnable.Ru
                 ;//
                 ;//  Target(s)...: avr
                 ;//
                 ;//  Compiler....: IAR
                 ;//
                 ;//  Description.:  
                 ;//
                 ;//  Data........: 12.12.13
                 ;//
                 ;//***************************************************************************
                 ;
                 ;#include "buttons.h"
                 	#ifndef __SLEEP_DEFINED__
                 	#endif
                 ;
                 ;#define FLAG_BUT_PRESSED    (1<<0)
                 ;#define FLAG_BUT_HOLD       (1<<1)
                 ;#define FLAG_BUT_RELEASED   (1<<2)
                 ;
                 ;
                 ;/*   .  
                 ;   */
                 ;#define _TestBit1(var, bit)            ((var) & (1<<(bit)))
                 ;#define _TestBit0(var, bit)            (!((var) & (1<<(bit))))
                 ;#define _TestBit(var, bit, lev)        _TestBit##lev(var, bit)
                 ;#define TestBitLev(var, bit, lev)      _TestBit(var, bit, lev)
                 ;
                 ;/*   , / */
                 ;#define ButtonInit_m(dir, port, pin, pull)   do{dir &= ~(1<<pin);                 \
                 ;                                                if (pull) {port |= (1<<pin);}     \
                 ;                                                else{port &= ~(1<<pin);}}while(0)
                 ;
                 ;/*    ,   */
                 ;#define SaveEvent_m(settings, mask, curEvent, reg) do{if ((settings) & (mask)){reg = curEvent;}}while(0)
                 ;
                 ;/*  .      switch ,    */
                 ;#if (BUT_POLL_ROTATION > 0)
                 ;#define CheckOneBut_m(id, port, pin, lev, settings, reg)     case ((id) - 1):                   \
                 ;                                                                if (TestBitLev(port, pin, lev)){\
                 ;                                                                   reg = 1;                     \
                 ;                                                                }                               \
                 ;                                                                else{                           \
                 ;                                                                   reg = 0;                     \
                 ;                                                                }                               \
                 ;                                                                BUT_Check(reg, id, settings);   \
                 ;                                                                break;
                 ;
                 ;   #define Switch_m(x)  switch(x){
                 ;   #define End_m()      }
                 ;#else
                 ;
                 ;#define CheckOneBut_m(id, port, pin, lev, settings, reg)        if (TestBitLev(port, pin, lev)){\
                 ;                                                                   reg = 1;                     \
                 ;                                                                }                               \
                 ;                                                                else{                           \
                 ;                                                                   reg = 0;                     \
                 ;                                                                }                               \
                 ;                                                                BUT_Check(reg, id, settings);
                 ;
                 ;   #define Switch_m(x)
                 ;   #define End_m()
                 ;#endif
                 ;
                 ;/*      */
                 ;#define BUT_COUNT_MAX        (BUT_COUNT_HELD + 1)
                 ;#define BUT_COUNT_THR_2_MAX  (BUT_COUNT_THR_2 + 1)
                 ;
                 ;/* */
                 ;#if (BUT_COUNT_HELD <= 250)
                 ;  static uint8_t countDeb[BUT_AMOUNT];
                 ;  static uint8_t countDebTmp;
                 ;#else
                 ;  static uint16_t countDeb[BUT_AMOUNT];
                 ;  static uint16_t countDebTmp;
                 ;#endif
                 ;
                 ;/*    */
                 ;#if (BUT_DOUBLE_CLICK_EN == 1)
                 ;  #if (BUT_COUNT_THR_2 <= 253)
                 ;    static uint8_t countHold[BUT_AMOUNT];
                 ;    static uint8_t countHoldTmp;
                 ;  #else
                 ;    static uint16_t countHold[BUT_AMOUNT];
                 ;    static uint16_t countHoldTmp;
                 ;  #endif
                 ;#endif
                 ;
                 ;/*,     */
                 ;static uint8_t stateBut[BUT_AMOUNT];
                 ;
                 ;/***************   ******************/
                 ;
                 ;static uint8_t buf[BUT_SIZE_BUF];
                 ;static uint8_t head, tail, count;
                 ;
                 ;static void PutBut(uint8_t but)
                 ; 0002 0062 {
                 
                 	.CSEG
                 _PutBut_G002:
                 ; 0002 0063   if (count < BUT_SIZE_BUF){
00092f 93aa      	ST   -Y,R26
                 ;	but -> Y+0
000930 91a0 0ea5 	LDS  R26,_count_G002
000932 30a8      	CPI  R26,LOW(0x8)
000933 f498      	BRSH _0x40003
                 ; 0002 0064      buf[head] = but;
000934 91e0 0ea3 	LDS  R30,_head_G002
000936 940e 1eeb 	CALL SUBOPT_0xE
000938 81a8      	LD   R26,Y
000939 83a0      	STD  Z+0,R26
                 ; 0002 0065      count++;
00093a 91e0 0ea5 	LDS  R30,_count_G002
00093c 5fef      	SUBI R30,-LOW(1)
00093d 93e0 0ea5 	STS  _count_G002,R30
                 ; 0002 0066      head++;
00093f 91e0 0ea3 	LDS  R30,_head_G002
000941 5fef      	SUBI R30,-LOW(1)
000942 93e0 0ea3 	STS  _head_G002,R30
                 ; 0002 0067      head &= (BUT_SIZE_BUF - 1);
000944 70e7      	ANDI R30,LOW(0x7)
000945 93e0 0ea3 	STS  _head_G002,R30
                 ; 0002 0068   }
                 ; 0002 0069 }
                 _0x40003:
000947 c121      	RJMP _0x20A0016
                 ;
                 ;uint8_t BUT_GetBut(void)
                 ; 0002 006C {
                 _BUT_GetBut:
                 ; 0002 006D   uint8_t but = 0;
                 ; 0002 006E 
                 ; 0002 006F   if (count){
000948 931a      	ST   -Y,R17
                 ;	but -> R17
000949 e010      	LDI  R17,0
00094a 91e0 0ea5 	LDS  R30,_count_G002
00094c 30e0      	CPI  R30,0
00094d f091      	BREQ _0x40004
                 ; 0002 0070      but = buf[tail];
00094e 91e0 0ea4 	LDS  R30,_tail_G002
000950 940e 1eeb 	CALL SUBOPT_0xE
000952 8110      	LD   R17,Z
                 ; 0002 0071      count--;
000953 91e0 0ea5 	LDS  R30,_count_G002
000955 50e1      	SUBI R30,LOW(1)
000956 93e0 0ea5 	STS  _count_G002,R30
                 ; 0002 0072      tail++;
000958 91e0 0ea4 	LDS  R30,_tail_G002
00095a 5fef      	SUBI R30,-LOW(1)
00095b 93e0 0ea4 	STS  _tail_G002,R30
                 ; 0002 0073      tail &= (BUT_SIZE_BUF - 1);
00095d 70e7      	ANDI R30,LOW(0x7)
00095e 93e0 0ea4 	STS  _tail_G002,R30
                 ; 0002 0074   }
                 ; 0002 0075 
                 ; 0002 0076   return but;
                 _0x40004:
000960 2fe1      	MOV  R30,R17
000961 c0ce      	RJMP _0x20A0017
                 ; 0002 0077 }
                 ;
                 ;/************************************************/
                 ;
                 ;static void BUT_Check(uint8_t state, uint8_t i, uint8_t settings)
                 ; 0002 007C {
                 _BUT_Check_G002:
                 ; 0002 007D   uint8_t stateTmp;
                 ; 0002 007E   uint8_t event;
                 ; 0002 007F 
                 ; 0002 0080   i--;
000962 93aa      	ST   -Y,R26
000963 931a      	ST   -Y,R17
000964 930a      	ST   -Y,R16
                 ;	state -> Y+4
                 ;	i -> Y+3
                 ;	settings -> Y+2
                 ;	stateTmp -> R17
                 ;	event -> R16
000965 81eb      	LDD  R30,Y+3
000966 50e1      	SUBI R30,LOW(1)
000967 83eb      	STD  Y+3,R30
                 ; 0002 0081 
                 ; 0002 0082   stateTmp = stateBut[i];
000968 940e 1eef 	CALL SUBOPT_0xF
00096a 56e9      	SUBI R30,LOW(-_stateBut_G002)
00096b 4ff1      	SBCI R31,HIGH(-_stateBut_G002)
00096c 8110      	LD   R17,Z
                 ; 0002 0083   event = 0;
00096d e000      	LDI  R16,LOW(0)
                 ; 0002 0084 
                 ; 0002 0085 #if (BUT_DOUBLE_CLICK_EN == 1)
                 ; 0002 0086   countHoldTmp = countHold[i];
                 ; 0002 0087 #endif
                 ; 0002 0088 
                 ; 0002 0089  countDebTmp = countDeb[i];
00096e 940e 1eef 	CALL SUBOPT_0xF
000970 56ee      	SUBI R30,LOW(-_countDeb_G002)
000971 4ff1      	SBCI R31,HIGH(-_countDeb_G002)
000972 81e0      	LD   R30,Z
000973 93e0 0e96 	STS  _countDebTmp_G002,R30
                 ; 0002 008A 
                 ; 0002 008B  if (state){
000975 81ec      	LDD  R30,Y+4
000976 30e0      	CPI  R30,0
000977 f109      	BREQ _0x40005
                 ; 0002 008C     if (countDebTmp < BUT_COUNT_MAX){
000978 91a0 0e96 	LDS  R26,_countDebTmp_G002
00097a 31a5      	CPI  R26,LOW(0x15)
00097b f4e0      	BRSH _0x40006
                 ; 0002 008D        countDebTmp++;
00097c 91e0 0e96 	LDS  R30,_countDebTmp_G002
00097e 5fef      	SUBI R30,-LOW(1)
00097f 93e0 0e96 	STS  _countDebTmp_G002,R30
                 ; 0002 008E 
                 ; 0002 008F        if (countDebTmp > BUT_COUNT_THR){
000981 91a0 0e96 	LDS  R26,_countDebTmp_G002
000983 30a6      	CPI  R26,LOW(0x6)
000984 f038      	BRLO _0x40007
                 ; 0002 0090           if (!(stateTmp & FLAG_BUT_PRESSED)){
000985 fd10      	SBRC R17,0
000986 c005      	RJMP _0x40008
                 ; 0002 0091              stateTmp |= FLAG_BUT_PRESSED;
000987 6011      	ORI  R17,LOW(1)
                 ; 0002 0092 
                 ; 0002 0093 #if (BUT_PRESSED_EN == 1)
                 ; 0002 0094              SaveEvent_m(settings, BUT_EV_PRESSED, BUT_PRESSED_CODE, event);
000988 81ea      	LDD  R30,Y+2
000989 70e1      	ANDI R30,LOW(0x1)
00098a f009      	BREQ _0x4000C
00098b e001      	LDI  R16,LOW(1)
                 _0x4000C:
                 ; 0002 0095 #endif
                 ; 0002 0096           }
                 ; 0002 0097        }
                 _0x40008:
                 ; 0002 0098 
                 ; 0002 0099        if (countDebTmp > BUT_COUNT_HELD){
                 _0x40007:
00098c 91a0 0e96 	LDS  R26,_countDebTmp_G002
00098e 31a5      	CPI  R26,LOW(0x15)
00098f f040      	BRLO _0x4000D
                 ; 0002 009A          if (!(stateTmp & FLAG_BUT_HOLD)){
000990 fd11      	SBRC R17,1
000991 c006      	RJMP _0x4000E
                 ; 0002 009B             stateTmp &= ~(FLAG_BUT_RELEASED);
000992 7f1b      	ANDI R17,LOW(251)
                 ; 0002 009C             stateTmp |= FLAG_BUT_HOLD;
000993 6012      	ORI  R17,LOW(2)
                 ; 0002 009D 
                 ; 0002 009E #if (BUT_HELD_EN == 1)
                 ; 0002 009F             SaveEvent_m(settings, BUT_EV_HELD, BUT_HELD_CODE, event);
000994 81ea      	LDD  R30,Y+2
000995 70e2      	ANDI R30,LOW(0x2)
000996 f009      	BREQ _0x40012
000997 e002      	LDI  R16,LOW(2)
                 _0x40012:
                 ; 0002 00A0 #endif
                 ; 0002 00A1          }
                 ; 0002 00A2        }
                 _0x4000E:
                 ; 0002 00A3     }
                 _0x4000D:
                 ; 0002 00A4   }
                 _0x40006:
                 ; 0002 00A5   else{
000998 c00d      	RJMP _0x40013
                 _0x40005:
                 ; 0002 00A6 
                 ; 0002 00A7 #if (BUT_DOUBLE_CLICK_EN == 1)
                 ; 0002 00A8      if ((stateTmp & FLAG_BUT_PRESSED)&&(!(stateTmp & FLAG_BUT_HOLD))){
                 ; 0002 00A9 
                 ; 0002 00AA        if (stateTmp & FLAG_BUT_RELEASED){
                 ; 0002 00AB           stateTmp &= ~FLAG_BUT_RELEASED;
                 ; 0002 00AC           SaveEvent_m(settings, BUT_EV_DOUBLE_CLICK, BUT_DOUBLE_CLICK_CODE, event);
                 ; 0002 00AD        }
                 ; 0002 00AE        else{
                 ; 0002 00AF           countHoldTmp = 0;
                 ; 0002 00B0           stateTmp |= FLAG_BUT_RELEASED;
                 ; 0002 00B1        }
                 ; 0002 00B2      }
                 ; 0002 00B3 
                 ; 0002 00B4      if (stateTmp & FLAG_BUT_RELEASED){
                 ; 0002 00B5         if (countHoldTmp > BUT_COUNT_THR_2){
                 ; 0002 00B6            countHoldTmp = 0;
                 ; 0002 00B7            stateTmp &= ~FLAG_BUT_RELEASED;
                 ; 0002 00B8   #if (BUT_RELEASED_EN == 1)
                 ; 0002 00B9            SaveEvent_m(settings, BUT_EV_RELEASED, BUT_RELEASED_CODE, event);
                 ; 0002 00BA   #endif
                 ; 0002 00BB         }
                 ; 0002 00BC      }
                 ; 0002 00BD #else
                 ; 0002 00BE      if ((stateTmp & FLAG_BUT_PRESSED)&&(!(stateTmp & FLAG_BUT_HOLD))){
000999 ff10      	SBRS R17,0
00099a c002      	RJMP _0x40015
00099b ff11      	SBRS R17,1
00099c c001      	RJMP _0x40016
                 _0x40015:
00099d c004      	RJMP _0x40014
                 _0x40016:
                 ; 0002 00BF         SaveEvent_m(settings, BUT_EV_RELEASED, BUT_RELEASED_CODE, event);
00099e 81ea      	LDD  R30,Y+2
00099f 70e4      	ANDI R30,LOW(0x4)
0009a0 f009      	BREQ _0x4001A
0009a1 e003      	LDI  R16,LOW(3)
                 _0x4001A:
                 ; 0002 00C0      }
                 ; 0002 00C1 #endif
                 ; 0002 00C2 
                 ; 0002 00C3 #if (BUT_RELEASE_LONG_EN == 1)
                 ; 0002 00C4      if ((stateTmp & FLAG_BUT_PRESSED)&&(stateTmp & FLAG_BUT_HOLD)){
                 ; 0002 00C5         SaveEvent_m(settings, BUT_EV_RELEASED_LONG, BUT_RELEASED_LONG_CODE, event);
                 ; 0002 00C6      }
                 ; 0002 00C7 #endif
                 ; 0002 00C8 
                 ; 0002 00C9      countDebTmp = 0;
                 _0x40014:
0009a2 e0e0      	LDI  R30,LOW(0)
0009a3 93e0 0e96 	STS  _countDebTmp_G002,R30
                 ; 0002 00CA      stateTmp &= ~(FLAG_BUT_PRESSED|FLAG_BUT_HOLD);
0009a5 7f1c      	ANDI R17,LOW(252)
                 ; 0002 00CB   }
                 _0x40013:
                 ; 0002 00CC 
                 ; 0002 00CD 
                 ; 0002 00CE 
                 ; 0002 00CF #if (BUT_DOUBLE_CLICK_EN == 1)
                 ; 0002 00D0   if (stateTmp & FLAG_BUT_RELEASED){
                 ; 0002 00D1      if (countHoldTmp < BUT_COUNT_THR_2_MAX){
                 ; 0002 00D2         countHoldTmp++;
                 ; 0002 00D3      }
                 ; 0002 00D4   }
                 ; 0002 00D5 
                 ; 0002 00D6   countHold[i] = countHoldTmp;
                 ; 0002 00D7 #endif
                 ; 0002 00D8 
                 ; 0002 00D9   if (event){
0009a6 3000      	CPI  R16,0
0009a7 f029      	BREQ _0x4001B
                 ; 0002 00DA      PutBut(i+1);
0009a8 81ab      	LDD  R26,Y+3
0009a9 5faf      	SUBI R26,-LOW(1)
0009aa df84      	RCALL _PutBut_G002
                 ; 0002 00DB      PutBut(event);
0009ab 2fa0      	MOV  R26,R16
0009ac df82      	RCALL _PutBut_G002
                 ; 0002 00DC   }
                 ; 0002 00DD 
                 ; 0002 00DE   countDeb[i] = countDebTmp;
                 _0x4001B:
0009ad 940e 1eef 	CALL SUBOPT_0xF
0009af 56ee      	SUBI R30,LOW(-_countDeb_G002)
0009b0 4ff1      	SBCI R31,HIGH(-_countDeb_G002)
0009b1 91a0 0e96 	LDS  R26,_countDebTmp_G002
0009b3 83a0      	STD  Z+0,R26
                 ; 0002 00DF   stateBut[i] = stateTmp;
0009b4 940e 1eef 	CALL SUBOPT_0xF
0009b6 56e9      	SUBI R30,LOW(-_stateBut_G002)
0009b7 4ff1      	SBCI R31,HIGH(-_stateBut_G002)
0009b8 8310      	ST   Z,R17
                 ; 0002 00E0 }
0009b9 8119      	LDD  R17,Y+1
0009ba 8108      	LDD  R16,Y+0
0009bb 9625      	ADIW R28,5
0009bc 9508      	RET
                 ;
                 ;/******************************************************/
                 ;
                 ;void BUT_Init(void)
                 ; 0002 00E5 {
                 _BUT_Init:
                 ; 0002 00E6   uint8_t i;
                 ; 0002 00E7 
                 ; 0002 00E8   for(i = 0; i < BUT_AMOUNT; i++){
0009bd 931a      	ST   -Y,R17
                 ;	i -> R17
0009be e010      	LDI  R17,LOW(0)
                 _0x4001D:
0009bf 3014      	CPI  R17,4
0009c0 f470      	BRSH _0x4001E
                 ; 0002 00E9      countDeb[i] = 0;
0009c1 940e 1ef2 	CALL SUBOPT_0x10
0009c3 56ee      	SUBI R30,LOW(-_countDeb_G002)
0009c4 4ff1      	SBCI R31,HIGH(-_countDeb_G002)
0009c5 e0a0      	LDI  R26,LOW(0)
0009c6 83a0      	STD  Z+0,R26
                 ; 0002 00EA      stateBut[i] = 0;
0009c7 940e 1ef2 	CALL SUBOPT_0x10
0009c9 56e9      	SUBI R30,LOW(-_stateBut_G002)
0009ca 4ff1      	SBCI R31,HIGH(-_stateBut_G002)
0009cb e0a0      	LDI  R26,LOW(0)
0009cc 83a0      	STD  Z+0,R26
                 ; 0002 00EB 
                 ; 0002 00EC #if (BUT_DOUBLE_CLICK_EN == 1)
                 ; 0002 00ED      countHold[i] = 0;
                 ; 0002 00EE #endif
                 ; 0002 00EF 
                 ; 0002 00F0   }
0009cd 5f1f      	SUBI R17,-1
0009ce cff0      	RJMP _0x4001D
                 _0x4001E:
                 ; 0002 00F1 
                 ; 0002 00F2   for(i = 0; i < BUT_SIZE_BUF; i++){
0009cf e010      	LDI  R17,LOW(0)
                 _0x40020:
0009d0 3018      	CPI  R17,8
0009d1 f438      	BRSH _0x40021
                 ; 0002 00F3      buf[i] = 0;
0009d2 2fe1      	MOV  R30,R17
0009d3 940e 1eeb 	CALL SUBOPT_0xE
0009d5 e0a0      	LDI  R26,LOW(0)
0009d6 83a0      	STD  Z+0,R26
                 ; 0002 00F4   }
0009d7 5f1f      	SUBI R17,-1
0009d8 cff7      	RJMP _0x40020
                 _0x40021:
                 ; 0002 00F5 
                 ; 0002 00F6   head = 0;
0009d9 e0e0      	LDI  R30,LOW(0)
0009da 93e0 0ea3 	STS  _head_G002,R30
                 ; 0002 00F7   tail = 0;
0009dc 93e0 0ea4 	STS  _tail_G002,R30
                 ; 0002 00F8   count = 0;
0009de 93e0 0ea5 	STS  _count_G002,R30
                 ; 0002 00F9 
                 ; 0002 00FA #ifdef BUT_1_ID
                 ; 0002 00FB   ButtonInit_m(BUT_1_DDRX, BUT_1_PORTX, BUT_1_PIN, BUT_1_PULL);
0009e0 98d0      	CBI  0x1A,0
0009e1 98d8      	CBI  0x1B,0
                 ; 0002 00FC #endif
                 ; 0002 00FD 
                 ; 0002 00FE #ifdef BUT_2_ID
                 ; 0002 00FF   ButtonInit_m(BUT_2_DDRX, BUT_2_PORTX, BUT_2_PIN, BUT_2_PULL);
0009e2 98d1      	CBI  0x1A,1
0009e3 98d9      	CBI  0x1B,1
                 ; 0002 0100 #endif
                 ; 0002 0101 
                 ; 0002 0102 #ifdef BUT_3_ID
                 ; 0002 0103   ButtonInit_m(BUT_3_DDRX, BUT_3_PORTX, BUT_3_PIN, BUT_3_PULL);
0009e4 98d4      	CBI  0x1A,4
0009e5 98dc      	CBI  0x1B,4
                 ; 0002 0104 #endif
                 ; 0002 0105 
                 ; 0002 0106 #ifdef BUT_4_ID
                 ; 0002 0107   ButtonInit_m(BUT_4_DDRX, BUT_4_PORTX, BUT_4_PIN, BUT_4_PULL);
0009e6 98d5      	CBI  0x1A,5
0009e7 98dd      	CBI  0x1B,5
                 ; 0002 0108 #endif
                 ; 0002 0109 
                 ; 0002 010A #ifdef BUT_5_ID
                 ; 0002 010B   ButtonInit_m(BUT_5_DDRX, BUT_5_PORTX, BUT_5_PIN, BUT_5_PULL);
                 ; 0002 010C #endif
                 ; 0002 010D 
                 ; 0002 010E #ifdef BUT_6_ID
                 ; 0002 010F   ButtonInit_m(BUT_6_DDRX, BUT_6_PORTX, BUT_6_PIN, BUT_6_PULL);
                 ; 0002 0110 #endif
                 ; 0002 0111 
                 ; 0002 0112 #ifdef BUT_7_ID
                 ; 0002 0113   ButtonInit_m(BUT_7_DDRX, BUT_7_PORTX, BUT_7_PIN, BUT_7_PULL);
                 ; 0002 0114 #endif
                 ; 0002 0115 
                 ; 0002 0116 #ifdef BUT_8_ID
                 ; 0002 0117   ButtonInit_m(BUT_8_DDRX, BUT_8_PORTX, BUT_8_PIN, BUT_8_PULL);
                 ; 0002 0118 #endif
                 ; 0002 0119 
                 ; 0002 011A #ifdef BUT_9_ID
                 ; 0002 011B   ButtonInit_m(BUT_9_DDRX, BUT_9_PORTX, BUT_9_PIN, BUT_9_PULL);
                 ; 0002 011C #endif
                 ; 0002 011D 
                 ; 0002 011E #ifdef BUT_10_ID
                 ; 0002 011F   ButtonInit_m(BUT_10_DDRX, BUT_10_PORTX, BUT_10_PIN, BUT_10_PULL);
                 ; 0002 0120 #endif
                 ; 0002 0121 
                 ; 0002 0122 #ifdef BUT_11_ID
                 ; 0002 0123   ButtonInit_m(BUT_11_DDRX, BUT_11_PORTX, BUT_11_PIN, BUT_11_PULL);
                 ; 0002 0124 #endif
                 ; 0002 0125 
                 ; 0002 0126 #ifdef BUT_12_ID
                 ; 0002 0127   ButtonInit_m(BUT_12_DDRX, BUT_12_PORTX, BUT_12_PIN, BUT_12_PULL);
                 ; 0002 0128 #endif
                 ; 0002 0129 
                 ; 0002 012A #ifdef BUT_13_ID
                 ; 0002 012B   ButtonInit_m(BUT_13_DDRX, BUT_13_PORTX, BUT_13_PIN, BUT_13_PULL);
                 ; 0002 012C #endif
                 ; 0002 012D 
                 ; 0002 012E #ifdef BUT_14_ID
                 ; 0002 012F   ButtonInit_m(BUT_14_DDRX, BUT_14_PORTX, BUT_14_PIN, BUT_14_PULL);
                 ; 0002 0130 #endif
                 ; 0002 0131 
                 ; 0002 0132 #ifdef BUT_15_ID
                 ; 0002 0133   ButtonInit_m(BUT_15_DDRX, BUT_15_PORTX, BUT_15_PIN, BUT_15_PULL);
                 ; 0002 0134 #endif
                 ; 0002 0135 
                 ; 0002 0136 #ifdef BUT_16_ID
                 ; 0002 0137   ButtonInit_m(BUT_16_DDRX, BUT_16_PORTX, BUT_16_PIN, BUT_16_PULL);
                 ; 0002 0138 #endif
                 ; 0002 0139 
                 ; 0002 013A #ifdef BUT_17_ID
                 ; 0002 013B   ButtonInit_m(BUT_17_DDRX, BUT_17_PORTX, BUT_17_PIN, BUT_17_PULL);
                 ; 0002 013C #endif
                 ; 0002 013D 
                 ; 0002 013E #ifdef BUT_18_ID
                 ; 0002 013F   ButtonInit_m(BUT_18_DDRX, BUT_18_PORTX, BUT_18_PIN, BUT_18_PULL);
                 ; 0002 0140 #endif
                 ; 0002 0141 
                 ; 0002 0142 #ifdef BUT_19_ID
                 ; 0002 0143   ButtonInit_m(BUT_19_DDRX, BUT_19_PORTX, BUT_19_PIN, BUT_19_PULL);
                 ; 0002 0144 #endif
                 ; 0002 0145 
                 ; 0002 0146 #ifdef BUT_20_ID
                 ; 0002 0147   ButtonInit_m(BUT_20_DDRX, BUT_20_PORTX, BUT_20_PIN, BUT_20_PULL);
                 ; 0002 0148 #endif
                 ; 0002 0149 
                 ; 0002 014A #ifdef BUT_21_ID
                 ; 0002 014B   ButtonInit_m(BUT_21_DDRX, BUT_21_PORTX, BUT_21_PIN, BUT_21_PULL);
                 ; 0002 014C #endif
                 ; 0002 014D 
                 ; 0002 014E #ifdef BUT_22_ID
                 ; 0002 014F   ButtonInit_m(BUT_22_DDRX, BUT_22_PORTX, BUT_22_PIN, BUT_22_PULL);
                 ; 0002 0150 #endif
                 ; 0002 0151 
                 ; 0002 0152 #ifdef BUT_23_ID
                 ; 0002 0153   ButtonInit_m(BUT_23_DDRX, BUT_23_PORTX, BUT_23_PIN, BUT_23_PULL);
                 ; 0002 0154 #endif
                 ; 0002 0155 
                 ; 0002 0156 #ifdef BUT_24_ID
                 ; 0002 0157   ButtonInit_m(BUT_24_DDRX, BUT_24_PORTX, BUT_24_PIN, BUT_24_PULL);
                 ; 0002 0158 #endif
                 ; 0002 0159 
                 ; 0002 015A #ifdef BUT_25_ID
                 ; 0002 015B   ButtonInit_m(BUT_25_DDRX, BUT_25_PORTX, BUT_25_PIN, BUT_25_PULL);
                 ; 0002 015C #endif
                 ; 0002 015D 
                 ; 0002 015E #ifdef BUT_26_ID
                 ; 0002 015F   ButtonInit_m(BUT_26_DDRX, BUT_26_PORTX, BUT_26_PIN, BUT_26_PULL);
                 ; 0002 0160 #endif
                 ; 0002 0161 
                 ; 0002 0162 #ifdef BUT_27_ID
                 ; 0002 0163   ButtonInit_m(BUT_27_DDRX, BUT_27_PORTX, BUT_27_PIN, BUT_27_PULL);
                 ; 0002 0164 #endif
                 ; 0002 0165 
                 ; 0002 0166 #ifdef BUT_28_ID
                 ; 0002 0167   ButtonInit_m(BUT_28_DDRX, BUT_28_PORTX, BUT_28_PIN, BUT_28_PULL);
                 ; 0002 0168 #endif
                 ; 0002 0169 
                 ; 0002 016A #ifdef BUT_29_ID
                 ; 0002 016B   ButtonInit_m(BUT_29_DDRX, BUT_29_PORTX, BUT_29_PIN, BUT_29_PULL);
                 ; 0002 016C #endif
                 ; 0002 016D 
                 ; 0002 016E #ifdef BUT_30_ID
                 ; 0002 016F   ButtonInit_m(BUT_30_DDRX, BUT_30_PORTX, BUT_30_PIN, BUT_30_PULL);
                 ; 0002 0170 #endif
                 ; 0002 0171 
                 ; 0002 0172 #ifdef BUT_31_ID
                 ; 0002 0173   ButtonInit_m(BUT_31_DDRX, BUT_31_PORTX, BUT_31_PIN, BUT_31_PULL);
                 ; 0002 0174 #endif
                 ; 0002 0175 
                 ; 0002 0176 #ifdef BUT_32_ID
                 ; 0002 0177   ButtonInit_m(BUT_32_DDRX, BUT_32_PORTX, BUT_32_PIN, BUT_32_PULL);
                 ; 0002 0178 #endif
                 ; 0002 0179 }
0009e8 c047      	RJMP _0x20A0017
                 ;
                 ;/**********************************************/
                 ;
                 ;void BUT_Poll(void)
                 ; 0002 017E {
                 _BUT_Poll:
                 ; 0002 017F #if (BUT_POLL_ROTATION > 0)
                 ; 0002 0180   static uint8_t i = 0;
                 ; 0002 0181 #endif
                 ; 0002 0182 
                 ; 0002 0183   uint8_t state = 0;
                 ; 0002 0184 
                 ; 0002 0185   Switch_m(i);
                 ; 0002 0186 
                 ; 0002 0187 #ifdef BUT_1_ID
                 ; 0002 0188   CheckOneBut_m(BUT_1_ID, BUT_1_PINX, BUT_1_PIN, BUT_1_LEV, BUT_1_EVENT, state);
0009e9 931a      	ST   -Y,R17
                 ;	state -> R17
0009ea e010      	LDI  R17,0
0009eb 99c8      	SBIC 0x19,0
0009ec c002      	RJMP _0x40036
0009ed e011      	LDI  R17,LOW(1)
0009ee c001      	RJMP _0x40037
                 _0x40036:
0009ef e010      	LDI  R17,LOW(0)
                 _0x40037:
0009f0 931a      	ST   -Y,R17
0009f1 e0e1      	LDI  R30,LOW(1)
0009f2 93ea      	ST   -Y,R30
0009f3 e0a3      	LDI  R26,LOW(3)
0009f4 df6d      	RCALL _BUT_Check_G002
                 ; 0002 0189 #endif
                 ; 0002 018A 
                 ; 0002 018B #ifdef BUT_2_ID
                 ; 0002 018C   CheckOneBut_m(BUT_2_ID, BUT_2_PINX, BUT_2_PIN, BUT_2_LEV, BUT_2_EVENT, state);
0009f5 99c9      	SBIC 0x19,1
0009f6 c002      	RJMP _0x40038
0009f7 e011      	LDI  R17,LOW(1)
0009f8 c001      	RJMP _0x40039
                 _0x40038:
0009f9 e010      	LDI  R17,LOW(0)
                 _0x40039:
0009fa 931a      	ST   -Y,R17
0009fb e0e2      	LDI  R30,LOW(2)
0009fc 93ea      	ST   -Y,R30
0009fd e0a3      	LDI  R26,LOW(3)
0009fe df63      	RCALL _BUT_Check_G002
                 ; 0002 018D #endif
                 ; 0002 018E 
                 ; 0002 018F #ifdef BUT_3_ID
                 ; 0002 0190   CheckOneBut_m(BUT_3_ID, BUT_3_PINX, BUT_3_PIN, BUT_3_LEV, BUT_3_EVENT, state);
0009ff 99cc      	SBIC 0x19,4
000a00 c002      	RJMP _0x4003A
000a01 e011      	LDI  R17,LOW(1)
000a02 c001      	RJMP _0x4003B
                 _0x4003A:
000a03 e010      	LDI  R17,LOW(0)
                 _0x4003B:
000a04 931a      	ST   -Y,R17
000a05 e0e3      	LDI  R30,LOW(3)
000a06 93ea      	ST   -Y,R30
000a07 e0a1      	LDI  R26,LOW(1)
000a08 df59      	RCALL _BUT_Check_G002
                 ; 0002 0191 #endif
                 ; 0002 0192 
                 ; 0002 0193 #ifdef BUT_4_ID
                 ; 0002 0194   CheckOneBut_m(BUT_4_ID, BUT_4_PINX, BUT_4_PIN, BUT_4_LEV, BUT_4_EVENT, state);
000a09 99cd      	SBIC 0x19,5
000a0a c002      	RJMP _0x4003C
000a0b e011      	LDI  R17,LOW(1)
000a0c c001      	RJMP _0x4003D
                 _0x4003C:
000a0d e010      	LDI  R17,LOW(0)
                 _0x4003D:
000a0e 931a      	ST   -Y,R17
000a0f e0e4      	LDI  R30,LOW(4)
000a10 93ea      	ST   -Y,R30
000a11 e0a1      	LDI  R26,LOW(1)
000a12 df4f      	RCALL _BUT_Check_G002
                 ; 0002 0195 #endif
                 ; 0002 0196 
                 ; 0002 0197 #ifdef BUT_5_ID
                 ; 0002 0198   CheckOneBut_m(BUT_5_ID, BUT_5_PINX, BUT_5_PIN, BUT_5_LEV, BUT_5_EVENT, state);
                 ; 0002 0199 #endif
                 ; 0002 019A 
                 ; 0002 019B #ifdef BUT_6_ID
                 ; 0002 019C   CheckOneBut_m(BUT_6_ID, BUT_6_PINX, BUT_6_PIN, BUT_6_LEV, BUT_6_EVENT, state);
                 ; 0002 019D #endif
                 ; 0002 019E 
                 ; 0002 019F #ifdef BUT_7_ID
                 ; 0002 01A0   CheckOneBut_m(BUT_7_ID, BUT_7_PINX, BUT_7_PIN, BUT_7_LEV, BUT_7_EVENT, state);
                 ; 0002 01A1 #endif
                 ; 0002 01A2 
                 ; 0002 01A3 #ifdef BUT_8_ID
                 ; 0002 01A4   CheckOneBut_m(BUT_8_ID, BUT_8_PINX, BUT_8_PIN, BUT_8_LEV, BUT_8_EVENT, state);
                 ; 0002 01A5 #endif
                 ; 0002 01A6 
                 ; 0002 01A7 #ifdef BUT_9_ID
                 ; 0002 01A8   CheckOneBut_m(BUT_9_ID, BUT_9_PINX, BUT_9_PIN, BUT_9_LEV, BUT_9_EVENT, state);
                 ; 0002 01A9 #endif
                 ; 0002 01AA 
                 ; 0002 01AB #ifdef BUT_10_ID
                 ; 0002 01AC   CheckOneBut_m(BUT_10_ID, BUT_10_PINX, BUT_10_PIN, BUT_10_LEV, BUT_10_EVENT, state);
                 ; 0002 01AD #endif
                 ; 0002 01AE 
                 ; 0002 01AF #ifdef BUT_11_ID
                 ; 0002 01B0   CheckOneBut_m(BUT_11_ID, BUT_11_PINX, BUT_11_PIN, BUT_11_LEV, BUT_11_EVENT, state);
                 ; 0002 01B1 #endif
                 ; 0002 01B2 
                 ; 0002 01B3 #ifdef BUT_12_ID
                 ; 0002 01B4   CheckOneBut_m(BUT_12_ID, BUT_12_PINX, BUT_12_PIN, BUT_12_LEV, BUT_12_EVENT, state);
                 ; 0002 01B5 #endif
                 ; 0002 01B6 
                 ; 0002 01B7 #ifdef BUT_13_ID
                 ; 0002 01B8   CheckOneBut_m(BUT_13_ID, BUT_13_PINX, BUT_13_PIN, BUT_13_LEV, BUT_13_EVENT, state);
                 ; 0002 01B9 #endif
                 ; 0002 01BA 
                 ; 0002 01BB #ifdef BUT_14_ID
                 ; 0002 01BC   CheckOneBut_m(BUT_14_ID, BUT_14_PINX, BUT_14_PIN, BUT_14_LEV, BUT_14_EVENT, state);
                 ; 0002 01BD #endif
                 ; 0002 01BE 
                 ; 0002 01BF #ifdef BUT_15_ID
                 ; 0002 01C0   CheckOneBut_m(BUT_15_ID, BUT_15_PINX, BUT_15_PIN, BUT_15_LEV, BUT_15_EVENT, state);
                 ; 0002 01C1 #endif
                 ; 0002 01C2 
                 ; 0002 01C3 #ifdef BUT_16_ID
                 ; 0002 01C4   CheckOneBut_m(BUT_16_ID, BUT_16_PINX, BUT_16_PIN, BUT_16_LEV, BUT_16_EVENT, state);
                 ; 0002 01C5 #endif
                 ; 0002 01C6 
                 ; 0002 01C7 #ifdef BUT_17_ID
                 ; 0002 01C8   CheckOneBut_m(BUT_17_ID, BUT_17_PINX, BUT_17_PIN, BUT_17_LEV, BUT_17_EVENT, state);
                 ; 0002 01C9 #endif
                 ; 0002 01CA 
                 ; 0002 01CB #ifdef BUT_18_ID
                 ; 0002 01CC   CheckOneBut_m(BUT_18_ID, BUT_18_PINX, BUT_18_PIN, BUT_18_LEV, BUT_18_EVENT, state);
                 ; 0002 01CD #endif
                 ; 0002 01CE 
                 ; 0002 01CF #ifdef BUT_19_ID
                 ; 0002 01D0   CheckOneBut_m(BUT_19_ID, BUT_19_PINX, BUT_19_PIN, BUT_19_LEV, BUT_19_EVENT, state);
                 ; 0002 01D1 #endif
                 ; 0002 01D2 
                 ; 0002 01D3 #ifdef BUT_20_ID
                 ; 0002 01D4   CheckOneBut_m(BUT_20_ID, BUT_20_PINX, BUT_20_PIN, BUT_20_LEV, BUT_20_EVENT, state);
                 ; 0002 01D5 #endif
                 ; 0002 01D6 
                 ; 0002 01D7 #ifdef BUT_21_ID
                 ; 0002 01D8   CheckOneBut_m(BUT_21_ID, BUT_21_PINX, BUT_21_PIN, BUT_21_LEV, BUT_21_EVENT, state);
                 ; 0002 01D9 #endif
                 ; 0002 01DA 
                 ; 0002 01DB #ifdef BUT_22_ID
                 ; 0002 01DC   CheckOneBut_m(BUT_22_ID, BUT_22_PINX, BUT_22_PIN, BUT_22_LEV, BUT_22_EVENT, state);
                 ; 0002 01DD #endif
                 ; 0002 01DE 
                 ; 0002 01DF #ifdef BUT_23_ID
                 ; 0002 01E0   CheckOneBut_m(BUT_23_ID, BUT_23_PINX, BUT_23_PIN, BUT_23_LEV, BUT_23_EVENT, state);
                 ; 0002 01E1 #endif
                 ; 0002 01E2 
                 ; 0002 01E3 #ifdef BUT_24_ID
                 ; 0002 01E4   CheckOneBut_m(BUT_24_ID, BUT_24_PINX, BUT_24_PIN, BUT_24_LEV, BUT_24_EVENT, state);
                 ; 0002 01E5 #endif
                 ; 0002 01E6 
                 ; 0002 01E7 #ifdef BUT_25_ID
                 ; 0002 01E8   CheckOneBut_m(BUT_25_ID, BUT_25_PINX, BUT_25_PIN, BUT_25_LEV, BUT_25_EVENT, state);
                 ; 0002 01E9 #endif
                 ; 0002 01EA 
                 ; 0002 01EB #ifdef BUT_26_ID
                 ; 0002 01EC   CheckOneBut_m(BUT_26_ID, BUT_26_PINX, BUT_26_PIN, BUT_26_LEV, BUT_26_EVENT, state);
                 ; 0002 01ED #endif
                 ; 0002 01EE 
                 ; 0002 01EF #ifdef BUT_27_ID
                 ; 0002 01F0   CheckOneBut_m(BUT_27_ID, BUT_27_PINX, BUT_27_PIN, BUT_27_LEV, BUT_27_EVENT, state);
                 ; 0002 01F1 #endif
                 ; 0002 01F2 
                 ; 0002 01F3 #ifdef BUT_28_ID
                 ; 0002 01F4   CheckOneBut_m(BUT_28_ID, BUT_28_PINX, BUT_28_PIN, BUT_28_LEV, BUT_28_EVENT, state);
                 ; 0002 01F5 #endif
                 ; 0002 01F6 
                 ; 0002 01F7 #ifdef BUT_29_ID
                 ; 0002 01F8   CheckOneBut_m(BUT_29_ID, BUT_29_PINX, BUT_29_PIN, BUT_29_LEV, BUT_29_EVENT, state);
                 ; 0002 01F9 #endif
                 ; 0002 01FA 
                 ; 0002 01FB #ifdef BUT_30_ID
                 ; 0002 01FC   CheckOneBut_m(BUT_30_ID, BUT_30_PINX, BUT_30_PIN, BUT_30_LEV, BUT_30_EVENT, state);
                 ; 0002 01FD #endif
                 ; 0002 01FE 
                 ; 0002 01FF #ifdef BUT_31_ID
                 ; 0002 0200   CheckOneBut_m(BUT_31_ID, BUT_31_PINX, BUT_31_PIN, BUT_31_LEV, BUT_31_EVENT, state);
                 ; 0002 0201 #endif
                 ; 0002 0202 
                 ; 0002 0203 #ifdef BUT_32_ID
                 ; 0002 0204   CheckOneBut_m(BUT_32_ID, BUT_32_PINX, BUT_32_PIN, BUT_32_LEV, BUT_32_EVENT, state);
                 ; 0002 0205 #endif
                 ; 0002 0206 
                 ; 0002 0207    End_m();
                 ; 0002 0208 
                 ; 0002 0209 #if (BUT_POLL_ROTATION > 0)
                 ; 0002 020A    i++;
                 ; 0002 020B    if (i >= BUT_AMOUNT){
                 ; 0002 020C      i = 0;
                 ; 0002 020D    }
                 ; 0002 020E #endif
                 ; 0002 020F 
                 ; 0002 0210 }
000a13 c01c      	RJMP _0x20A0017
                 ;
                 ;
                 ;#include <circlebuffer.h>
                 ;#include <handlers.h>
                 ;
                 ;// 
                 ;static volatile unsigned char cycleBuf[SIZE_BUF];
                 ;static unsigned char tailBuf = 0;
                 ;static unsigned char headBuf = 0;
                 ;static volatile unsigned char countBuf = 0;
                 ;
                 ;
                 ;//     
                 ;unsigned char ES_GetCount(void)
                 ; 0003 000E {
                 
                 	.CSEG
                 ; 0003 000F   return countBuf;
                 ; 0003 0010 }
                 ;
                 ;//"" 
                 ;void ES_FlushBuf(void)
                 ; 0003 0014 {
                 ; 0003 0015   tailBuf = 0;
                 ; 0003 0016   headBuf = 0;
                 ; 0003 0017   countBuf = 0;
                 ; 0003 0018 }
                 ;
                 ;// 
                 ;unsigned char ES_GetEvent(void)
                 ; 0003 001C {
                 _ES_GetEvent:
                 ; 0003 001D   unsigned char event;
                 ; 0003 001E   if (countBuf > 0){                    //    
000a14 931a      	ST   -Y,R17
                 ;	event -> R17
000a15 91a0 0ec8 	LDS  R26,_countBuf_G003
000a17 30a1      	CPI  R26,LOW(0x1)
000a18 f0b0      	BRLO _0x60003
                 ; 0003 001F     event = cycleBuf[headBuf];          //   
000a19 940e 1ef5 	CALL SUBOPT_0x11
000a1b 8110      	LD   R17,Z
                 ; 0003 0020     countBuf--;                         // 
000a1c 91e0 0ec8 	LDS  R30,_countBuf_G003
000a1e 50e1      	SUBI R30,LOW(1)
000a1f 93e0 0ec8 	STS  _countBuf_G003,R30
                 ; 0003 0021     headBuf++;                          //   
000a21 91e0 0ec7 	LDS  R30,_headBuf_G003
000a23 5fef      	SUBI R30,-LOW(1)
000a24 93e0 0ec7 	STS  _headBuf_G003,R30
                 ; 0003 0022     if (headBuf == SIZE_BUF) headBuf = 0;
000a26 91a0 0ec7 	LDS  R26,_headBuf_G003
000a28 32a0      	CPI  R26,LOW(0x20)
000a29 f419      	BRNE _0x60004
000a2a e0e0      	LDI  R30,LOW(0)
000a2b 93e0 0ec7 	STS  _headBuf_G003,R30
                 ; 0003 0023     return event;                         // 
                 _0x60004:
000a2d 2fe1      	MOV  R30,R17
000a2e c001      	RJMP _0x20A0017
                 ; 0003 0024   }
                 ; 0003 0025   return 0;
                 _0x60003:
000a2f e0e0      	LDI  R30,LOW(0)
                 _0x20A0017:
000a30 9119      	LD   R17,Y+
000a31 9508      	RET
                 ; 0003 0026 }
                 ;
                 ;// 
                 ;void ES_PlaceEvent(unsigned char event)
                 ; 0003 002A {
                 _ES_PlaceEvent:
                 ; 0003 002B   if (countBuf < SIZE_BUF){                    //     
000a32 93aa      	ST   -Y,R26
                 ;	event -> Y+0
000a33 91a0 0ec8 	LDS  R26,_countBuf_G003
000a35 32a0      	CPI  R26,LOW(0x20)
000a36 f4c0      	BRSH _0x60005
                 ; 0003 002C       cycleBuf[tailBuf] = event;               //   
000a37 91e0 0ec6 	LDS  R30,_tailBuf_G003
000a39 e0f0      	LDI  R31,0
000a3a 55ea      	SUBI R30,LOW(-_cycleBuf_G003)
000a3b 4ff1      	SBCI R31,HIGH(-_cycleBuf_G003)
000a3c 81a8      	LD   R26,Y
000a3d 83a0      	STD  Z+0,R26
                 ; 0003 002D       tailBuf++;                               //   
000a3e 91e0 0ec6 	LDS  R30,_tailBuf_G003
000a40 5fef      	SUBI R30,-LOW(1)
000a41 93e0 0ec6 	STS  _tailBuf_G003,R30
                 ; 0003 002E       if (tailBuf == SIZE_BUF) tailBuf = 0;
000a43 91a0 0ec6 	LDS  R26,_tailBuf_G003
000a45 32a0      	CPI  R26,LOW(0x20)
000a46 f419      	BRNE _0x60006
000a47 e0e0      	LDI  R30,LOW(0)
000a48 93e0 0ec6 	STS  _tailBuf_G003,R30
                 ; 0003 002F       countBuf++;                              // 
                 _0x60006:
000a4a 91e0 0ec8 	LDS  R30,_countBuf_G003
000a4c 5fef      	SUBI R30,-LOW(1)
000a4d 93e0 0ec8 	STS  _countBuf_G003,R30
                 ; 0003 0030   }
                 ; 0003 0031 }
                 _0x60005:
000a4f c019      	RJMP _0x20A0016
                 ;
                 ;void ES_PlaceHeadEvent(unsigned char event)
                 ; 0003 0034 {
                 _ES_PlaceHeadEvent:
                 ; 0003 0035   if (countBuf < SIZE_BUF){                    //     
000a50 93aa      	ST   -Y,R26
                 ;	event -> Y+0
000a51 91a0 0ec8 	LDS  R26,_countBuf_G003
000a53 32a0      	CPI  R26,LOW(0x20)
000a54 f4a0      	BRSH _0x60007
                 ; 0003 0036       if (headBuf == 0){
000a55 91e0 0ec7 	LDS  R30,_headBuf_G003
000a57 30e0      	CPI  R30,0
000a58 f411      	BRNE _0x60008
                 ; 0003 0037         headBuf = SIZE_BUF - 1;
000a59 e1ef      	LDI  R30,LOW(31)
000a5a c003      	RJMP _0x6000B
                 ; 0003 0038       }else {
                 _0x60008:
                 ; 0003 0039         headBuf --;
000a5b 91e0 0ec7 	LDS  R30,_headBuf_G003
000a5d 50e1      	SUBI R30,LOW(1)
                 _0x6000B:
000a5e 93e0 0ec7 	STS  _headBuf_G003,R30
                 ; 0003 003A       }
                 ; 0003 003B       cycleBuf[headBuf] = event;               //    
000a60 940e 1ef5 	CALL SUBOPT_0x11
000a62 81a8      	LD   R26,Y
000a63 83a0      	STD  Z+0,R26
                 ; 0003 003C       countBuf++;                              // 
000a64 91e0 0ec8 	LDS  R30,_countBuf_G003
000a66 5fef      	SUBI R30,-LOW(1)
000a67 93e0 0ec8 	STS  _countBuf_G003,R30
                 ; 0003 003D   }
                 ; 0003 003E }
                 _0x60007:
                 _0x20A0016:
000a69 9621      	ADIW R28,1
000a6a 9508      	RET
                 ;
                 ;//   -
                 ;void (*FuncAr[])(void) =
                 ;{
                 ;  HandlerEventButUp,
                 ;  HandlerEventButDown,
                 ;  HandlerEventButEnter,
                 ;  HandlerEventButEsc,
                 ;  HandlerEventTimer_1s,
                 ;  HandlerEventTimer_250ms,
                 ;  HandlerEventTimer_10ms,
                 ;  HandlerEventButLUp,
                 ;  HandlerEventButLDown,
                 ;  HandlerEventTimer_10s,
                 ;  HandlerEventTimer_1Hz
                 ;};
                 
                 	.DSEG
                 ;
                 ;//++++++++++++++++++++++++++++++++++++++++++
                 ;void ES_Dispatch(unsigned char event)
                 ; 0003 0052 {
                 
                 	.CSEG
                 _ES_Dispatch:
                 ; 0003 0053   void (*pFunc)(void);
                 ; 0003 0054   pFunc = FuncAr[event-1];
000a6b 93aa      	ST   -Y,R26
000a6c 931a      	ST   -Y,R17
000a6d 930a      	ST   -Y,R16
                 ;	event -> Y+2
                 ;	*pFunc -> R16,R17
000a6e 81ea      	LDD  R30,Y+2
000a6f e0f0      	LDI  R31,0
000a70 9731      	SBIW R30,1
000a71 eca9      	LDI  R26,LOW(_FuncAr)
000a72 e0be      	LDI  R27,HIGH(_FuncAr)
000a73 0fee      	LSL  R30
000a74 1fff      	ROL  R31
000a75 0fae      	ADD  R26,R30
000a76 1fbf      	ADC  R27,R31
000a77 910d      	LD   R16,X+
000a78 911c      	LD   R17,X
                 ; 0003 0055   pFunc();
000a79 01f8      	MOVW R30,R16
000a7a 9509      	ICALL
                 ; 0003 0056 }
000a7b 8119      	LDD  R17,Y+1
000a7c 8108      	LDD  R16,Y+0
                 _0x20A0015:
000a7d 9623      	ADIW R28,3
000a7e 9508      	RET
                 ;#include <handlers.h>
                 ;#include <circlebuffer.h>
                 ;#include <nokia1100_lcd_lib.h>
                 	#ifndef __SLEEP_DEFINED__
                 	#endif
                 ;#include <buttons.h>
                 ;#include <stdio.h>
                 ;#include <menu.h>
                 ;#include <settings.h>
                 ;#include <general.h>
                 ;#include <hwinit.h>
                 ;
                 ;#include <OWIPolled.h>
                 ;#include <OWIHighLevelFunctions.h>
                 ;#include <OWIBitFunctions.h>
                 ;#include <OWIcrc.h>
                 ;#include <stdlib.h>
                 ;
                 ;extern OWI_device ds1820_rom_codes[MAX_DS1820];
                 ;extern OWI_device t_rom_codes[MAX_DS1820];
                 ;
                 ;char buf[20]; //17
                 ;float t_kuba, t_kolona_down, t_kolona_up;
                 ;float t_kuba_old, t_kolona_down_old, t_kolona_up_old;
                 ;#ifdef HW1_P
                 ;float p_kolona;
                 ;#endif
                 ;float headDisp;
                 ;float t_kuba_avg, t_kuba_sum;
                 ;char t_kuba_count;
                 ;char abortProcess = 0;
                 ;char startStop = 0;
                 ;char pressureOver = 0;
                 ;char timerOn = 0;
                 ;char timerSignOn = 0;
                 ;unsigned int timer = 0;
                 ;unsigned int timer_off = 0;
                 ;unsigned int timerSign = 0;
                 ;unsigned int impulseCounterCalibrate;
                 ;unsigned char mode = MENU;
                 
                 	.DSEG
                 ;float Votb;
                 ;unsigned int ssCounter = 0;
                 ;unsigned char ssTrig = 0;
                 ;unsigned char distSettingMode = DIST_SET_MODE_PWR;
                 ;unsigned char distValveMode = DIST_VLV_MODE_CLS;
                 ;
                 ;flash unsigned char valve_cls_lbs[] = {""};
                 ;flash unsigned char valve_reg_lbs[] = {""};
                 ;flash unsigned char valve_opn_lbs[] = {""};
                 ;flash unsigned char * flash valve_lbs[3] = {valve_cls_lbs, valve_reg_lbs, valve_opn_lbs};
                 ;
                 ;void CalculateDistBodySpeed();
                 ;
                 ;//*****************************************************************************
                 ;//    
                 ;//*****************************************************************************
                 ;void RunDistilation(){
                 ; 0004 0037 void RunDistilation(){
                 
                 	.CSEG
                 _RunDistilation:
                 ; 0004 0038     nlcd_Clear();
000a7f 940e 083c 	CALL _nlcd_Clear
                 ; 0004 0039     if ((t_rom_codes[0].id[0] == 0xFF) || (t_rom_codes[0].id[0] == 0x00)) {
000a81 91a0 0b14 	LDS  R26,_t_rom_codes
000a83 3faf      	CPI  R26,LOW(0xFF)
000a84 f011      	BREQ _0x80005
000a85 30a0      	CPI  R26,LOW(0x0)
000a86 f469      	BRNE _0x80004
                 _0x80005:
                 ; 0004 003A         nlcd_GotoXY(0,0);
000a87 940e 1e9f 	CALL SUBOPT_0x2
                 ; 0004 003B         nlcd_PrintF(" ");
                +
000a89 eaa2     +LDI R26 , LOW ( _0x80007 + ( 0 ) )
000a8a e0b5     +LDI R27 , HIGH ( _0x80007 + ( 0 ) )
                 	__POINTW2MN _0x80007,0
000a8b 940e 08e9 	CALL _nlcd_PrintF
                 ; 0004 003C         nlcd_PrintF("       ");
                +
000a8d eba2     +LDI R26 , LOW ( _0x80007 + ( 16 ) )
000a8e e0b5     +LDI R27 , HIGH ( _0x80007 + ( 16 ) )
                 	__POINTW2MN _0x80007,16
000a8f 940e 08e9 	CALL _nlcd_PrintF
                 ; 0004 003D         nlcd_PrintF("    t !    ");
                +
000a91 eca2     +LDI R26 , LOW ( _0x80007 + ( 32 ) )
000a92 e0b5     +LDI R27 , HIGH ( _0x80007 + ( 32 ) )
                 	__POINTW2MN _0x80007,32
000a93 c199      	RJMP _0x20A0014
                 ; 0004 003E         delay_ms(5000);
                 ; 0004 003F         nlcd_Clear();
                 ; 0004 0040         print_menu();
                 ; 0004 0041         return;
                 ; 0004 0042     }
                 ; 0004 0043      // t  
                 ; 0004 0044     if ((t_rom_codes[2].id[0] == 0xFF) || (t_rom_codes[2].id[0] == 0x00)) {
                 _0x80004:
                +
000a94 91a0 0b24+LDS R26 , _t_rom_codes + ( 16 )
                 	__GETB2MN _t_rom_codes,16
000a96 3faf      	CPI  R26,LOW(0xFF)
000a97 f021      	BREQ _0x80009
                +
000a98 91a0 0b24+LDS R26 , _t_rom_codes + ( 16 )
                 	__GETB2MN _t_rom_codes,16
000a9a 30a0      	CPI  R26,LOW(0x0)
000a9b f469      	BRNE _0x80008
                 _0x80009:
                 ; 0004 0045         nlcd_GotoXY(0,0);
000a9c 940e 1e9f 	CALL SUBOPT_0x2
                 ; 0004 0046         nlcd_PrintF(" ");
                +
000a9e eda2     +LDI R26 , LOW ( _0x80007 + ( 48 ) )
000a9f e0b5     +LDI R27 , HIGH ( _0x80007 + ( 48 ) )
                 	__POINTW2MN _0x80007,48
000aa0 940e 08e9 	CALL _nlcd_PrintF
                 ; 0004 0047         nlcd_PrintF("       ");
                +
000aa2 eea2     +LDI R26 , LOW ( _0x80007 + ( 64 ) )
000aa3 e0b5     +LDI R27 , HIGH ( _0x80007 + ( 64 ) )
                 	__POINTW2MN _0x80007,64
000aa4 940e 08e9 	CALL _nlcd_PrintF
                 ; 0004 0048         nlcd_PrintF("t  ! ");
                +
000aa6 efa2     +LDI R26 , LOW ( _0x80007 + ( 80 ) )
000aa7 e0b5     +LDI R27 , HIGH ( _0x80007 + ( 80 ) )
                 	__POINTW2MN _0x80007,80
000aa8 c184      	RJMP _0x20A0014
                 ; 0004 0049         delay_ms(5000);
                 ; 0004 004A         nlcd_Clear();
                 ; 0004 004B         print_menu();
                 ; 0004 004C         return;
                 ; 0004 004D     }
                 ; 0004 004E 
                 ; 0004 004F     OWI_SearchDevices(ds1820_rom_codes, MAX_DS1820, BUS, &ds1820_devices);
                 _0x80008:
000aa9 940e 1eaf 	CALL SUBOPT_0x5
                 ; 0004 0050     if (ds1820_devices < 2) { // < 3
000aab 91a0 0a27 	LDS  R26,_ds1820_devices
000aad 30a2      	CPI  R26,LOW(0x2)
000aae f488      	BRSH _0x8000B
                 ; 0004 0051         nlcd_GotoXY(0,0);
000aaf 940e 1e9f 	CALL SUBOPT_0x2
                 ; 0004 0052         nlcd_PrintF("   ");
                +
000ab1 e0a2     +LDI R26 , LOW ( _0x80007 + ( 96 ) )
000ab2 e0b6     +LDI R27 , HIGH ( _0x80007 + ( 96 ) )
                 	__POINTW2MN _0x80007,96
000ab3 940e 08e9 	CALL _nlcd_PrintF
                 ; 0004 0053         nlcd_PrintF("     ");
                +
000ab5 e1a2     +LDI R26 , LOW ( _0x80007 + ( 112 ) )
000ab6 e0b6     +LDI R27 , HIGH ( _0x80007 + ( 112 ) )
                 	__POINTW2MN _0x80007,112
000ab7 940e 08e9 	CALL _nlcd_PrintF
                 ; 0004 0054         nlcd_PrintF("   ");
                +
000ab9 e2a2     +LDI R26 , LOW ( _0x80007 + ( 128 ) )
000aba e0b6     +LDI R27 , HIGH ( _0x80007 + ( 128 ) )
                 	__POINTW2MN _0x80007,128
000abb 940e 08e9 	CALL _nlcd_PrintF
                 ; 0004 0055         nlcd_PrintF("  !");
                +
000abd e3a2     +LDI R26 , LOW ( _0x80007 + ( 144 ) )
000abe e0b6     +LDI R27 , HIGH ( _0x80007 + ( 144 ) )
                 	__POINTW2MN _0x80007,144
000abf c16d      	RJMP _0x20A0014
                 ; 0004 0056         delay_ms(5000);
                 ; 0004 0057         nlcd_Clear();
                 ; 0004 0058         print_menu();
                 ; 0004 0059         return;
                 ; 0004 005A     }
                 ; 0004 005B     /*
                 ; 0004 005C     if (ds1820_devices == 0) {
                 ; 0004 005D         nlcd_GotoXY(0,0);
                 ; 0004 005E         nlcd_PrintF(" ");
                 ; 0004 005F         nlcd_PrintF("  !!!");
                 ; 0004 0060         delay_ms(5000);
                 ; 0004 0061         nlcd_Clear();
                 ; 0004 0062         print_menu();
                 ; 0004 0063         return;
                 ; 0004 0064     }
                 ; 0004 0065      */
                 ; 0004 0066     if (InitSensor(t_rom_codes[0].id, BUS, 25, 35, DS18B20_11BIT_RES)) {
                 _0x8000B:
000ac0 940e 1efb 	CALL SUBOPT_0x12
000ac2 f069      	BREQ _0x8000C
                 ; 0004 0067         nlcd_GotoXY(0,0);
000ac3 940e 1e9f 	CALL SUBOPT_0x2
                 ; 0004 0068         nlcd_PrintF("       ");
                +
000ac5 e4a2     +LDI R26 , LOW ( _0x80007 + ( 160 ) )
000ac6 e0b6     +LDI R27 , HIGH ( _0x80007 + ( 160 ) )
                 	__POINTW2MN _0x80007,160
000ac7 940e 08e9 	CALL _nlcd_PrintF
                 ; 0004 0069         nlcd_PrintF("         ");
                +
000ac9 e5a2     +LDI R26 , LOW ( _0x80007 + ( 176 ) )
000aca e0b6     +LDI R27 , HIGH ( _0x80007 + ( 176 ) )
                 	__POINTW2MN _0x80007,176
000acb 940e 08e9 	CALL _nlcd_PrintF
                 ; 0004 006A         nlcd_PrintF("    t !    ");
                +
000acd e6a2     +LDI R26 , LOW ( _0x80007 + ( 192 ) )
000ace e0b6     +LDI R27 , HIGH ( _0x80007 + ( 192 ) )
                 	__POINTW2MN _0x80007,192
000acf c15d      	RJMP _0x20A0014
                 ; 0004 006B         delay_ms(5000);
                 ; 0004 006C         nlcd_Clear();
                 ; 0004 006D         print_menu();
                 ; 0004 006E         return;
                 ; 0004 006F     }
                 ; 0004 0070 
                 ; 0004 0071     if (InitSensor(t_rom_codes[1].id, BUS, 25, 35, DS18B20_11BIT_RES)) {
                 _0x8000C:
000ad0 940e 1f0a 	CALL SUBOPT_0x13
000ad2 f069      	BREQ _0x8000D
                 ; 0004 0072         nlcd_GotoXY(0,0);
000ad3 940e 1e9f 	CALL SUBOPT_0x2
                 ; 0004 0073         nlcd_PrintF("        ");
                +
000ad5 e7a2     +LDI R26 , LOW ( _0x80007 + ( 208 ) )
000ad6 e0b6     +LDI R27 , HIGH ( _0x80007 + ( 208 ) )
                 	__POINTW2MN _0x80007,208
000ad7 940e 08e9 	CALL _nlcd_PrintF
                 ; 0004 0074         nlcd_PrintF("          ");
                +
000ad9 e8a3     +LDI R26 , LOW ( _0x80007 + ( 225 ) )
000ada e0b6     +LDI R27 , HIGH ( _0x80007 + ( 225 ) )
                 	__POINTW2MN _0x80007,225
000adb 940e 08e9 	CALL _nlcd_PrintF
                 ; 0004 0075         nlcd_PrintF(" t  ! ");
                +
000add e9a4     +LDI R26 , LOW ( _0x80007 + ( 242 ) )
000ade e0b6     +LDI R27 , HIGH ( _0x80007 + ( 242 ) )
                 	__POINTW2MN _0x80007,242
000adf c14d      	RJMP _0x20A0014
                 ; 0004 0076         delay_ms(5000);
                 ; 0004 0077         nlcd_Clear();
                 ; 0004 0078         print_menu();
                 ; 0004 0079         return;
                 ; 0004 007A     }
                 ; 0004 007B 
                 ; 0004 007C    // if (!InitSensor(t_rom_codes[0].id, BUS, 25, 35, DS18B20_11BIT_RES)) {
                 ; 0004 007D         sec = 0;
                 _0x8000D:
000ae0 940e 1f19 	CALL SUBOPT_0x14
                 ; 0004 007E         minutes = 0;
                 ; 0004 007F         hours = 0;
                 ; 0004 0080         Votb = 1200.0; //  /
                +
000ae2 e0e0     +LDI R30 , LOW ( 0x44960000 )
000ae3 e0f0     +LDI R31 , HIGH ( 0x44960000 )
000ae4 e966     +LDI R22 , BYTE3 ( 0x44960000 )
000ae5 e474     +LDI R23 , BYTE4 ( 0x44960000 )
                 	__GETD1N 0x44960000
000ae6 940e 1f21 	CALL SUBOPT_0x15
                 ; 0004 0081         CalculateDistBodySpeed();
000ae8 d287      	RCALL _CalculateDistBodySpeed
                 ; 0004 0082         heater_power = dis_p_ten;
000ae9 91e0 0a3c 	LDS  R30,_dis_p_ten
000aeb 93e0 0a2b 	STS  _heater_power,R30
                 ; 0004 0083         VALVE_CLS;
000aed 98db      	CBI  0x1B,3
                 ; 0004 0084         mode = RUN_DIST;
000aee e0e4      	LDI  R30,LOW(4)
000aef c154      	RJMP _0x20A0013
                 ; 0004 0085    /* } else {
                 ; 0004 0086         nlcd_GotoXY(0,0);
                 ; 0004 0087         nlcd_PrintF("   ");
                 ; 0004 0088         nlcd_PrintF("  !!!");
                 ; 0004 0089         delay_ms(5000);
                 ; 0004 008A         nlcd_Clear();
                 ; 0004 008B         print_menu();
                 ; 0004 008C     }   */
                 ; 0004 008D 
                 ; 0004 008E }
                 
                 	.DSEG
                 _0x80007:
0005a2           	.BYTE 0x103
                 ;
                 ;void ViewDistilation(){
                 ; 0004 0090 void ViewDistilation(){
                 
                 	.CSEG
                 _ViewDistilation:
                 ; 0004 0091 unsigned char tkuba_c[2] = {" "};
                 ; 0004 0092 unsigned char tkol_up_c[2] = {" "};
                 ; 0004 0093 unsigned char tmp[3];
                 ; 0004 0094    if (abortProcess) {
000af0 9727      	SBIW R28,7
000af1 e2e0      	LDI  R30,LOW(32)
000af2 83eb      	STD  Y+3,R30
000af3 e0e0      	LDI  R30,LOW(0)
000af4 83ec      	STD  Y+4,R30
000af5 e2e0      	LDI  R30,LOW(32)
000af6 83ed      	STD  Y+5,R30
000af7 e0e0      	LDI  R30,LOW(0)
000af8 83ee      	STD  Y+6,R30
                 ;	tkuba_c -> Y+5
                 ;	tkol_up_c -> Y+3
                 ;	tmp -> Y+0
000af9 91e0 0a20 	LDS  R30,_abortProcess
000afb 30e0      	CPI  R30,0
000afc f0d9      	BREQ _0x8000E
                 ; 0004 0095       //nlcd_Clear();
                 ; 0004 0096       nlcd_GotoXY(0,1);
000afd 940e 1f2a 	CALL SUBOPT_0x16
                 ; 0004 0097       nlcd_PrintF("      ");
                +
000aff eaa5     +LDI R26 , LOW ( _0x8000F + ( 0 ) )
000b00 e0b6     +LDI R27 , HIGH ( _0x8000F + ( 0 ) )
                 	__POINTW2MN _0x8000F,0
000b01 940e 08e9 	CALL _nlcd_PrintF
                 ; 0004 0098       nlcd_GotoXY(0,2);
000b03 940e 1ea4 	CALL SUBOPT_0x3
                 ; 0004 0099       nlcd_PrintF("");
                +
000b05 eba6     +LDI R26 , LOW ( _0x8000F + ( 17 ) )
000b06 e0b6     +LDI R27 , HIGH ( _0x8000F + ( 17 ) )
                 	__POINTW2MN _0x8000F,17
000b07 940e 1f2f 	CALL SUBOPT_0x17
                 ; 0004 009A       nlcd_GotoXY(0,3);
000b09 e0a3      	LDI  R26,LOW(3)
000b0a 940e 090f 	CALL _nlcd_GotoXY
                 ; 0004 009B       nlcd_PrintF("?");
                +
000b0c ebaf     +LDI R26 , LOW ( _0x8000F + ( 26 ) )
000b0d e0b6     +LDI R27 , HIGH ( _0x8000F + ( 26 ) )
                 	__POINTW2MN _0x8000F,26
000b0e 940e 1f2f 	CALL SUBOPT_0x17
                 ; 0004 009C       nlcd_GotoXY(0,4);
000b10 e0a4      	LDI  R26,LOW(4)
000b11 940e 090f 	CALL _nlcd_GotoXY
                 ; 0004 009D       nlcd_PrintF("<ENT> <ESC>");
                +
000b13 eca8     +LDI R26 , LOW ( _0x8000F + ( 35 ) )
000b14 e0b6     +LDI R27 , HIGH ( _0x8000F + ( 35 ) )
                 	__POINTW2MN _0x8000F,35
000b15 940e 08e9 	CALL _nlcd_PrintF
                 ; 0004 009E    } else {
000b17 c084      	RJMP _0x80010
                 _0x8000E:
                 ; 0004 009F        if (t_kuba - t_kuba_old >= DELTA){ //  
000b18 940e 1f34 	CALL SUBOPT_0x18
000b1a 940e 1f49 	CALL SUBOPT_0x19
000b1c f010      	BRLO _0x80011
                 ; 0004 00A0         tkuba_c[0] = 30;   // up
000b1d e1ee      	LDI  R30,LOW(30)
000b1e c00b      	RJMP _0x80103
                 ; 0004 00A1       } else if (t_kuba - t_kuba_old <= -DELTA){  //  
                 _0x80011:
000b1f 940e 1f34 	CALL SUBOPT_0x18
000b21 940e 1f50 	CALL SUBOPT_0x1A
000b23 f019      	BREQ PC+4
000b24 f010      	BRCS PC+3
000b25 940c 0b29 	JMP  _0x80013
                 ; 0004 00A2         tkuba_c[0] = 31;   // down
000b27 e1ef      	LDI  R30,LOW(31)
000b28 c001      	RJMP _0x80103
                 ; 0004 00A3       } else {
                 _0x80013:
                 ; 0004 00A4         tkuba_c[0] = ' ';
000b29 e2e0      	LDI  R30,LOW(32)
                 _0x80103:
000b2a 83ed      	STD  Y+5,R30
                 ; 0004 00A5       }
                 ; 0004 00A6 
                 ; 0004 00A7       if (t_kolona_up - t_kolona_up_old >= DELTA){ //  
000b2b 940e 1f57 	CALL SUBOPT_0x1B
000b2d 940e 1f49 	CALL SUBOPT_0x19
000b2f f010      	BRLO _0x80015
                 ; 0004 00A8         tkol_up_c[0] = 30; // up
000b30 e1ee      	LDI  R30,LOW(30)
000b31 c00b      	RJMP _0x80104
                 ; 0004 00A9       } else if (t_kolona_up - t_kolona_up_old <= -DELTA){  //  
                 _0x80015:
000b32 940e 1f57 	CALL SUBOPT_0x1B
000b34 940e 1f50 	CALL SUBOPT_0x1A
000b36 f019      	BREQ PC+4
000b37 f010      	BRCS PC+3
000b38 940c 0b3c 	JMP  _0x80017
                 ; 0004 00AA         tkol_up_c[0] = 31;; // down
000b3a e1ef      	LDI  R30,LOW(31)
000b3b c001      	RJMP _0x80104
                 ; 0004 00AB       } else {
                 _0x80017:
                 ; 0004 00AC         tkol_up_c[0] = ' ';
000b3c e2e0      	LDI  R30,LOW(32)
                 _0x80104:
000b3d 83eb      	STD  Y+3,R30
                 ; 0004 00AD       }
                 ; 0004 00AE 
                 ; 0004 00AF       #ifdef P_SENS_ON
                 ; 0004 00B0         p_kolona = ((signed int)(read_adc(0)) - p_offset) * 4.88 / 7.511 / 13.5954348;
                 ; 0004 00B1       #endif
                 ; 0004 00B2 
                 ; 0004 00B3       nlcd_GotoXY(3,0);
000b3e e0e3      	LDI  R30,LOW(3)
000b3f 940e 1f6c 	CALL SUBOPT_0x1C
                 ; 0004 00B4       nlcd_PrintF("");
                +
000b41 eda9     +LDI R26 , LOW ( _0x8000F + ( 52 ) )
000b42 e0b6     +LDI R27 , HIGH ( _0x8000F + ( 52 ) )
                 	__POINTW2MN _0x8000F,52
000b43 940e 1f70 	CALL SUBOPT_0x1D
                 ; 0004 00B5       nlcd_GotoXY(1,2);
000b45 940e 1f75 	CALL SUBOPT_0x1E
                 ; 0004 00B6       sprintf(buf, ":%2i:%2i:%2i", hours, minutes, sec);
000b47 940e 1f7d 	CALL SUBOPT_0x1F
                 ; 0004 00B7       nlcd_Print(buf);
                 ; 0004 00B8       nlcd_GotoXY(1,3);
000b49 940e 1f9b 	CALL SUBOPT_0x20
                 ; 0004 00B9       sprintf(buf,"t  %-3.2f %s", t_kolona_up, tkol_up_c);
000b4b 940e 1fa5 	CALL SUBOPT_0x21
000b4d 01fe      	MOVW R30,R28
000b4e 963b      	ADIW R30,11
000b4f 940e 1fb4 	CALL SUBOPT_0x22
                 ; 0004 00BA       nlcd_Print(buf);
                 ; 0004 00BB       nlcd_GotoXY(1,4);
000b51 940e 1fbd 	CALL SUBOPT_0x23
                 ; 0004 00BC       sprintf(buf,"t  %-3.2f %s", t_kuba, tkuba_c);
000b53 01fe      	MOVW R30,R28
000b54 963d      	ADIW R30,13
000b55 940e 1fb4 	CALL SUBOPT_0x22
                 ; 0004 00BD       nlcd_Print(buf);
                 ; 0004 00BE       #ifdef P_SENS_ON
                 ; 0004 00BF           nlcd_GotoXY(1,5);
                 ; 0004 00C0           sprintf(buf, "P%+3.1f", p_kolona);
                 ; 0004 00C1           nlcd_Print(buf);
                 ; 0004 00C2       #endif
                 ; 0004 00C3       //------  
                 ; 0004 00C4       nlcd_GotoXY(0,6);
000b57 e0e0      	LDI  R30,LOW(0)
000b58 940e 1fd5 	CALL SUBOPT_0x24
                 ; 0004 00C5       strcpyf(tmp, valve_lbs[distValveMode]);
000b5a 91e0 0f0e 	LDS  R30,_distValveMode
000b5c ecae      	LDI  R26,LOW(_valve_lbs*2)
000b5d e0b3      	LDI  R27,HIGH(_valve_lbs*2)
000b5e 940e 1fdd 	CALL SUBOPT_0x25
                 ; 0004 00C6       sprintf(buf, "%c-%s %c%4.0f /",(distSettingMode == DIST_SET_MODE_VALV)?'>':' ',tmp,(distSettingMode == DIST_SET_MODE_FLOW)?'>':' ', Votb);
                +
000b60 e6e9     +LDI R30 , LOW ( 2 * _0x80000 + ( 327 ) )
000b61 e0f7     +LDI R31 , HIGH ( 2 * _0x80000 + ( 327 ) )
                 	__POINTW1FN _0x80000,327
000b62 93fa      	ST   -Y,R31
000b63 93ea      	ST   -Y,R30
000b64 91a0 0f0d 	LDS  R26,_distSettingMode
000b66 30a1      	CPI  R26,LOW(0x1)
000b67 f411      	BRNE _0x80019
000b68 e3ee      	LDI  R30,LOW(62)
000b69 c001      	RJMP _0x8001A
                 _0x80019:
000b6a e2e0      	LDI  R30,LOW(32)
                 _0x8001A:
000b6b 940e 1feb 	CALL SUBOPT_0x26
000b6d 940e 1ff1 	CALL SUBOPT_0x27
000b6f 91a0 0f0d 	LDS  R26,_distSettingMode
000b71 30a2      	CPI  R26,LOW(0x2)
000b72 f411      	BRNE _0x8001C
000b73 e3ee      	LDI  R30,LOW(62)
000b74 c001      	RJMP _0x8001D
                 _0x8001C:
000b75 e2e0      	LDI  R30,LOW(32)
                 _0x8001D:
000b76 940e 1feb 	CALL SUBOPT_0x26
000b78 940e 1ff8 	CALL SUBOPT_0x28
000b7a 940e 2681 	CALL __PUTPARD1
000b7c e180      	LDI  R24,16
000b7d 940e 1d47 	CALL _sprintf
000b7f 9664      	ADIW R28,20
                 ; 0004 00C7       nlcd_Print(buf);
000b80 940e 1ecd 	CALL SUBOPT_0x9
                 ; 0004 00C8       // 
                 ; 0004 00C9       nlcd_GotoXY(0,7);
000b82 e0e0      	LDI  R30,LOW(0)
000b83 93ea      	ST   -Y,R30
000b84 e0a7      	LDI  R26,LOW(7)
000b85 940e 2001 	CALL SUBOPT_0x29
                 ; 0004 00CA       sprintf(buf,"%c %3i%%", (distSettingMode == DIST_SET_MODE_PWR)?'>':' ', heater_power);
                +
000b87 e7ee     +LDI R30 , LOW ( 2 * _0x80000 + ( 348 ) )
000b88 e0f7     +LDI R31 , HIGH ( 2 * _0x80000 + ( 348 ) )
                 	__POINTW1FN _0x80000,348
000b89 93fa      	ST   -Y,R31
000b8a 93ea      	ST   -Y,R30
000b8b 91a0 0f0d 	LDS  R26,_distSettingMode
000b8d 30a0      	CPI  R26,LOW(0x0)
000b8e f411      	BRNE _0x8001F
000b8f e3ee      	LDI  R30,LOW(62)
000b90 c001      	RJMP _0x80020
                 _0x8001F:
000b91 e2e0      	LDI  R30,LOW(32)
                 _0x80020:
000b92 940e 1feb 	CALL SUBOPT_0x26
000b94 91e0 0a2b 	LDS  R30,_heater_power
000b96 940e 1feb 	CALL SUBOPT_0x26
000b98 940e 2008 	CALL SUBOPT_0x2A
                 ; 0004 00CB       nlcd_Print(buf);
000b9a 940e 1ecd 	CALL SUBOPT_0x9
                 ; 0004 00CC 
                 ; 0004 00CD     }
                 _0x80010:
                 ; 0004 00CE }
000b9c 9627      	ADIW R28,7
000b9d 9508      	RET
                 
                 	.DSEG
                 _0x8000F:
0006a5           	.BYTE 0x40
                 ;//*****************************************************************************
                 ;//    
                 ;//*****************************************************************************
                 ;void RunRectification(){
                 ; 0004 00D2 void RunRectification(){
                 
                 	.CSEG
                 _RunRectification:
                 ; 0004 00D3     nlcd_Clear();
000b9e 940e 083c 	CALL _nlcd_Clear
                 ; 0004 00D4     // t 
                 ; 0004 00D5     if ((t_rom_codes[0].id[0] == 0xFF) || (t_rom_codes[0].id[0] == 0x00)) {
000ba0 91a0 0b14 	LDS  R26,_t_rom_codes
000ba2 3faf      	CPI  R26,LOW(0xFF)
000ba3 f011      	BREQ _0x80023
000ba4 30a0      	CPI  R26,LOW(0x0)
000ba5 f469      	BRNE _0x80022
                 _0x80023:
                 ; 0004 00D6         nlcd_GotoXY(0,0);
000ba6 940e 1e9f 	CALL SUBOPT_0x2
                 ; 0004 00D7         nlcd_PrintF(" ");
                +
000ba8 eea5     +LDI R26 , LOW ( _0x80025 + ( 0 ) )
000ba9 e0b6     +LDI R27 , HIGH ( _0x80025 + ( 0 ) )
                 	__POINTW2MN _0x80025,0
000baa 940e 08e9 	CALL _nlcd_PrintF
                 ; 0004 00D8         nlcd_PrintF("       ");
                +
000bac efa5     +LDI R26 , LOW ( _0x80025 + ( 16 ) )
000bad e0b6     +LDI R27 , HIGH ( _0x80025 + ( 16 ) )
                 	__POINTW2MN _0x80025,16
000bae 940e 08e9 	CALL _nlcd_PrintF
                 ; 0004 00D9         nlcd_PrintF("    t !    ");
                +
000bb0 e0a5     +LDI R26 , LOW ( _0x80025 + ( 32 ) )
000bb1 e0b7     +LDI R27 , HIGH ( _0x80025 + ( 32 ) )
                 	__POINTW2MN _0x80025,32
000bb2 c07a      	RJMP _0x20A0014
                 ; 0004 00DA         delay_ms(5000);
                 ; 0004 00DB         nlcd_Clear();
                 ; 0004 00DC         print_menu();
                 ; 0004 00DD         return;
                 ; 0004 00DE     }
                 ; 0004 00DF     // t  
                 ; 0004 00E0     if ((t_rom_codes[1].id[0] == 0xFF) || (t_rom_codes[1].id[0] == 0x00)) {
                 _0x80022:
                +
000bb3 91a0 0b1c+LDS R26 , _t_rom_codes + ( 8 )
                 	__GETB2MN _t_rom_codes,8
000bb5 3faf      	CPI  R26,LOW(0xFF)
000bb6 f021      	BREQ _0x80027
                +
000bb7 91a0 0b1c+LDS R26 , _t_rom_codes + ( 8 )
                 	__GETB2MN _t_rom_codes,8
000bb9 30a0      	CPI  R26,LOW(0x0)
000bba f469      	BRNE _0x80026
                 _0x80027:
                 ; 0004 00E1         nlcd_GotoXY(0,0);
000bbb 940e 1e9f 	CALL SUBOPT_0x2
                 ; 0004 00E2         nlcd_PrintF(" ");
                +
000bbd e1a5     +LDI R26 , LOW ( _0x80025 + ( 48 ) )
000bbe e0b7     +LDI R27 , HIGH ( _0x80025 + ( 48 ) )
                 	__POINTW2MN _0x80025,48
000bbf 940e 08e9 	CALL _nlcd_PrintF
                 ; 0004 00E3         nlcd_PrintF("       ");
                +
000bc1 e2a5     +LDI R26 , LOW ( _0x80025 + ( 64 ) )
000bc2 e0b7     +LDI R27 , HIGH ( _0x80025 + ( 64 ) )
                 	__POINTW2MN _0x80025,64
000bc3 940e 08e9 	CALL _nlcd_PrintF
                 ; 0004 00E4         nlcd_PrintF(" t  ! ");
                +
000bc5 e3a5     +LDI R26 , LOW ( _0x80025 + ( 80 ) )
000bc6 e0b7     +LDI R27 , HIGH ( _0x80025 + ( 80 ) )
                 	__POINTW2MN _0x80025,80
000bc7 c065      	RJMP _0x20A0014
                 ; 0004 00E5         delay_ms(5000);
                 ; 0004 00E6         nlcd_Clear();
                 ; 0004 00E7         print_menu();
                 ; 0004 00E8         return;
                 ; 0004 00E9     }
                 ; 0004 00EA     // t  
                 ; 0004 00EB     if ((t_rom_codes[2].id[0] == 0xFF) || (t_rom_codes[2].id[0] == 0x00)) {
                 _0x80026:
                +
000bc8 91a0 0b24+LDS R26 , _t_rom_codes + ( 16 )
                 	__GETB2MN _t_rom_codes,16
000bca 3faf      	CPI  R26,LOW(0xFF)
000bcb f021      	BREQ _0x8002A
                +
000bcc 91a0 0b24+LDS R26 , _t_rom_codes + ( 16 )
                 	__GETB2MN _t_rom_codes,16
000bce 30a0      	CPI  R26,LOW(0x0)
000bcf f469      	BRNE _0x80029
                 _0x8002A:
                 ; 0004 00EC         nlcd_GotoXY(0,0);
000bd0 940e 1e9f 	CALL SUBOPT_0x2
                 ; 0004 00ED         nlcd_PrintF(" ");
                +
000bd2 e4a5     +LDI R26 , LOW ( _0x80025 + ( 96 ) )
000bd3 e0b7     +LDI R27 , HIGH ( _0x80025 + ( 96 ) )
                 	__POINTW2MN _0x80025,96
000bd4 940e 08e9 	CALL _nlcd_PrintF
                 ; 0004 00EE         nlcd_PrintF("       ");
                +
000bd6 e5a5     +LDI R26 , LOW ( _0x80025 + ( 112 ) )
000bd7 e0b7     +LDI R27 , HIGH ( _0x80025 + ( 112 ) )
                 	__POINTW2MN _0x80025,112
000bd8 940e 08e9 	CALL _nlcd_PrintF
                 ; 0004 00EF         nlcd_PrintF("t  ! ");
                +
000bda e6a5     +LDI R26 , LOW ( _0x80025 + ( 128 ) )
000bdb e0b7     +LDI R27 , HIGH ( _0x80025 + ( 128 ) )
                 	__POINTW2MN _0x80025,128
000bdc c050      	RJMP _0x20A0014
                 ; 0004 00F0         delay_ms(5000);
                 ; 0004 00F1         nlcd_Clear();
                 ; 0004 00F2         print_menu();
                 ; 0004 00F3         return;
                 ; 0004 00F4     }
                 ; 0004 00F5     OWI_SearchDevices(ds1820_rom_codes, MAX_DS1820, BUS, &ds1820_devices);
                 _0x80029:
000bdd 940e 1eaf 	CALL SUBOPT_0x5
                 ; 0004 00F6     if (ds1820_devices < 3) { // < 3
000bdf 91a0 0a27 	LDS  R26,_ds1820_devices
000be1 30a3      	CPI  R26,LOW(0x3)
000be2 f488      	BRSH _0x8002C
                 ; 0004 00F7         nlcd_GotoXY(0,0);
000be3 940e 1e9f 	CALL SUBOPT_0x2
                 ; 0004 00F8         nlcd_PrintF("   ");
                +
000be5 e7a5     +LDI R26 , LOW ( _0x80025 + ( 144 ) )
000be6 e0b7     +LDI R27 , HIGH ( _0x80025 + ( 144 ) )
                 	__POINTW2MN _0x80025,144
000be7 940e 08e9 	CALL _nlcd_PrintF
                 ; 0004 00F9         nlcd_PrintF("     ");
                +
000be9 e8a5     +LDI R26 , LOW ( _0x80025 + ( 160 ) )
000bea e0b7     +LDI R27 , HIGH ( _0x80025 + ( 160 ) )
                 	__POINTW2MN _0x80025,160
000beb 940e 08e9 	CALL _nlcd_PrintF
                 ; 0004 00FA         nlcd_PrintF("   ");
                +
000bed e9a5     +LDI R26 , LOW ( _0x80025 + ( 176 ) )
000bee e0b7     +LDI R27 , HIGH ( _0x80025 + ( 176 ) )
                 	__POINTW2MN _0x80025,176
000bef 940e 08e9 	CALL _nlcd_PrintF
                 ; 0004 00FB         nlcd_PrintF("  !");
                +
000bf1 eaa5     +LDI R26 , LOW ( _0x80025 + ( 192 ) )
000bf2 e0b7     +LDI R27 , HIGH ( _0x80025 + ( 192 ) )
                 	__POINTW2MN _0x80025,192
000bf3 c039      	RJMP _0x20A0014
                 ; 0004 00FC         delay_ms(5000);
                 ; 0004 00FD         nlcd_Clear();
                 ; 0004 00FE         print_menu();
                 ; 0004 00FF         return;
                 ; 0004 0100     }
                 ; 0004 0101 
                 ; 0004 0102     if (InitSensor(t_rom_codes[0].id, BUS, 25, 35, DS18B20_11BIT_RES)) {
                 _0x8002C:
000bf4 940e 1efb 	CALL SUBOPT_0x12
000bf6 f069      	BREQ _0x8002D
                 ; 0004 0103         nlcd_GotoXY(0,0);
000bf7 940e 1e9f 	CALL SUBOPT_0x2
                 ; 0004 0104         nlcd_PrintF("       ");
                +
000bf9 eba5     +LDI R26 , LOW ( _0x80025 + ( 208 ) )
000bfa e0b7     +LDI R27 , HIGH ( _0x80025 + ( 208 ) )
                 	__POINTW2MN _0x80025,208
000bfb 940e 08e9 	CALL _nlcd_PrintF
                 ; 0004 0105         nlcd_PrintF("         ");
                +
000bfd eca5     +LDI R26 , LOW ( _0x80025 + ( 224 ) )
000bfe e0b7     +LDI R27 , HIGH ( _0x80025 + ( 224 ) )
                 	__POINTW2MN _0x80025,224
000bff 940e 08e9 	CALL _nlcd_PrintF
                 ; 0004 0106         nlcd_PrintF("    t !    ");
                +
000c01 eda5     +LDI R26 , LOW ( _0x80025 + ( 240 ) )
000c02 e0b7     +LDI R27 , HIGH ( _0x80025 + ( 240 ) )
                 	__POINTW2MN _0x80025,240
000c03 c029      	RJMP _0x20A0014
                 ; 0004 0107         delay_ms(5000);
                 ; 0004 0108         nlcd_Clear();
                 ; 0004 0109         print_menu();
                 ; 0004 010A         return;
                 ; 0004 010B     }
                 ; 0004 010C 
                 ; 0004 010D     if (InitSensor(t_rom_codes[1].id, BUS, 25, 35, DS18B20_11BIT_RES)) {
                 _0x8002D:
000c04 940e 1f0a 	CALL SUBOPT_0x13
000c06 f069      	BREQ _0x8002E
                 ; 0004 010E         nlcd_GotoXY(0,0);
000c07 940e 1e9f 	CALL SUBOPT_0x2
                 ; 0004 010F         nlcd_PrintF("        ");
                +
000c09 eea5     +LDI R26 , LOW ( _0x80025 + ( 256 ) )
000c0a e0b7     +LDI R27 , HIGH ( _0x80025 + ( 256 ) )
                 	__POINTW2MN _0x80025,256
000c0b 940e 08e9 	CALL _nlcd_PrintF
                 ; 0004 0110         nlcd_PrintF("          ");
                +
000c0d efa6     +LDI R26 , LOW ( _0x80025 + ( 273 ) )
000c0e e0b7     +LDI R27 , HIGH ( _0x80025 + ( 273 ) )
                 	__POINTW2MN _0x80025,273
000c0f 940e 08e9 	CALL _nlcd_PrintF
                 ; 0004 0111         nlcd_PrintF(" t  ! ");
                +
000c11 e0a7     +LDI R26 , LOW ( _0x80025 + ( 290 ) )
000c12 e0b8     +LDI R27 , HIGH ( _0x80025 + ( 290 ) )
                 	__POINTW2MN _0x80025,290
000c13 c019      	RJMP _0x20A0014
                 ; 0004 0112         delay_ms(5000);
                 ; 0004 0113         nlcd_Clear();
                 ; 0004 0114         print_menu();
                 ; 0004 0115         return;
                 ; 0004 0116     }
                 ; 0004 0117 
                 ; 0004 0118     if (InitSensor(t_rom_codes[2].id, BUS, 25, 35, DS18B20_11BIT_RES)) {
                 _0x8002E:
000c14 940e 200d 	CALL SUBOPT_0x2B
000c16 e0e8      	LDI  R30,LOW(8)
000c17 93ea      	ST   -Y,R30
000c18 e1e9      	LDI  R30,LOW(25)
000c19 93ea      	ST   -Y,R30
000c1a e2e3      	LDI  R30,LOW(35)
000c1b 93ea      	ST   -Y,R30
000c1c e5af      	LDI  R26,LOW(95)
000c1d 940e 1929 	CALL _InitSensor
000c1f 30e0      	CPI  R30,0
000c20 f0a9      	BREQ _0x8002F
                 ; 0004 0119         nlcd_GotoXY(0,0);
000c21 940e 1e9f 	CALL SUBOPT_0x2
                 ; 0004 011A         nlcd_PrintF("       ");
                +
000c23 e1a8     +LDI R26 , LOW ( _0x80025 + ( 307 ) )
000c24 e0b8     +LDI R27 , HIGH ( _0x80025 + ( 307 ) )
                 	__POINTW2MN _0x80025,307
000c25 940e 08e9 	CALL _nlcd_PrintF
                 ; 0004 011B         nlcd_PrintF("         ");
                +
000c27 e2a8     +LDI R26 , LOW ( _0x80025 + ( 323 ) )
000c28 e0b8     +LDI R27 , HIGH ( _0x80025 + ( 323 ) )
                 	__POINTW2MN _0x80025,323
000c29 940e 08e9 	CALL _nlcd_PrintF
                 ; 0004 011C         nlcd_PrintF(" t  ! ");
                +
000c2b e3a8     +LDI R26 , LOW ( _0x80025 + ( 339 ) )
000c2c e0b8     +LDI R27 , HIGH ( _0x80025 + ( 339 ) )
                 	__POINTW2MN _0x80025,339
                 _0x20A0014:
000c2d 940e 08e9 	CALL _nlcd_PrintF
                 ; 0004 011D         delay_ms(5000);
000c2f e8a8      	LDI  R26,LOW(5000)
000c30 e1b3      	LDI  R27,HIGH(5000)
000c31 940e 23c5 	CALL _delay_ms
                 ; 0004 011E         nlcd_Clear();
000c33 940e 2012 	CALL SUBOPT_0x2C
                 ; 0004 011F         print_menu();
                 ; 0004 0120         return;
000c35 9508      	RET
                 ; 0004 0121     }
                 ; 0004 0122 
                 ; 0004 0123     sec = 0;
                 _0x8002F:
000c36 940e 1f19 	CALL SUBOPT_0x14
                 ; 0004 0124     minutes = 0;
                 ; 0004 0125     hours = 0;
                 ; 0004 0126     heater_power = 100;
000c38 e6e4      	LDI  R30,LOW(100)
000c39 93e0 0a2b 	STS  _heater_power,R30
                 ; 0004 0127     VALVE_CLS;
000c3b 98db      	CBI  0x1B,3
                 ; 0004 0128     impulseCounter = 0;
000c3c 940e 2016 	CALL SUBOPT_0x2D
                 ; 0004 0129     ssCounter = 0;
000c3e 940e 201c 	CALL SUBOPT_0x2E
                 ; 0004 012A     ssTrig = 0;
                 ; 0004 012B     startStop = 0;
000c40 e0e0      	LDI  R30,LOW(0)
000c41 93e0 0a22 	STS  _startStop,R30
                 ; 0004 012C     mode = RUN_RECT;
000c43 e0e5      	LDI  R30,LOW(5)
                 _0x20A0013:
000c44 93e0 0a1f 	STS  _mode,R30
                 ; 0004 012D }
000c46 9508      	RET
                 
                 	.DSEG
                 _0x80025:
0006e5           	.BYTE 0x163
                 ;
                 ;void ViewRectification(){
                 ; 0004 012F void ViewRectification(){
                 
                 	.CSEG
                 _ViewRectification:
                 ; 0004 0130 unsigned char tkuba_c[2] = {" "};
                 ; 0004 0131 unsigned char tkol_up_c[2] = {" "};
                 ; 0004 0132 unsigned char tkol_down_c[2] = {" "};
                 ; 0004 0133 unsigned char tmp[17];
                 ; 0004 0134 
                 ; 0004 0135    if (abortProcess) {
000c47 9767      	SBIW R28,23
000c48 e2e0      	LDI  R30,LOW(32)
000c49 8be9      	STD  Y+17,R30
000c4a e0e0      	LDI  R30,LOW(0)
000c4b 8bea      	STD  Y+18,R30
000c4c e2e0      	LDI  R30,LOW(32)
000c4d 8beb      	STD  Y+19,R30
000c4e e0e0      	LDI  R30,LOW(0)
000c4f 8bec      	STD  Y+20,R30
000c50 e2e0      	LDI  R30,LOW(32)
000c51 8bed      	STD  Y+21,R30
000c52 e0e0      	LDI  R30,LOW(0)
000c53 8bee      	STD  Y+22,R30
                 ;	tkuba_c -> Y+21
                 ;	tkol_up_c -> Y+19
                 ;	tkol_down_c -> Y+17
                 ;	tmp -> Y+0
000c54 91e0 0a20 	LDS  R30,_abortProcess
000c56 30e0      	CPI  R30,0
000c57 f0f9      	BREQ _0x80030
                 ; 0004 0136       //nlcd_Clear();
                 ; 0004 0137       nlcd_GotoXY(2,1);
000c58 e0e2      	LDI  R30,LOW(2)
000c59 93ea      	ST   -Y,R30
000c5a e0a1      	LDI  R26,LOW(1)
000c5b 940e 090f 	CALL _nlcd_GotoXY
                 ; 0004 0138       nlcd_PrintF("");
                +
000c5d e4a8     +LDI R26 , LOW ( _0x80031 + ( 0 ) )
000c5e e0b8     +LDI R27 , HIGH ( _0x80031 + ( 0 ) )
                 	__POINTW2MN _0x80031,0
000c5f 940e 2023 	CALL SUBOPT_0x2F
                 ; 0004 0139       nlcd_GotoXY(4,2);
000c61 e0a2      	LDI  R26,LOW(2)
000c62 940e 090f 	CALL _nlcd_GotoXY
                 ; 0004 013A       nlcd_PrintF("");
                +
000c64 e5a5     +LDI R26 , LOW ( _0x80031 + ( 13 ) )
000c65 e0b8     +LDI R27 , HIGH ( _0x80031 + ( 13 ) )
                 	__POINTW2MN _0x80031,13
000c66 940e 2023 	CALL SUBOPT_0x2F
                 ; 0004 013B       nlcd_GotoXY(4,3);
000c68 e0a3      	LDI  R26,LOW(3)
000c69 940e 090f 	CALL _nlcd_GotoXY
                 ; 0004 013C       nlcd_PrintF("?");
                +
000c6b e5ae     +LDI R26 , LOW ( _0x80031 + ( 22 ) )
000c6c e0b8     +LDI R27 , HIGH ( _0x80031 + ( 22 ) )
                 	__POINTW2MN _0x80031,22
000c6d 940e 1f2f 	CALL SUBOPT_0x17
                 ; 0004 013D       nlcd_GotoXY(0,4);
000c6f e0a4      	LDI  R26,LOW(4)
000c70 940e 090f 	CALL _nlcd_GotoXY
                 ; 0004 013E       nlcd_PrintF("<ENT> <ESC>");
                +
000c72 e6a7     +LDI R26 , LOW ( _0x80031 + ( 31 ) )
000c73 e0b8     +LDI R27 , HIGH ( _0x80031 + ( 31 ) )
                 	__POINTW2MN _0x80031,31
000c74 940e 08e9 	CALL _nlcd_PrintF
                 ; 0004 013F    } else {
000c76 c0ac      	RJMP _0x80032
                 _0x80030:
                 ; 0004 0140 
                 ; 0004 0141       if (t_kuba - t_kuba_old >= DELTA){ //  
000c77 940e 1f34 	CALL SUBOPT_0x18
000c79 940e 1f49 	CALL SUBOPT_0x19
000c7b f010      	BRLO _0x80033
                 ; 0004 0142         tkuba_c[0] = 30;   // up
000c7c e1ee      	LDI  R30,LOW(30)
000c7d c00b      	RJMP _0x80105
                 ; 0004 0143       } else if (t_kuba - t_kuba_old <= -DELTA){  //  
                 _0x80033:
000c7e 940e 1f34 	CALL SUBOPT_0x18
000c80 940e 1f50 	CALL SUBOPT_0x1A
000c82 f019      	BREQ PC+4
000c83 f010      	BRCS PC+3
000c84 940c 0c88 	JMP  _0x80035
                 ; 0004 0144         tkuba_c[0] = 31;   // down
000c86 e1ef      	LDI  R30,LOW(31)
000c87 c001      	RJMP _0x80105
                 ; 0004 0145       } else {
                 _0x80035:
                 ; 0004 0146         tkuba_c[0] = ' ';
000c88 e2e0      	LDI  R30,LOW(32)
                 _0x80105:
000c89 8bed      	STD  Y+21,R30
                 ; 0004 0147       }
                 ; 0004 0148 
                 ; 0004 0149       if (t_kolona_down - t_kolona_down_old >= DELTA){ //  
000c8a 940e 2028 	CALL SUBOPT_0x30
000c8c 940e 1f49 	CALL SUBOPT_0x19
000c8e f010      	BRLO _0x80037
                 ; 0004 014A         tkol_down_c[0] = 30; // up
000c8f e1ee      	LDI  R30,LOW(30)
000c90 c00b      	RJMP _0x80106
                 ; 0004 014B       } else if (t_kolona_down - t_kolona_down_old <= -DELTA){  //  
                 _0x80037:
000c91 940e 2028 	CALL SUBOPT_0x30
000c93 940e 1f50 	CALL SUBOPT_0x1A
000c95 f019      	BREQ PC+4
000c96 f010      	BRCS PC+3
000c97 940c 0c9b 	JMP  _0x80039
                 ; 0004 014C         tkol_down_c[0] = 31; // down
000c99 e1ef      	LDI  R30,LOW(31)
000c9a c001      	RJMP _0x80106
                 ; 0004 014D       } else {
                 _0x80039:
                 ; 0004 014E         tkol_down_c[0] = ' ';
000c9b e2e0      	LDI  R30,LOW(32)
                 _0x80106:
000c9c 8be9      	STD  Y+17,R30
                 ; 0004 014F       }
                 ; 0004 0150 
                 ; 0004 0151       if (t_kolona_up - t_kolona_up_old >= DELTA){ //  
000c9d 940e 1f57 	CALL SUBOPT_0x1B
000c9f 940e 1f49 	CALL SUBOPT_0x19
000ca1 f010      	BRLO _0x8003B
                 ; 0004 0152         tkol_up_c[0] = 30; // up
000ca2 e1ee      	LDI  R30,LOW(30)
000ca3 c00b      	RJMP _0x80107
                 ; 0004 0153       } else if (t_kolona_up - t_kolona_up_old <= -DELTA){  //  
                 _0x8003B:
000ca4 940e 1f57 	CALL SUBOPT_0x1B
000ca6 940e 1f50 	CALL SUBOPT_0x1A
000ca8 f019      	BREQ PC+4
000ca9 f010      	BRCS PC+3
000caa 940c 0cae 	JMP  _0x8003D
                 ; 0004 0154         tkol_up_c[0] = 31;; // down
000cac e1ef      	LDI  R30,LOW(31)
000cad c001      	RJMP _0x80107
                 ; 0004 0155       } else {
                 _0x8003D:
                 ; 0004 0156         tkol_up_c[0] = ' ';
000cae e2e0      	LDI  R30,LOW(32)
                 _0x80107:
000caf 8beb      	STD  Y+19,R30
                 ; 0004 0157       }
                 ; 0004 0158 
                 ; 0004 0159       #ifdef P_SENS_ON
                 ; 0004 015A         p_kolona = ((signed int)(read_adc(0)) - p_offset) * 4.88 / 7.511 / 13.5954348;
                 ; 0004 015B       #endif
                 ; 0004 015C 
                 ; 0004 015D       //nlcd_GotoXY(1,0);
                 ; 0004 015E      // nlcd_PrintF("  ");
                 ; 0004 015F       nlcd_GotoXY(1,0);
000cb0 e0e1      	LDI  R30,LOW(1)
000cb1 940e 1f6c 	CALL SUBOPT_0x1C
                 ; 0004 0160       nlcd_PrintF(" ");
                +
000cb3 e7a8     +LDI R26 , LOW ( _0x80031 + ( 48 ) )
000cb4 e0b8     +LDI R27 , HIGH ( _0x80031 + ( 48 ) )
                 	__POINTW2MN _0x80031,48
000cb5 940e 1f70 	CALL SUBOPT_0x1D
                 ; 0004 0161       nlcd_GotoXY(1,1);
000cb7 e0a1      	LDI  R26,LOW(1)
000cb8 940e 2001 	CALL SUBOPT_0x29
                 ; 0004 0162       sprintf(buf, ":%2i:%2i:%2i", hours, minutes, sec);
000cba 940e 1f7d 	CALL SUBOPT_0x1F
                 ; 0004 0163       nlcd_Print(buf);
                 ; 0004 0164       nlcd_GotoXY(1,2);
000cbc e0e1      	LDI  R30,LOW(1)
000cbd 93ea      	ST   -Y,R30
000cbe 940e 1f75 	CALL SUBOPT_0x1E
                 ; 0004 0165       sprintf(buf,"t  %-3.2f %s", t_kolona_up, tkol_up_c);
000cc0 940e 1fa5 	CALL SUBOPT_0x21
000cc2 01fe      	MOVW R30,R28
000cc3 967b      	ADIW R30,27
000cc4 940e 1fb4 	CALL SUBOPT_0x22
                 ; 0004 0166       nlcd_Print(buf);
                 ; 0004 0167       nlcd_GotoXY(1,3);
000cc6 940e 1f9b 	CALL SUBOPT_0x20
                 ; 0004 0168       sprintf(buf,"t  %-3.2f %s", t_kolona_down, tkol_down_c);
                +
000cc8 ebe5     +LDI R30 , LOW ( 2 * _0x80000 + ( 403 ) )
000cc9 e0f7     +LDI R31 , HIGH ( 2 * _0x80000 + ( 403 ) )
                 	__POINTW1FN _0x80000,403
000cca 93fa      	ST   -Y,R31
000ccb 93ea      	ST   -Y,R30
000ccc 940e 203d 	CALL SUBOPT_0x31
000cce 940e 2681 	CALL __PUTPARD1
000cd0 01fe      	MOVW R30,R28
000cd1 9679      	ADIW R30,25
000cd2 940e 1fb4 	CALL SUBOPT_0x22
                 ; 0004 0169       nlcd_Print(buf);
                 ; 0004 016A       nlcd_GotoXY(1,4);
000cd4 940e 1fbd 	CALL SUBOPT_0x23
                 ; 0004 016B       sprintf(buf,"t  %-3.2f %s", t_kuba, tkuba_c); //t_kuba_avg
000cd6 01fe      	MOVW R30,R28
000cd7 967d      	ADIW R30,29
000cd8 940e 1fb4 	CALL SUBOPT_0x22
                 ; 0004 016C       nlcd_Print(buf);
                 ; 0004 016D       nlcd_GotoXY(0,5);
000cda e0e0      	LDI  R30,LOW(0)
000cdb 940e 1ec9 	CALL SUBOPT_0x8
                 ; 0004 016E       nlcd_PrintF("                "); // clear line :) it's not good
                +
000cdd e8a6     +LDI R26 , LOW ( _0x80031 + ( 62 ) )
000cde e0b8     +LDI R27 , HIGH ( _0x80031 + ( 62 ) )
                 	__POINTW2MN _0x80031,62
000cdf 940e 08e9 	CALL _nlcd_PrintF
                 ; 0004 016F       #ifdef P_SENS_ON
                 ; 0004 0170           nlcd_GotoXY(1,5);
                 ; 0004 0171           sprintf(buf, "P%+3.1f", p_kolona);
                 ; 0004 0172           nlcd_Print(buf);
                 ; 0004 0173       #endif
                 ; 0004 0174       nlcd_GotoXY(8,5);
000ce1 e0e8      	LDI  R30,LOW(8)
000ce2 940e 1ec9 	CALL SUBOPT_0x8
                 ; 0004 0175       sprintf(buf, "%3i%%", heater_power);
000ce4 940e 2046 	CALL SUBOPT_0x32
                +
000ce6 ede7     +LDI R30 , LOW ( 2 * _0x80000 + ( 437 ) )
000ce7 e0f7     +LDI R31 , HIGH ( 2 * _0x80000 + ( 437 ) )
                 	__POINTW1FN _0x80000,437
000ce8 93fa      	ST   -Y,R31
000ce9 93ea      	ST   -Y,R30
000cea 91e0 0a2b 	LDS  R30,_heater_power
000cec 940e 1feb 	CALL SUBOPT_0x26
000cee 940e 1ec4 	CALL SUBOPT_0x7
                 ; 0004 0176       nlcd_Print(buf);
000cf0 940e 1ecd 	CALL SUBOPT_0x9
                 ; 0004 0177 
                 ; 0004 0178       nlcd_GotoXY(1,6);
000cf2 e0e1      	LDI  R30,LOW(1)
000cf3 940e 1fd5 	CALL SUBOPT_0x24
                 ; 0004 0179       strcpyf(tmp, yesno[startStop]);
000cf5 91e0 0a22 	LDS  R30,_startStop
000cf7 e8ac      	LDI  R26,LOW(_yesno*2)
000cf8 e0b0      	LDI  R27,HIGH(_yesno*2)
000cf9 940e 1fdd 	CALL SUBOPT_0x25
                 ; 0004 017A       //sprintf(buf, " %s", tmp);
                 ; 0004 017B       sprintf(buf, "\\ %s  %i", tmp, ssCounter);
                +
000cfb eee0     +LDI R30 , LOW ( 2 * _0x80000 + ( 446 ) )
000cfc e0f7     +LDI R31 , HIGH ( 2 * _0x80000 + ( 446 ) )
                 	__POINTW1FN _0x80000,446
000cfd 940e 204b 	CALL SUBOPT_0x33
000cff 91e0 0f0b 	LDS  R30,_ssCounter
000d01 91f0 0f0c 	LDS  R31,_ssCounter+1
000d03 940e 1fb4 	CALL SUBOPT_0x22
                 ; 0004 017C       nlcd_Print(buf);
                 ; 0004 017D       nlcd_GotoXY(1,7);
000d05 e0e1      	LDI  R30,LOW(1)
000d06 93ea      	ST   -Y,R30
000d07 e0a7      	LDI  R26,LOW(7)
000d08 940e 090f 	CALL _nlcd_GotoXY
                 ; 0004 017E       if (startStop) {
000d0a 91e0 0a22 	LDS  R30,_startStop
000d0c 30e0      	CPI  R30,0
000d0d f049      	BREQ _0x8003F
                 ; 0004 017F           sprintf(buf, "V %4.0f /", Votb);
000d0e 940e 2046 	CALL SUBOPT_0x32
                +
000d10 eeec     +LDI R30 , LOW ( 2 * _0x80000 + ( 458 ) )
000d11 e0f7     +LDI R31 , HIGH ( 2 * _0x80000 + ( 458 ) )
                 	__POINTW1FN _0x80000,458
000d12 93fa      	ST   -Y,R31
000d13 93ea      	ST   -Y,R30
000d14 940e 1ff8 	CALL SUBOPT_0x28
000d16 c006      	RJMP _0x80108
                 ; 0004 0180       } else {
                 _0x8003F:
                 ; 0004 0181           sprintf(buf, "Q %4.2f ", headDisp);
000d17 940e 2046 	CALL SUBOPT_0x32
                +
000d19 efea     +LDI R30 , LOW ( 2 * _0x80000 + ( 472 ) )
000d1a e0f7     +LDI R31 , HIGH ( 2 * _0x80000 + ( 472 ) )
                 	__POINTW1FN _0x80000,472
000d1b 940e 2054 	CALL SUBOPT_0x34
                 _0x80108:
000d1d 940e 2681 	CALL __PUTPARD1
000d1f 940e 1ec4 	CALL SUBOPT_0x7
                 ; 0004 0182       }
                 ; 0004 0183       nlcd_Print(buf);
000d21 940e 1ecd 	CALL SUBOPT_0x9
                 ; 0004 0184 
                 ; 0004 0185       // Debug
                 ; 0004 0186       /*
                 ; 0004 0187       nlcd_GotoXY(1,6);
                 ; 0004 0188       sprintf(buf, "SS %i PWM %i", startStop, pwmOn);
                 ; 0004 0189       nlcd_Print(buf);
                 ; 0004 018A       nlcd_GotoXY(1,7);
                 ; 0004 018B       sprintf(buf, "P%i T%i", valvePulse, pwmPeriod);
                 ; 0004 018C       nlcd_Print(buf);
                 ; 0004 018D        */
                 ; 0004 018E     }
                 _0x80032:
                 ; 0004 018F }
000d23 9667      	ADIW R28,23
000d24 9508      	RET
                 
                 	.DSEG
                 _0x80031:
000848           	.BYTE 0x4F
                 ;//*****************************************************************************
                 ;//   
                 ;//*****************************************************************************
                 ;void CalculateHead() {
                 ; 0004 0193 void CalculateHead() {
                 
                 	.CSEG
                 _CalculateHead:
                 ; 0004 0194    float Votb_fact;
                 ; 0004 0195    valvePulse = DEFAUL_VALVE_PULSE; //    general.h
000d25 9724      	SBIW R28,4
                 ;	Votb_fact -> Y+0
000d26 e0e4      	LDI  R30,LOW(4)
000d27 93e0 0a2d 	STS  _valvePulse,R30
                 ; 0004 0196    impulseCounter = 0;
000d29 940e 2016 	CALL SUBOPT_0x2D
                 ; 0004 0197    Votb_fact = -0.000163  *HEADSPEED * HEADSPEED + 1.156 * HEADSPEED + 1.198;
                +
000d2b e0e5     +LDI R30 , LOW ( 0x42B94505 )
000d2c e4f5     +LDI R31 , HIGH ( 0x42B94505 )
000d2d eb69     +LDI R22 , BYTE3 ( 0x42B94505 )
000d2e e472     +LDI R23 , BYTE4 ( 0x42B94505 )
                 	__GETD1N 0x42B94505
000d2f c06b      	RJMP _0x20A0012
                 ; 0004 0198    pwmPeriod = ((float)valvePulse * onePulseDose) / (Votb_fact / 3600.0) * 100.0 ; //   
                 ; 0004 0199 }
                 ;
                 ;void CalculateBodySpeed() {
                 ; 0004 019B void CalculateBodySpeed() {
                 _CalculateBodySpeed:
                 ; 0004 019C     float Votb_fact;
                 ; 0004 019D     valvePulse = rect_pulse_delay;  //     
000d30 9724      	SBIW R28,4
                 ;	Votb_fact -> Y+0
000d31 91e0 0a5a 	LDS  R30,_rect_pulse_delay
000d33 93e0 0a2d 	STS  _valvePulse,R30
                 ; 0004 019E     if (t_kuba_avg >= 84.3F) {
000d35 91a0 0efb 	LDS  R26,_t_kuba_avg
000d37 91b0 0efc 	LDS  R27,_t_kuba_avg+1
000d39 9180 0efd 	LDS  R24,_t_kuba_avg+2
000d3b 9190 0efe 	LDS  R25,_t_kuba_avg+3
                +
000d3d e9ea     +LDI R30 , LOW ( 0x42A8999A )
000d3e e9f9     +LDI R31 , HIGH ( 0x42A8999A )
000d3f ea68     +LDI R22 , BYTE3 ( 0x42A8999A )
000d40 e472     +LDI R23 , BYTE4 ( 0x42A8999A )
                 	__GETD1N 0x42A8999A
000d41 940e 2558 	CALL __CMPF12
000d43 f108      	BRLO _0x80041
                 ; 0004 019F         Votb = ((980.0 - 10.0 * t_kuba_avg) / 137.0) * (float)rect_body_speed ;   //        
000d44 91e0 0efb 	LDS  R30,_t_kuba_avg
000d46 91f0 0efc 	LDS  R31,_t_kuba_avg+1
000d48 9160 0efd 	LDS  R22,_t_kuba_avg+2
000d4a 9170 0efe 	LDS  R23,_t_kuba_avg+3
000d4c 940e 205f 	CALL SUBOPT_0x35
000d4e 940e 24c5 	CALL __MULF12
                +
000d50 e0a0     +LDI R26 , LOW ( 0x44750000 )
000d51 e0b0     +LDI R27 , HIGH ( 0x44750000 )
000d52 e785     +LDI R24 , BYTE3 ( 0x44750000 )
000d53 e494     +LDI R25 , BYTE4 ( 0x44750000 )
                 	__GETD2N 0x44750000
000d54 940e 2064 	CALL SUBOPT_0x36
000d56 01df      	MOVW R26,R30
000d57 01cb      	MOVW R24,R22
                +
000d58 e0e0     +LDI R30 , LOW ( 0x43090000 )
000d59 e0f0     +LDI R31 , HIGH ( 0x43090000 )
000d5a e069     +LDI R22 , BYTE3 ( 0x43090000 )
000d5b e473     +LDI R23 , BYTE4 ( 0x43090000 )
                 	__GETD1N 0x43090000
000d5c 940e 2513 	CALL __DIVF21
000d5e 01df      	MOVW R26,R30
000d5f 01cb      	MOVW R24,R22
000d60 940e 2069 	CALL SUBOPT_0x37
000d62 940e 24c5 	CALL __MULF12
000d64 c002      	RJMP _0x80109
                 ; 0004 01A0     } else {
                 _0x80041:
                 ; 0004 01A1         Votb = (float)rect_body_speed;  //  
000d65 940e 2069 	CALL SUBOPT_0x37
                 _0x80109:
000d67 93e0 0f07 	STS  _Votb,R30
000d69 93f0 0f08 	STS  _Votb+1,R31
000d6b 9360 0f09 	STS  _Votb+2,R22
000d6d 9370 0f0a 	STS  _Votb+3,R23
                 ; 0004 01A2     }
                 ; 0004 01A3     //pwmPeriod =  ((float)valvePulse * onePulseDose) / ((Votb * 1.35F) / 3600.0) * 100.0;   //  ,    , 1.35F  
                 ; 0004 01A4     //pwmPeriod =  ((float)valvePulse * onePulseDose) / (Votb / 3600.0) * 100.0;   //  ,    
                 ; 0004 01A5     Votb_fact = -0.000163 * Votb * Votb + 1.156 * Votb + 1.198;
000d6f c001      	RJMP _0x20A0011
                 ; 0004 01A6     pwmPeriod =  ((float)valvePulse * onePulseDose) / (Votb_fact / 3600.0) * 100.0;   //  ,    
                 ; 0004 01A7     /*
                 ; 0004 01A8     if (pwmPeriod < valvePulse) //      ,    
                 ; 0004 01A9     {
                 ; 0004 01AA        pwmPeriod = valvePulse;
                 ; 0004 01AB     }
                 ; 0004 01AC     */
                 ; 0004 01AD }
                 ;
                 ;void CalculateDistBodySpeed() {
                 ; 0004 01AF void CalculateDistBodySpeed() {
                 _CalculateDistBodySpeed:
                 ; 0004 01B0   float Votb_fact;
                 ; 0004 01B1   Votb_fact = -0.000163 * Votb * Votb + 1.156 * Votb + 1.198;
000d70 9724      	SBIW R28,4
                 ;	Votb_fact -> Y+0
                 _0x20A0011:
000d71 91e0 0f07 	LDS  R30,_Votb
000d73 91f0 0f08 	LDS  R31,_Votb+1
000d75 9160 0f09 	LDS  R22,_Votb+2
000d77 9170 0f0a 	LDS  R23,_Votb+3
                +
000d79 efab     +LDI R26 , LOW ( 0xB92AEAFB )
000d7a eeba     +LDI R27 , HIGH ( 0xB92AEAFB )
000d7b e28a     +LDI R24 , BYTE3 ( 0xB92AEAFB )
000d7c eb99     +LDI R25 , BYTE4 ( 0xB92AEAFB )
                 	__GETD2N 0xB92AEAFB
000d7d 940e 24c5 	CALL __MULF12
000d7f 940e 2072 	CALL SUBOPT_0x38
000d81 940e 24c5 	CALL __MULF12
000d83 937f      	PUSH R23
000d84 936f      	PUSH R22
000d85 93ff      	PUSH R31
000d86 93ef      	PUSH R30
000d87 940e 1ff8 	CALL SUBOPT_0x28
                +
000d89 ecaf     +LDI R26 , LOW ( 0x3F93F7CF )
000d8a efb7     +LDI R27 , HIGH ( 0x3F93F7CF )
000d8b e983     +LDI R24 , BYTE3 ( 0x3F93F7CF )
000d8c e39f     +LDI R25 , BYTE4 ( 0x3F93F7CF )
                 	__GETD2N 0x3F93F7CF
000d8d 940e 24c5 	CALL __MULF12
000d8f 91af      	POP  R26
000d90 91bf      	POP  R27
000d91 918f      	POP  R24
000d92 919f      	POP  R25
000d93 940e 2475 	CALL __ADDF12
                +
000d95 e1a0     +LDI R26 , LOW ( 0x3F995810 )
000d96 e5b8     +LDI R27 , HIGH ( 0x3F995810 )
000d97 e989     +LDI R24 , BYTE3 ( 0x3F995810 )
000d98 e39f     +LDI R25 , BYTE4 ( 0x3F995810 )
                 	__GETD2N 0x3F995810
000d99 940e 2475 	CALL __ADDF12
                 _0x20A0012:
000d9b 940e 267c 	CALL __PUTD1S0
                 ; 0004 01B2   pwmPeriod =  ((float)valvePulse * onePulseDose) / (Votb_fact / 3600.0) * 100.0;   //  ,    
000d9d 91e0 0a2d 	LDS  R30,_valvePulse
000d9f e0f0      	LDI  R31,0
000da0 940e 207b 	CALL SUBOPT_0x39
000da2 940e 2080 	CALL SUBOPT_0x3A
000da4 937f      	PUSH R23
000da5 936f      	PUSH R22
000da6 93ff      	PUSH R31
000da7 93ef      	PUSH R30
000da8 940e 2677 	CALL __GETD2S0
                +
000daa e0e0     +LDI R30 , LOW ( 0x45610000 )
000dab e0f0     +LDI R31 , HIGH ( 0x45610000 )
000dac e661     +LDI R22 , BYTE3 ( 0x45610000 )
000dad e475     +LDI R23 , BYTE4 ( 0x45610000 )
                 	__GETD1N 0x45610000
000dae 940e 2513 	CALL __DIVF21
000db0 91af      	POP  R26
000db1 91bf      	POP  R27
000db2 918f      	POP  R24
000db3 919f      	POP  R25
000db4 940e 2513 	CALL __DIVF21
                +
000db6 e0a0     +LDI R26 , LOW ( 0x42C80000 )
000db7 e0b0     +LDI R27 , HIGH ( 0x42C80000 )
000db8 ec88     +LDI R24 , BYTE3 ( 0x42C80000 )
000db9 e492     +LDI R25 , BYTE4 ( 0x42C80000 )
                 	__GETD2N 0x42C80000
000dba 940e 24c5 	CALL __MULF12
000dbc e3a0      	LDI  R26,LOW(_pwmPeriod)
000dbd e0ba      	LDI  R27,HIGH(_pwmPeriod)
000dbe 940e 2402 	CALL __CFD1U
000dc0 93ed      	ST   X+,R30
000dc1 93fc      	ST   X,R31
                 ; 0004 01B3 }
000dc2 9624      	ADIW R28,4
000dc3 9508      	RET
                 ;
                 ;//*****************************************************************************
                 ;//   
                 ;//*****************************************************************************
                 ;
                 ;void StopProcess() {
                 ; 0004 01B9 void StopProcess() {
                 _StopProcess:
                 ; 0004 01BA      nlcd_Clear();
000dc4 940e 083c 	CALL _nlcd_Clear
                 ; 0004 01BB      if (mode == RUN_DIST) {
000dc6 91a0 0a1f 	LDS  R26,_mode
000dc8 30a4      	CPI  R26,LOW(0x4)
000dc9 f431      	BRNE _0x80043
                 ; 0004 01BC         nlcd_GotoXY(0,1);
000dca 940e 1f2a 	CALL SUBOPT_0x16
                 ; 0004 01BD         nlcd_PrintF("      ");
                +
000dcc e9a7     +LDI R26 , LOW ( _0x80044 + ( 0 ) )
000dcd e0b8     +LDI R27 , HIGH ( _0x80044 + ( 0 ) )
                 	__POINTW2MN _0x80044,0
000dce 940e 08e9 	CALL _nlcd_PrintF
                 ; 0004 01BE      }
                 ; 0004 01BF      if (mode == RUN_RECT) {
                 _0x80043:
000dd0 91a0 0a1f 	LDS  R26,_mode
000dd2 30a5      	CPI  R26,LOW(0x5)
000dd3 f431      	BRNE _0x80045
                 ; 0004 01C0         nlcd_GotoXY(0,1);
000dd4 940e 1f2a 	CALL SUBOPT_0x16
                 ; 0004 01C1         nlcd_PrintF("    ");
                +
000dd6 eaa9     +LDI R26 , LOW ( _0x80044 + ( 18 ) )
000dd7 e0b8     +LDI R27 , HIGH ( _0x80044 + ( 18 ) )
                 	__POINTW2MN _0x80044,18
000dd8 940e 08e9 	CALL _nlcd_PrintF
                 ; 0004 01C2      }
                 ; 0004 01C3      nlcd_GotoXY(1,3);
                 _0x80045:
000dda e0e1      	LDI  R30,LOW(1)
000ddb 940e 208b 	CALL SUBOPT_0x3B
                 ; 0004 01C4      nlcd_PrintWideF("");
                +
000ddd ebaa     +LDI R26 , LOW ( _0x80044 + ( 35 ) )
000dde e0b8     +LDI R27 , HIGH ( _0x80044 + ( 35 ) )
                 	__POINTW2MN _0x80044,35
000ddf 940e 08fc 	CALL _nlcd_PrintWideF
                 ; 0004 01C5      nlcd_GotoXY(1,4);
000de1 e0e1      	LDI  R30,LOW(1)
000de2 940e 208f 	CALL SUBOPT_0x3C
                 ; 0004 01C6      nlcd_PrintWideF("!");
                +
000de4 eca2     +LDI R26 , LOW ( _0x80044 + ( 43 ) )
000de5 e0b8     +LDI R27 , HIGH ( _0x80044 + ( 43 ) )
                 	__POINTW2MN _0x80044,43
000de6 940e 08fc 	CALL _nlcd_PrintWideF
                 ; 0004 01C7      BEEP_ON;
000de8 e7ef      	LDI  R30,LOW(127)
000de9 bfe1      	OUT  0x31,R30
                 ; 0004 01C8      mode = END_PROC;
000dea e0e0      	LDI  R30,LOW(0)
000deb 93e0 0a1f 	STS  _mode,R30
                 ; 0004 01C9      VALVE_CLS;         //  
000ded 98db      	CBI  0x1B,3
                 ; 0004 01CA      heater_power = 0; //  
000dee 93e0 0a2b 	STS  _heater_power,R30
                 ; 0004 01CB      startStop = 0;
000df0 93e0 0a22 	STS  _startStop,R30
                 ; 0004 01CC      pressureOver = 0;
000df2 24aa      	CLR  R10
                 ; 0004 01CD      abortProcess = 0;
000df3 93e0 0a20 	STS  _abortProcess,R30
                 ; 0004 01CE      pwmOn = 0;
000df5 c022      	RJMP _0x20A0010
                 ; 0004 01CF }
                 
                 	.DSEG
                 _0x80044:
000897           	.BYTE 0x34
                 ;//*****************************************************************************
                 ;//                              
                 ;//*****************************************************************************
                 ;
                 ;void CalibrateRun() {
                 ; 0004 01D4 void CalibrateRun() {
                 
                 	.CSEG
                 _CalibrateRun:
                 ; 0004 01D5 //   
                 ; 0004 01D6     pwmPeriod = 100; // 1 sec
000df6 e6e4      	LDI  R30,LOW(100)
000df7 e0f0      	LDI  R31,HIGH(100)
000df8 93e0 0a30 	STS  _pwmPeriod,R30
000dfa 93f0 0a31 	STS  _pwmPeriod+1,R31
                 ; 0004 01D7     valvePulse = DEFAUL_VALVE_PULSE; //    general.h
000dfc e0e4      	LDI  R30,LOW(4)
000dfd 93e0 0a2d 	STS  _valvePulse,R30
                 ; 0004 01D8     impulseCounter = 0;
000dff 940e 2016 	CALL SUBOPT_0x2D
                 ; 0004 01D9     sec = 0;
000e01 940e 1f19 	CALL SUBOPT_0x14
                 ; 0004 01DA     minutes = 0;
                 ; 0004 01DB     hours = 0;
                 ; 0004 01DC     abortProcess = 0;
000e03 e0e0      	LDI  R30,LOW(0)
000e04 93e0 0a20 	STS  _abortProcess,R30
                 ; 0004 01DD     mode = CALIBRATE_RUN;
000e06 e0e8      	LDI  R30,LOW(8)
000e07 93e0 0a1f 	STS  _mode,R30
                 ; 0004 01DE     impulseCounterCalibrate = (unsigned int)(CALIBRATE_Q / ((float)valvePulse * onePulseDose));
000e09 940e 2093 	CALL SUBOPT_0x3D
000e0b 940e 2080 	CALL SUBOPT_0x3A
                +
000e0d e0a0     +LDI R26 , LOW ( 0x42480000 )
000e0e e0b0     +LDI R27 , HIGH ( 0x42480000 )
000e0f e488     +LDI R24 , BYTE3 ( 0x42480000 )
000e10 e492     +LDI R25 , BYTE4 ( 0x42480000 )
                 	__GETD2N 0x42480000
000e11 940e 209b 	CALL SUBOPT_0x3E
000e13 93e0 0f05 	STS  _impulseCounterCalibrate,R30
000e15 93f0 0f06 	STS  _impulseCounterCalibrate+1,R31
                 ; 0004 01DF     pwmOn = 1;
000e17 e0e1      	LDI  R30,LOW(1)
                 _0x20A0010:
000e18 93e0 0a2c 	STS  _pwmOn,R30
                 ; 0004 01E0 }
000e1a 9508      	RET
                 ;
                 ;void CalibrateStop(){
                 ; 0004 01E2 void CalibrateStop(){
                 _CalibrateStop:
                 ; 0004 01E3 //      
                 ; 0004 01E4     onePulseDose =  (float)factCalibrateQ / (float)((long)valvePulse * (long)impulseCounter);
000e1b 91e0 0a36 	LDS  R30,_factCalibrateQ
000e1d 91f0 0a37 	LDS  R31,_factCalibrateQ+1
000e1f 940e 20a0 	CALL SUBOPT_0x3F
000e21 937f      	PUSH R23
000e22 936f      	PUSH R22
000e23 93ff      	PUSH R31
000e24 93ef      	PUSH R30
000e25 91a0 0a2d 	LDS  R26,_valvePulse
000e27 27bb      	CLR  R27
000e28 2788      	CLR  R24
000e29 2799      	CLR  R25
000e2a 940e 20a5 	CALL SUBOPT_0x40
000e2c 940e 25d8 	CALL __MULD12
000e2e 940e 243b 	CALL __CDF1
000e30 91af      	POP  R26
000e31 91bf      	POP  R27
000e32 918f      	POP  R24
000e33 919f      	POP  R25
000e34 940e 20ac 	CALL SUBOPT_0x41
                 ; 0004 01E5     SaveParam();
000e36 940e 1605 	CALL _SaveParam
                 ; 0004 01E6     abortProcess = 0;
000e38 e0e0      	LDI  R30,LOW(0)
000e39 93e0 0a20 	STS  _abortProcess,R30
                 ; 0004 01E7 }
000e3b 9508      	RET
                 ;
                 ;void CalibrateView() {
                 ; 0004 01E9 void CalibrateView() {
                 _CalibrateView:
                 ; 0004 01EA     if (abortProcess) {
000e3c 91e0 0a20 	LDS  R30,_abortProcess
000e3e 30e0      	CPI  R30,0
000e3f f0f9      	BREQ _0x80046
                 ; 0004 01EB         nlcd_GotoXY(3,1);
000e40 e0e3      	LDI  R30,LOW(3)
000e41 93ea      	ST   -Y,R30
000e42 e0a1      	LDI  R26,LOW(1)
000e43 940e 090f 	CALL _nlcd_GotoXY
                 ; 0004 01EC         nlcd_PrintF("");
                +
000e45 ecab     +LDI R26 , LOW ( _0x80047 + ( 0 ) )
000e46 e0b8     +LDI R27 , HIGH ( _0x80047 + ( 0 ) )
                 	__POINTW2MN _0x80047,0
000e47 940e 2023 	CALL SUBOPT_0x2F
                 ; 0004 01ED         nlcd_GotoXY(4,2);
000e49 e0a2      	LDI  R26,LOW(2)
000e4a 940e 090f 	CALL _nlcd_GotoXY
                 ; 0004 01EE         nlcd_PrintF("");
                +
000e4c eda6     +LDI R26 , LOW ( _0x80047 + ( 11 ) )
000e4d e0b8     +LDI R27 , HIGH ( _0x80047 + ( 11 ) )
                 	__POINTW2MN _0x80047,11
000e4e 940e 2023 	CALL SUBOPT_0x2F
                 ; 0004 01EF         nlcd_GotoXY(4,3);
000e50 e0a3      	LDI  R26,LOW(3)
000e51 940e 090f 	CALL _nlcd_GotoXY
                 ; 0004 01F0         nlcd_PrintF("?");
                +
000e53 edaf     +LDI R26 , LOW ( _0x80047 + ( 20 ) )
000e54 e0b8     +LDI R27 , HIGH ( _0x80047 + ( 20 ) )
                 	__POINTW2MN _0x80047,20
000e55 940e 1f2f 	CALL SUBOPT_0x17
                 ; 0004 01F1         nlcd_GotoXY(0,4);
000e57 e0a4      	LDI  R26,LOW(4)
000e58 940e 090f 	CALL _nlcd_GotoXY
                 ; 0004 01F2         nlcd_PrintF("<ENT> <ESC>");
                +
000e5a eea8     +LDI R26 , LOW ( _0x80047 + ( 29 ) )
000e5b e0b8     +LDI R27 , HIGH ( _0x80047 + ( 29 ) )
                 	__POINTW2MN _0x80047,29
000e5c 940e 08e9 	CALL _nlcd_PrintF
                 ; 0004 01F3     } else {
000e5e c06b      	RJMP _0x80048
                 _0x80046:
                 ; 0004 01F4         if (impulseCounter >= impulseCounterCalibrate) {     //       
000e5f 91e0 0f05 	LDS  R30,_impulseCounterCalibrate
000e61 91f0 0f06 	LDS  R31,_impulseCounterCalibrate+1
000e63 91a0 0a2e 	LDS  R26,_impulseCounter
000e65 91b0 0a2f 	LDS  R27,_impulseCounter+1
000e67 17ae      	CP   R26,R30
000e68 07bf      	CPC  R27,R31
000e69 f0e0      	BRLO _0x80049
                 ; 0004 01F5             pwmOn = 0;
000e6a 940e 20b7 	CALL SUBOPT_0x42
                 ; 0004 01F6             VALVE_CLS;
                 ; 0004 01F7             factCalibrateQ =  CALIBRATE_Q;
000e6c e3e2      	LDI  R30,LOW(50)
000e6d e0f0      	LDI  R31,HIGH(50)
000e6e 93e0 0a36 	STS  _factCalibrateQ,R30
000e70 93f0 0a37 	STS  _factCalibrateQ+1,R31
                 ; 0004 01F8             param_id = 13;
000e72 e0ed      	LDI  R30,LOW(13)
000e73 940e 20bc 	CALL SUBOPT_0x43
                 ; 0004 01F9             params[param_id].value = factCalibrateQ;
000e75 91a0 0a36 	LDS  R26,_factCalibrateQ
000e77 91b0 0a37 	LDS  R27,_factCalibrateQ+1
000e79 83a0      	STD  Z+0,R26
000e7a 83b1      	STD  Z+1,R27
                 ; 0004 01FA             last_menu = current_menu;
000e7b 940e 20c4 	CALL SUBOPT_0x44
                 ; 0004 01FB             last_pos = current_pos;
                 ; 0004 01FC             current_menu = MENU_RECT;
                 ; 0004 01FD             current_pos = 11; //  
000e7d e0eb      	LDI  R30,LOW(11)
000e7e 93e0 0af9 	STS  _current_pos,R30
                 ; 0004 01FE             nlcd_Clear();
000e80 940e 083c 	CALL _nlcd_Clear
                 ; 0004 01FF             mode = CALIBRATE_MOD;
000e82 e0e9      	LDI  R30,LOW(9)
000e83 93e0 0a1f 	STS  _mode,R30
                 ; 0004 0200         } else {
000e85 c044      	RJMP _0x8004A
                 _0x80049:
                 ; 0004 0201             nlcd_GotoXY(3,0);
000e86 e0e3      	LDI  R30,LOW(3)
000e87 940e 1f6c 	CALL SUBOPT_0x1C
                 ; 0004 0202             nlcd_PrintF("");
                +
000e89 efa9     +LDI R26 , LOW ( _0x80047 + ( 46 ) )
000e8a e0b8     +LDI R27 , HIGH ( _0x80047 + ( 46 ) )
                 	__POINTW2MN _0x80047,46
000e8b 940e 1f70 	CALL SUBOPT_0x1D
                 ; 0004 0203             nlcd_GotoXY(1,1);
000e8d e0a1      	LDI  R26,LOW(1)
000e8e 940e 2001 	CALL SUBOPT_0x29
                 ; 0004 0204             sprintf(buf,":%2i:%2i:%2i", hours, minutes, sec);
000e90 940e 1f7d 	CALL SUBOPT_0x1F
                 ; 0004 0205             nlcd_Print(buf);
                 ; 0004 0206             nlcd_GotoXY(1,3);
000e92 e0e1      	LDI  R30,LOW(1)
000e93 940e 208b 	CALL SUBOPT_0x3B
                 ; 0004 0207             nlcd_PrintF(": ");
                +
000e95 e0a4     +LDI R26 , LOW ( _0x80047 + ( 57 ) )
000e96 e0b9     +LDI R27 , HIGH ( _0x80047 + ( 57 ) )
                 	__POINTW2MN _0x80047,57
000e97 940e 08e9 	CALL _nlcd_PrintF
                 ; 0004 0208             nlcd_GotoXY(3,4);
000e99 e0e3      	LDI  R30,LOW(3)
000e9a 93ea      	ST   -Y,R30
000e9b e0a4      	LDI  R26,LOW(4)
000e9c 940e 2001 	CALL SUBOPT_0x29
                 ; 0004 0209             sprintf(buf, "Q %4.2f ", headDisp);
                +
000e9e e5e5     +LDI R30 , LOW ( 2 * _0x80000 + ( 563 ) )
000e9f e0f8     +LDI R31 , HIGH ( 2 * _0x80000 + ( 563 ) )
                 	__POINTW1FN _0x80000,563
000ea0 940e 2054 	CALL SUBOPT_0x34
000ea2 940e 20d0 	CALL SUBOPT_0x45
                 ; 0004 020A             nlcd_Print(buf);
000ea4 940e 1ecd 	CALL SUBOPT_0x9
                 ; 0004 020B             nlcd_GotoXY(3,5);
000ea6 e0e3      	LDI  R30,LOW(3)
000ea7 940e 1ec9 	CALL SUBOPT_0x8
                 ; 0004 020C             sprintf(buf, "k %1.4f ", onePulseDose);
000ea9 940e 2046 	CALL SUBOPT_0x32
                +
000eab e6e0     +LDI R30 , LOW ( 2 * _0x80000 + ( 574 ) )
000eac e0f8     +LDI R31 , HIGH ( 2 * _0x80000 + ( 574 ) )
                 	__POINTW1FN _0x80000,574
000ead 93fa      	ST   -Y,R31
000eae 93ea      	ST   -Y,R30
000eaf 91e0 0a32 	LDS  R30,_onePulseDose
000eb1 91f0 0a33 	LDS  R31,_onePulseDose+1
000eb3 9160 0a34 	LDS  R22,_onePulseDose+2
000eb5 9170 0a35 	LDS  R23,_onePulseDose+3
000eb7 940e 20d0 	CALL SUBOPT_0x45
                 ; 0004 020D             nlcd_Print(buf);
000eb9 940e 1ecd 	CALL SUBOPT_0x9
                 ; 0004 020E             nlcd_GotoXY(3,6);
000ebb e0e3      	LDI  R30,LOW(3)
000ebc 93ea      	ST   -Y,R30
000ebd e0a6      	LDI  R26,LOW(6)
000ebe 940e 2001 	CALL SUBOPT_0x29
                 ; 0004 020F             sprintf(buf, "i %i .", impulseCounter);
                +
000ec0 e6eb     +LDI R30 , LOW ( 2 * _0x80000 + ( 585 ) )
000ec1 e0f8     +LDI R31 , HIGH ( 2 * _0x80000 + ( 585 ) )
                 	__POINTW1FN _0x80000,585
000ec2 93fa      	ST   -Y,R31
000ec3 93ea      	ST   -Y,R30
000ec4 940e 20a5 	CALL SUBOPT_0x40
000ec6 940e 20d0 	CALL SUBOPT_0x45
                 ; 0004 0210             nlcd_Print(buf);
000ec8 940e 1ecd 	CALL SUBOPT_0x9
                 ; 0004 0211         }
                 _0x8004A:
                 ; 0004 0212     }
                 _0x80048:
                 ; 0004 0213 }
000eca 9508      	RET
                 
                 	.DSEG
                 _0x80047:
0008cb           	.BYTE 0x49
                 ;
                 ;
                 ;//*****************************************************************************
                 ;//  
                 ;//*****************************************************************************
                 ;void HandlerEventTimer_10s(void) {
                 ; 0004 0219 void HandlerEventTimer_10s(void) {
                 
                 	.CSEG
                 _HandlerEventTimer_10s:
                 ; 0004 021A 
                 ; 0004 021B     switch(mode) {
000ecb 940e 20d3 	CALL SUBOPT_0x46
                 ; 0004 021C         case RUN_RECT:
000ecd 30e5      	CPI  R30,LOW(0x5)
000ece e0a0      	LDI  R26,HIGH(0x5)
000ecf 07fa      	CPC  R31,R26
000ed0 f469      	BRNE _0x8004D
                 ; 0004 021D                     if (startStop) {
000ed1 91e0 0a22 	LDS  R30,_startStop
000ed3 30e0      	CPI  R30,0
000ed4 f049      	BREQ _0x8004F
                 ; 0004 021E                         t_kuba_avg = t_kuba_sum / (float)t_kuba_count;
000ed5 2deb      	MOV  R30,R11
000ed6 940e 20d7 	CALL SUBOPT_0x47
000ed8 940e 20dd 	CALL SUBOPT_0x48
000eda 940e 2513 	CALL __DIVF21
000edc 940e 20e6 	CALL SUBOPT_0x49
                 ; 0004 021F                         t_kuba_sum = 0.0;
                 ; 0004 0220                         t_kuba_count = 0;
                 ; 0004 0221                         CalculateBodySpeed();
                 ; 0004 0222                     }
                 ; 0004 0223                     break;
                 _0x8004F:
                 ; 0004 0224     }
                 _0x8004D:
                 ; 0004 0225 }
000ede 9508      	RET
                 ;
                 ;
                 ;void HandlerEventTimer_1Hz(void)
                 ; 0004 0229 {
                 _HandlerEventTimer_1Hz:
                 ; 0004 022A    switch(mode) {
000edf 940e 20d3 	CALL SUBOPT_0x46
                 ; 0004 022B         case RUN_DIST:
000ee1 30e4      	CPI  R30,LOW(0x4)
000ee2 e0a0      	LDI  R26,HIGH(0x4)
000ee3 07fa      	CPC  R31,R26
000ee4 f449      	BRNE _0x80053
                 ; 0004 022C                         t_kuba_old = t_kuba;
000ee5 940e 20fa 	CALL SUBOPT_0x4A
                 ; 0004 022D                         t_kolona_up_old = t_kolona_up;
000ee7 940e 210b 	CALL SUBOPT_0x4B
                 ; 0004 022E                         t_kuba = GetTemperatureMatchRom(t_rom_codes[0].id, BUS);
                 ; 0004 022F                         t_kolona_up = GetTemperatureMatchRom(t_rom_codes[2].id, BUS);
000ee9 940e 200d 	CALL SUBOPT_0x2B
000eeb 940e 212b 	CALL SUBOPT_0x4C
                 ; 0004 0230                         break;
000eed c034      	RJMP _0x80052
                 ; 0004 0231         case RUN_RECT:
                 _0x80053:
000eee 30e5      	CPI  R30,LOW(0x5)
000eef e0a0      	LDI  R26,HIGH(0x5)
000ef0 07fa      	CPC  R31,R26
000ef1 f581      	BRNE _0x80052
                 ; 0004 0232                         t_kuba_old = t_kuba;
000ef2 940e 20fa 	CALL SUBOPT_0x4A
                 ; 0004 0233                         t_kolona_down_old = t_kolona_down;
000ef4 940e 203d 	CALL SUBOPT_0x31
000ef6 93e0 0eef 	STS  _t_kolona_down_old,R30
000ef8 93f0 0ef0 	STS  _t_kolona_down_old+1,R31
000efa 9360 0ef1 	STS  _t_kolona_down_old+2,R22
000efc 9370 0ef2 	STS  _t_kolona_down_old+3,R23
                 ; 0004 0234                         t_kolona_up_old = t_kolona_up;
000efe 940e 210b 	CALL SUBOPT_0x4B
                 ; 0004 0235                         t_kuba = GetTemperatureMatchRom(t_rom_codes[0].id, BUS);
                 ; 0004 0236                         t_kolona_down = GetTemperatureMatchRom(t_rom_codes[1].id, BUS);
                +
000f00 e1ec     +LDI R30 , LOW ( _t_rom_codes + ( 8 ) )
000f01 e0fb     +LDI R31 , HIGH ( _t_rom_codes + ( 8 ) )
                 	__POINTW1MN _t_rom_codes,8
000f02 93fa      	ST   -Y,R31
000f03 93ea      	ST   -Y,R30
000f04 e0a8      	LDI  R26,LOW(8)
000f05 940e 18c3 	CALL _GetTemperatureMatchRom
000f07 93e0 0ee3 	STS  _t_kolona_down,R30
000f09 93f0 0ee4 	STS  _t_kolona_down+1,R31
000f0b 9360 0ee5 	STS  _t_kolona_down+2,R22
000f0d 9370 0ee6 	STS  _t_kolona_down+3,R23
                 ; 0004 0237                         t_kolona_up = GetTemperatureMatchRom(t_rom_codes[2].id, BUS);
000f0f 940e 200d 	CALL SUBOPT_0x2B
000f11 940e 212b 	CALL SUBOPT_0x4C
                 ; 0004 0238 
                 ; 0004 0239                         t_kuba_sum += t_kuba;
000f13 940e 2137 	CALL SUBOPT_0x4D
000f15 940e 20dd 	CALL SUBOPT_0x48
000f17 940e 2475 	CALL __ADDF12
000f19 93e0 0eff 	STS  _t_kuba_sum,R30
000f1b 93f0 0f00 	STS  _t_kuba_sum+1,R31
000f1d 9360 0f01 	STS  _t_kuba_sum+2,R22
000f1f 9370 0f02 	STS  _t_kuba_sum+3,R23
                 ; 0004 023A                         t_kuba_count ++;
000f21 94b3      	INC  R11
                 ; 0004 023B                         break;
                 ; 0004 023C    }
                 _0x80052:
                 ; 0004 023D    StartAllConvert_T(BUS);
000f22 e0a8      	LDI  R26,LOW(8)
000f23 940e 18b9 	CALL _StartAllConvert_T
                 ; 0004 023E }
000f25 9508      	RET
                 ;
                 ;
                 ;void HandlerEventTimer_1s(void)
                 ; 0004 0242 {
                 _HandlerEventTimer_1s:
                 ; 0004 0243     /*
                 ; 0004 0244     if ((heater_watchdog < 90) && heater_power != 0) {
                 ; 0004 0245         HEATER_OFF; //       
                 ; 0004 0246     }
                 ; 0004 0247     heater_watchdog = 0;
                 ; 0004 0248     */
                 ; 0004 0249 
                 ; 0004 024A     switch(mode) {
000f26 940e 20d3 	CALL SUBOPT_0x46
                 ; 0004 024B         case RUN_DIST:
000f28 30e4      	CPI  R30,LOW(0x4)
000f29 e0a0      	LDI  R26,HIGH(0x4)
000f2a 07fa      	CPC  R31,R26
000f2b f579      	BRNE _0x80058
                 ; 0004 024C 
                 ; 0004 024D                         if ((t_kuba >= dis_t_kuba) || timer_off >= 20*60) {  // 20 
000f2c 91e0 0a38 	LDS  R30,_dis_t_kuba
000f2e 91f0 0a39 	LDS  R31,_dis_t_kuba+1
000f30 9160 0a3a 	LDS  R22,_dis_t_kuba+2
000f32 9170 0a3b 	LDS  R23,_dis_t_kuba+3
000f34 940e 2140 	CALL SUBOPT_0x4E
000f36 940e 2558 	CALL __CMPF12
000f38 f440      	BRSH _0x8005A
000f39 91a0 0a25 	LDS  R26,_timer_off
000f3b 91b0 0a26 	LDS  R27,_timer_off+1
000f3d 3ba0      	CPI  R26,LOW(0x4B0)
000f3e e0e4      	LDI  R30,HIGH(0x4B0)
000f3f 07be      	CPC  R27,R30
000f40 f008      	BRLO _0x80059
                 _0x8005A:
                 ; 0004 024E                         // end process
                 ; 0004 024F                             StopProcess();
000f41 de82      	RCALL _StopProcess
                 ; 0004 0250                         }
                 ; 0004 0251                         //  
                 ; 0004 0252                         switch(distValveMode){
                 _0x80059:
000f42 91e0 0f0e 	LDS  R30,_distValveMode
000f44 940e 2149 	CALL SUBOPT_0x4F
                 ; 0004 0253                             case DIST_VLV_MODE_CLS: {
000f46 f419      	BRNE _0x8005F
                 ; 0004 0254                                pwmOn = 0;
000f47 940e 20b7 	CALL SUBOPT_0x42
                 ; 0004 0255                                VALVE_CLS;
                 ; 0004 0256                             break;
000f49 c010      	RJMP _0x8005E
                 ; 0004 0257                             }
                 ; 0004 0258 
                 ; 0004 0259                             case DIST_VLV_MODE_REG: {
                 _0x8005F:
000f4a 30e1      	CPI  R30,LOW(0x1)
000f4b e0a0      	LDI  R26,HIGH(0x1)
000f4c 07fa      	CPC  R31,R26
000f4d f421      	BRNE _0x80060
                 ; 0004 025A                                pwmOn = 1;
000f4e e0e1      	LDI  R30,LOW(1)
000f4f 93e0 0a2c 	STS  _pwmOn,R30
                 ; 0004 025B                             break;
000f51 c008      	RJMP _0x8005E
                 ; 0004 025C                             }
                 ; 0004 025D 
                 ; 0004 025E                             case DIST_VLV_MODE_OPN: {
                 _0x80060:
000f52 30e2      	CPI  R30,LOW(0x2)
000f53 e0a0      	LDI  R26,HIGH(0x2)
000f54 07fa      	CPC  R31,R26
000f55 f421      	BRNE _0x8005E
                 ; 0004 025F                                 pwmOn = 0;
000f56 e0e0      	LDI  R30,LOW(0)
000f57 93e0 0a2c 	STS  _pwmOn,R30
                 ; 0004 0260                                 VALVE_OPN;
000f59 9adb      	SBI  0x1B,3
                 ; 0004 0261                             break;
                 ; 0004 0262                             }
                 ; 0004 0263                         }
                 _0x8005E:
                 ; 0004 0264 
                 ; 0004 0265                         break;
000f5a c126      	RJMP _0x80057
                 ; 0004 0266         case RUN_RECT:
                 _0x80058:
000f5b 30e5      	CPI  R30,LOW(0x5)
000f5c e0a0      	LDI  R26,HIGH(0x5)
000f5d 07fa      	CPC  R31,R26
000f5e f011      	BREQ PC+3
000f5f 940c 1075 	JMP _0x80062
                 ; 0004 0267 
                 ; 0004 0268                         if (t_kuba > 60.0) {
000f61 940e 2140 	CALL SUBOPT_0x4E
                +
000f63 e0e0     +LDI R30 , LOW ( 0x42700000 )
000f64 e0f0     +LDI R31 , HIGH ( 0x42700000 )
000f65 e760     +LDI R22 , BYTE3 ( 0x42700000 )
000f66 e472     +LDI R23 , BYTE4 ( 0x42700000 )
                 	__GETD1N 0x42700000
000f67 940e 2558 	CALL __CMPF12
000f69 f009      	BREQ PC+2
000f6a f410      	BRCC PC+3
000f6b 940c 0fc2 	JMP  _0x80063
                 ; 0004 0269                             heater_power = rect_p_ten_min;
000f6d 91e0 0a3e 	LDS  R30,_rect_p_ten_min
000f6f 93e0 0a2b 	STS  _heater_power,R30
                 ; 0004 026A                             #ifdef P_SENS_ON
                 ; 0004 026B                                 if ((p_kolona > rect_p_kol_max) || pressureOver) {
                 ; 0004 026C                                     heater_power -= 10;
                 ; 0004 026D                                     pressureOver = 1;
                 ; 0004 026E                                 }
                 ; 0004 026F                             #endif
                 ; 0004 0270                             if ((fabs(t_kolona_up_old - t_kolona_up) <= 2.0*DELTA) && !startStop && t_kuba > 75.0 && !pwmOn) { //   
000f71 91a0 0ee7 	LDS  R26,_t_kolona_up
000f73 91b0 0ee8 	LDS  R27,_t_kolona_up+1
000f75 9180 0ee9 	LDS  R24,_t_kolona_up+2
000f77 9190 0eea 	LDS  R25,_t_kolona_up+3
000f79 91e0 0ef3 	LDS  R30,_t_kolona_up_old
000f7b 91f0 0ef4 	LDS  R31,_t_kolona_up_old+1
000f7d 9160 0ef5 	LDS  R22,_t_kolona_up_old+2
000f7f 9170 0ef6 	LDS  R23,_t_kolona_up_old+3
000f81 940e 246e 	CALL __SUBF12
000f83 01df      	MOVW R26,R30
000f84 01cb      	MOVW R24,R22
000f85 940e 1d7b 	CALL _fabs
000f87 01df      	MOVW R26,R30
000f88 01cb      	MOVW R24,R22
                +
000f89 e0e0     +LDI R30 , LOW ( 0x3E800000 )
000f8a e0f0     +LDI R31 , HIGH ( 0x3E800000 )
000f8b e860     +LDI R22 , BYTE3 ( 0x3E800000 )
000f8c e37e     +LDI R23 , BYTE4 ( 0x3E800000 )
                 	__GETD1N 0x3E800000
000f8d 940e 2558 	CALL __CMPF12
000f8f f019      	BREQ PC+4
000f90 f010      	BRCS PC+3
000f91 940c 0fa7 	JMP  _0x80065
000f93 91e0 0a22 	LDS  R30,_startStop
000f95 30e0      	CPI  R30,0
000f96 f481      	BRNE _0x80065
000f97 940e 2140 	CALL SUBOPT_0x4E
                +
000f99 e0e0     +LDI R30 , LOW ( 0x42960000 )
000f9a e0f0     +LDI R31 , HIGH ( 0x42960000 )
000f9b e966     +LDI R22 , BYTE3 ( 0x42960000 )
000f9c e472     +LDI R23 , BYTE4 ( 0x42960000 )
                 	__GETD1N 0x42960000
000f9d 940e 2558 	CALL __CMPF12
000f9f f009      	BREQ PC+2
000fa0 f410      	BRCC PC+3
000fa1 940c 0fa7 	JMP  _0x80065
000fa3 91e0 0a2c 	LDS  R30,_pwmOn
000fa5 30e0      	CPI  R30,0
000fa6 f009      	BREQ _0x80066
                 _0x80065:
000fa7 c015      	RJMP _0x80064
                 _0x80066:
                 ; 0004 0271                                 if ((timerSign >= 600) && !timerSignOn) { // 10 min
000fa8 91a0 0f03 	LDS  R26,_timerSign
000faa 91b0 0f04 	LDS  R27,_timerSign+1
000fac 35a8      	CPI  R26,LOW(0x258)
000fad e0e2      	LDI  R30,HIGH(0x258)
000fae 07be      	CPC  R27,R30
000faf f010      	BRLO _0x80068
000fb0 20dd      	TST  R13
000fb1 f009      	BREQ _0x80069
                 _0x80068:
000fb2 c005      	RJMP _0x80067
                 _0x80069:
                 ; 0004 0272                                     timerSignOn = 1;
000fb3 e0e1      	LDI  R30,LOW(1)
000fb4 2ede      	MOV  R13,R30
                 ; 0004 0273                                     BEEP_ON;
000fb5 e7ef      	LDI  R30,LOW(127)
000fb6 bfe1      	OUT  0x31,R30
                 ; 0004 0274                                 } else {
000fb7 c004      	RJMP _0x8006A
                 _0x80067:
                 ; 0004 0275                                     timerSign ++;
000fb8 e0a3      	LDI  R26,LOW(_timerSign)
000fb9 e0bf      	LDI  R27,HIGH(_timerSign)
000fba 940e 1e99 	CALL SUBOPT_0x1
                 ; 0004 0276                                 }
                 _0x8006A:
                 ; 0004 0277                             } else {
000fbc c005      	RJMP _0x8006B
                 _0x80064:
                 ; 0004 0278                                 timerSign = 0;
000fbd e0e0      	LDI  R30,LOW(0)
000fbe 93e0 0f03 	STS  _timerSign,R30
000fc0 93e0 0f04 	STS  _timerSign+1,R30
                 ; 0004 0279                             }
                 _0x8006B:
                 ; 0004 027A                         }
                 ; 0004 027B 
                 ; 0004 027C                         if (!startStop) { //   
                 _0x80063:
000fc2 91e0 0a22 	LDS  R30,_startStop
000fc4 30e0      	CPI  R30,0
000fc5 f449      	BRNE _0x8006C
                 ; 0004 027D                             //headDisp = (float)impulseCounter * onePulseDose * (float)valvePulse * 0.65;  // 0.65          
                 ; 0004 027E                             headDisp = (float)impulseCounter * onePulseDose * (float)valvePulse;
000fc6 940e 214c 	CALL SUBOPT_0x50
000fc8 01df      	MOVW R26,R30
000fc9 01cb      	MOVW R24,R22
000fca 940e 2093 	CALL SUBOPT_0x3D
000fcc 940e 2152 	CALL SUBOPT_0x51
                 ; 0004 027F                         } else {
000fce c009      	RJMP _0x8006D
                 _0x8006C:
                 ; 0004 0280                             headDisp = 0.0;
000fcf e0e0      	LDI  R30,LOW(0)
000fd0 93e0 0ef7 	STS  _headDisp,R30
000fd2 93e0 0ef8 	STS  _headDisp+1,R30
000fd4 93e0 0ef9 	STS  _headDisp+2,R30
000fd6 93e0 0efa 	STS  _headDisp+3,R30
                 ; 0004 0281                         }
                 _0x8006D:
                 ; 0004 0282                         //      
                 ; 0004 0283                         if ((headDisp >= (float)(rect_head_val)) && !startStop && pwmOn) {
000fd8 91e0 0a56 	LDS  R30,_rect_head_val
000fda 91f0 0a57 	LDS  R31,_rect_head_val+1
000fdc 940e 20a0 	CALL SUBOPT_0x3F
000fde 91a0 0ef7 	LDS  R26,_headDisp
000fe0 91b0 0ef8 	LDS  R27,_headDisp+1
000fe2 9180 0ef9 	LDS  R24,_headDisp+2
000fe4 9190 0efa 	LDS  R25,_headDisp+3
000fe6 940e 2558 	CALL __CMPF12
000fe8 f040      	BRLO _0x8006F
000fe9 91e0 0a22 	LDS  R30,_startStop
000feb 30e0      	CPI  R30,0
000fec f421      	BRNE _0x8006F
000fed 91e0 0a2c 	LDS  R30,_pwmOn
000fef 30e0      	CPI  R30,0
000ff0 f409      	BRNE _0x80070
                 _0x8006F:
000ff1 c002      	RJMP _0x8006E
                 _0x80070:
                 ; 0004 0284                             pwmOn = 0;
000ff2 940e 20b7 	CALL SUBOPT_0x42
                 ; 0004 0285                             VALVE_CLS;
                 ; 0004 0286                         }
                 ; 0004 0287 
                 ; 0004 0288                         // StartStop
                 ; 0004 0289                         if (startStop) {
                 _0x8006E:
000ff4 91e0 0a22 	LDS  R30,_startStop
000ff6 30e0      	CPI  R30,0
000ff7 f411      	BRNE PC+3
000ff8 940c 1065 	JMP _0x80071
                 ; 0004 028A 
                 ; 0004 028B                             if (t_kolona_down >= rect_dt_otbora + rect_t_otbora ) {
000ffa 91e0 0a42 	LDS  R30,_rect_t_otbora
000ffc 91f0 0a43 	LDS  R31,_rect_t_otbora+1
000ffe 9160 0a44 	LDS  R22,_rect_t_otbora+2
001000 9170 0a45 	LDS  R23,_rect_t_otbora+3
001002 91a0 0a46 	LDS  R26,_rect_dt_otbora
001004 91b0 0a47 	LDS  R27,_rect_dt_otbora+1
001006 9180 0a48 	LDS  R24,_rect_dt_otbora+2
001008 9190 0a49 	LDS  R25,_rect_dt_otbora+3
00100a 940e 2475 	CALL __ADDF12
00100c 940e 215d 	CALL SUBOPT_0x52
00100e 940e 2558 	CALL __CMPF12
001010 f108      	BRLO _0x80072
                 ; 0004 028C                                 timer = 0;
001011 e0e0      	LDI  R30,LOW(0)
001012 93e0 0a23 	STS  _timer,R30
001014 93e0 0a24 	STS  _timer+1,R30
                 ; 0004 028D                                 VALVE_CLS;
001016 98db      	CBI  0x1B,3
                 ; 0004 028E                                 pwmOn = 0;
001017 93e0 0a2c 	STS  _pwmOn,R30
                 ; 0004 028F                                 timerOn = 0;
001019 93e0 0a21 	STS  _timerOn,R30
                 ; 0004 0290                                 if (ssTrig == 0) {
00101b 20cc      	TST  R12
00101c f4a1      	BRNE _0x80073
                 ; 0004 0291                                     ssTrig = 1;
00101d e0e1      	LDI  R30,LOW(1)
00101e 2ece      	MOV  R12,R30
                 ; 0004 0292                                     ssCounter ++;
00101f e0ab      	LDI  R26,LOW(_ssCounter)
001020 e0bf      	LDI  R27,HIGH(_ssCounter)
001021 940e 1e99 	CALL SUBOPT_0x1
                 ; 0004 0293                                     //    3%     (  !!!)
                 ; 0004 0294                                     rect_body_speed =(int)((float)rect_body_speed * 0.97);
001023 940e 2069 	CALL SUBOPT_0x37
                +
001025 eeac     +LDI R26 , LOW ( 0x3F7851EC )
001026 e5b1     +LDI R27 , HIGH ( 0x3F7851EC )
001027 e788     +LDI R24 , BYTE3 ( 0x3F7851EC )
001028 e39f     +LDI R25 , BYTE4 ( 0x3F7851EC )
                 	__GETD2N 0x3F7851EC
001029 940e 24c5 	CALL __MULF12
00102b 940e 2404 	CALL __CFD1
00102d 93e0 0a58 	STS  _rect_body_speed,R30
00102f 93f0 0a59 	STS  _rect_body_speed+1,R31
                 ; 0004 0295                                 }
                 ; 0004 0296                             } else {
                 _0x80073:
001031 c033      	RJMP _0x80074
                 _0x80072:
                 ; 0004 0297                                 timer_off = 0;
001032 e0e0      	LDI  R30,LOW(0)
001033 93e0 0a25 	STS  _timer_off,R30
001035 93e0 0a26 	STS  _timer_off+1,R30
                 ; 0004 0298                                 if (timerOn) {
001037 91e0 0a21 	LDS  R30,_timerOn
001039 30e0      	CPI  R30,0
00103a f029      	BREQ _0x80075
                 ; 0004 0299                                     //VALVE_OPN;
                 ; 0004 029A                                     pwmOn = 1;
00103b e0e1      	LDI  R30,LOW(1)
00103c 93e0 0a2c 	STS  _pwmOn,R30
                 ; 0004 029B                                     ssTrig = 0;
00103e 24cc      	CLR  R12
                 ; 0004 029C                                     //timer = 0;
                 ; 0004 029D                                 } else {
00103f c025      	RJMP _0x80076
                 _0x80075:
                 ; 0004 029E                                     if (t_kuba > rect_t_kuba_valve) {
001040 91e0 0a4e 	LDS  R30,_rect_t_kuba_valve
001042 91f0 0a4f 	LDS  R31,_rect_t_kuba_valve+1
001044 9160 0a50 	LDS  R22,_rect_t_kuba_valve+2
001046 9170 0a51 	LDS  R23,_rect_t_kuba_valve+3
001048 940e 2140 	CALL SUBOPT_0x4E
00104a 940e 2558 	CALL __CMPF12
00104c f009      	BREQ PC+2
00104d f410      	BRCC PC+3
00104e 940c 105b 	JMP  _0x80077
                 ; 0004 029F                                         if (timer >= rect_T2_valve * 60) {
001050 91a0 0a4c 	LDS  R26,_rect_T2_valve
001052 91b0 0a4d 	LDS  R27,_rect_T2_valve+1
001054 940e 2166 	CALL SUBOPT_0x53
001056 f018      	BRLO _0x80078
                 ; 0004 02A0                                             timerOn = 1;
001057 e0e1      	LDI  R30,LOW(1)
001058 93e0 0a21 	STS  _timerOn,R30
                 ; 0004 02A1                                         }
                 ; 0004 02A2                                     } else {
                 _0x80078:
00105a c00a      	RJMP _0x80079
                 _0x80077:
                 ; 0004 02A3                                         if (timer >= rect_T1_valve * 60) {
00105b 91a0 0a4a 	LDS  R26,_rect_T1_valve
00105d 91b0 0a4b 	LDS  R27,_rect_T1_valve+1
00105f 940e 2166 	CALL SUBOPT_0x53
001061 f018      	BRLO _0x8007A
                 ; 0004 02A4                                             timerOn = 1;
001062 e0e1      	LDI  R30,LOW(1)
001063 93e0 0a21 	STS  _timerOn,R30
                 ; 0004 02A5                                         }
                 ; 0004 02A6                                     }
                 _0x8007A:
                 _0x80079:
                 ; 0004 02A7                                 }
                 _0x80076:
                 ; 0004 02A8                             }
                 _0x80074:
                 ; 0004 02A9                         }
                 ; 0004 02AA 
                 ; 0004 02AB                         if (t_kuba >= rect_t_kuba_off) {
                 _0x80071:
001065 91e0 0a52 	LDS  R30,_rect_t_kuba_off
001067 91f0 0a53 	LDS  R31,_rect_t_kuba_off+1
001069 9160 0a54 	LDS  R22,_rect_t_kuba_off+2
00106b 9170 0a55 	LDS  R23,_rect_t_kuba_off+3
00106d 940e 2140 	CALL SUBOPT_0x4E
00106f 940e 2558 	CALL __CMPF12
001071 f010      	BRLO _0x8007B
                 ; 0004 02AC                         // end process
                 ; 0004 02AD                             StopProcess();
001072 dd51      	RCALL _StopProcess
                 ; 0004 02AE                             return;
001073 9508      	RET
                 ; 0004 02AF                         }
                 ; 0004 02B0                         break;
                 _0x8007B:
001074 c00c      	RJMP _0x80057
                 ; 0004 02B1 
                 ; 0004 02B2         case CALIBRATE_RUN:
                 _0x80062:
001075 30e8      	CPI  R30,LOW(0x8)
001076 e0a0      	LDI  R26,HIGH(0x8)
001077 07fa      	CPC  R31,R26
001078 f441      	BRNE _0x80057
                 ; 0004 02B3                         //Calibrate_View();
                 ; 0004 02B4                         headDisp = (float)impulseCounter * onePulseDose * (float)valvePulse;
001079 940e 214c 	CALL SUBOPT_0x50
00107b 01df      	MOVW R26,R30
00107c 01cb      	MOVW R24,R22
00107d 940e 2093 	CALL SUBOPT_0x3D
00107f 940e 2152 	CALL SUBOPT_0x51
                 ; 0004 02B5                         break;
                 ; 0004 02B6     }
                 _0x80057:
                 ; 0004 02B7 
                 ; 0004 02B8     //StartAllConvert_T(BUS);
                 ; 0004 02B9 }
001081 9508      	RET
                 ;
                 ;//  -  250 ms   
                 ;void HandlerEventTimer_250ms(void)
                 ; 0004 02BD {
                 _HandlerEventTimer_250ms:
                 ; 0004 02BE       switch (mode) {
001082 940e 20d3 	CALL SUBOPT_0x46
                 ; 0004 02BF         case MENU:
001084 30e1      	CPI  R30,LOW(0x1)
001085 e0a0      	LDI  R26,HIGH(0x1)
001086 07fa      	CPC  R31,R26
001087 f411      	BRNE _0x80080
                 ; 0004 02C0                         print_menu();
001088 d30f      	RCALL _print_menu
                 ; 0004 02C1                         break;
001089 c020      	RJMP _0x8007F
                 ; 0004 02C2 
                 ; 0004 02C3         case SETTINGS:
                 _0x80080:
00108a 30e2      	CPI  R30,LOW(0x2)
00108b e0a0      	LDI  R26,HIGH(0x2)
00108c 07fa      	CPC  R31,R26
00108d f0d1      	BREQ _0x8010A
                 ; 0004 02C4                         ViewSettings();
                 ; 0004 02C5                         break;
                 ; 0004 02C6 
                 ; 0004 02C7         case RUN_RECT_SET:
00108e 30e6      	CPI  R30,LOW(0x6)
00108f e0a0      	LDI  R26,HIGH(0x6)
001090 07fa      	CPC  R31,R26
001091 f0b1      	BREQ _0x8010A
                 ; 0004 02C8                         ViewSettings();
                 ; 0004 02C9                         break;
                 ; 0004 02CA 
                 ; 0004 02CB         case RUN_DIST:
001092 30e4      	CPI  R30,LOW(0x4)
001093 e0a0      	LDI  R26,HIGH(0x4)
001094 07fa      	CPC  R31,R26
001095 f411      	BRNE _0x80083
                 ; 0004 02CC                         ViewDistilation();
001096 da59      	RCALL _ViewDistilation
                 ; 0004 02CD                         break;
001097 c012      	RJMP _0x8007F
                 ; 0004 02CE 
                 ; 0004 02CF         case RUN_RECT:
                 _0x80083:
001098 30e5      	CPI  R30,LOW(0x5)
001099 e0a0      	LDI  R26,HIGH(0x5)
00109a 07fa      	CPC  R31,R26
00109b f411      	BRNE _0x80084
                 ; 0004 02D0                         ViewRectification();
00109c dbaa      	RCALL _ViewRectification
                 ; 0004 02D1                         break;
00109d c00c      	RJMP _0x8007F
                 ; 0004 02D2 
                 ; 0004 02D3         case CALIBRATE_RUN:
                 _0x80084:
00109e 30e8      	CPI  R30,LOW(0x8)
00109f e0a0      	LDI  R26,HIGH(0x8)
0010a0 07fa      	CPC  R31,R26
0010a1 f411      	BRNE _0x80085
                 ; 0004 02D4                         CalibrateView();
0010a2 dd99      	RCALL _CalibrateView
                 ; 0004 02D5                         break;
0010a3 c006      	RJMP _0x8007F
                 ; 0004 02D6 
                 ; 0004 02D7         case CALIBRATE_MOD:
                 _0x80085:
0010a4 30e9      	CPI  R30,LOW(0x9)
0010a5 e0a0      	LDI  R26,HIGH(0x9)
0010a6 07fa      	CPC  R31,R26
0010a7 f411      	BRNE _0x8007F
                 ; 0004 02D8                         ViewSettings();
                 _0x8010A:
0010a8 940e 14a8 	CALL _ViewSettings
                 ; 0004 02D9                         break;
                 ; 0004 02DA 
                 ; 0004 02DB     }
                 _0x8007F:
                 ; 0004 02DC }
0010aa 9508      	RET
                 ;
                 ;//  -  10 ms
                 ;void HandlerEventTimer_10ms(void){
                 ; 0004 02DF void HandlerEventTimer_10ms(void){
                 _HandlerEventTimer_10ms:
                 ; 0004 02E0     uint8_t but, code;
                 ; 0004 02E1     BUT_Poll();
0010ab 931a      	ST   -Y,R17
0010ac 930a      	ST   -Y,R16
                 ;	but -> R17
                 ;	code -> R16
0010ad 940e 09e9 	CALL _BUT_Poll
                 ; 0004 02E2     but = BUT_GetBut();
0010af 940e 0948 	CALL _BUT_GetBut
0010b1 2f1e      	MOV  R17,R30
                 ; 0004 02E3     if (but){
0010b2 3010      	CPI  R17,0
0010b3 f1e1      	BREQ _0x80087
                 ; 0004 02E4         code = BUT_GetBut();
0010b4 940e 0948 	CALL _BUT_GetBut
0010b6 2f0e      	MOV  R16,R30
                 ; 0004 02E5       if (code == 1) {
0010b7 3001      	CPI  R16,1
0010b8 f541      	BRNE _0x80088
                 ; 0004 02E6         //DEBUG_LED_XOR;
                 ; 0004 02E7         switch(but) {
0010b9 940e 1ef2 	CALL SUBOPT_0x10
                 ; 0004 02E8             case BUT_1_ID:{
0010bb 30e1      	CPI  R30,LOW(0x1)
0010bc e0a0      	LDI  R26,HIGH(0x1)
0010bd 07fa      	CPC  R31,R26
0010be f429      	BRNE _0x8008C
                 ; 0004 02E9                    ES_PlaceEvent(KEY_DOWN);
0010bf e0a2      	LDI  R26,LOW(2)
0010c0 940e 0a32 	CALL _ES_PlaceEvent
                 ; 0004 02EA                    cod = 'd';
0010c2 e6e4      	LDI  R30,LOW(100)
0010c3 c01a      	RJMP _0x8010B
                 ; 0004 02EB                    break;
                 ; 0004 02EC                    }
                 ; 0004 02ED 
                 ; 0004 02EE             case BUT_2_ID:{
                 _0x8008C:
0010c4 30e2      	CPI  R30,LOW(0x2)
0010c5 e0a0      	LDI  R26,HIGH(0x2)
0010c6 07fa      	CPC  R31,R26
0010c7 f429      	BRNE _0x8008D
                 ; 0004 02EF                    ES_PlaceEvent(KEY_UP);
0010c8 e0a1      	LDI  R26,LOW(1)
0010c9 940e 0a32 	CALL _ES_PlaceEvent
                 ; 0004 02F0                    cod = 'u';
0010cb e7e5      	LDI  R30,LOW(117)
0010cc c011      	RJMP _0x8010B
                 ; 0004 02F1                    break;
                 ; 0004 02F2                    }
                 ; 0004 02F3             case BUT_3_ID:{
                 _0x8008D:
0010cd 30e3      	CPI  R30,LOW(0x3)
0010ce e0a0      	LDI  R26,HIGH(0x3)
0010cf 07fa      	CPC  R31,R26
0010d0 f429      	BRNE _0x8008E
                 ; 0004 02F4                    ES_PlaceEvent(KEY_ENTER);
0010d1 e0a3      	LDI  R26,LOW(3)
0010d2 940e 0a32 	CALL _ES_PlaceEvent
                 ; 0004 02F5                    cod = 'e';
0010d4 e6e5      	LDI  R30,LOW(101)
0010d5 c008      	RJMP _0x8010B
                 ; 0004 02F6                    break;
                 ; 0004 02F7                    }
                 ; 0004 02F8             case BUT_4_ID:{
                 _0x8008E:
0010d6 30e4      	CPI  R30,LOW(0x4)
0010d7 e0a0      	LDI  R26,HIGH(0x4)
0010d8 07fa      	CPC  R31,R26
0010d9 f431      	BRNE _0x8008B
                 ; 0004 02F9                    ES_PlaceEvent(KEY_ESC);
0010da e0a4      	LDI  R26,LOW(4)
0010db 940e 0a32 	CALL _ES_PlaceEvent
                 ; 0004 02FA                    cod = 'b';
0010dd e6e2      	LDI  R30,LOW(98)
                 _0x8010B:
0010de 93e0 0af7 	STS  _cod,R30
                 ; 0004 02FB                    break;
                 ; 0004 02FC                    }
                 ; 0004 02FD         }
                 _0x8008B:
                 ; 0004 02FE       } else {
0010e0 c00f      	RJMP _0x80090
                 _0x80088:
                 ; 0004 02FF         switch(but) {
0010e1 940e 1ef2 	CALL SUBOPT_0x10
                 ; 0004 0300             case BUT_1_ID:{
0010e3 30e1      	CPI  R30,LOW(0x1)
0010e4 e0a0      	LDI  R26,HIGH(0x1)
0010e5 07fa      	CPC  R31,R26
0010e6 f411      	BRNE _0x80094
                 ; 0004 0301                    ES_PlaceEvent(KEY_L_DOWN);
0010e7 e0a9      	LDI  R26,LOW(9)
0010e8 c005      	RJMP _0x8010C
                 ; 0004 0302                    //cod = 'd';
                 ; 0004 0303                    break;
                 ; 0004 0304                    }
                 ; 0004 0305 
                 ; 0004 0306             case BUT_2_ID:{
                 _0x80094:
0010e9 30e2      	CPI  R30,LOW(0x2)
0010ea e0a0      	LDI  R26,HIGH(0x2)
0010eb 07fa      	CPC  R31,R26
0010ec f419      	BRNE _0x80093
                 ; 0004 0307                    ES_PlaceEvent(KEY_L_UP);
0010ed e0a8      	LDI  R26,LOW(8)
                 _0x8010C:
0010ee 940e 0a32 	CALL _ES_PlaceEvent
                 ; 0004 0308                    //cod = 'u';
                 ; 0004 0309                    break;
                 ; 0004 030A                    }
                 ; 0004 030B         }
                 _0x80093:
                 ; 0004 030C       }
                 _0x80090:
                 ; 0004 030D     }
                 ; 0004 030E }
                 _0x80087:
0010f0 9109      	LD   R16,Y+
0010f1 9119      	LD   R17,Y+
0010f2 9508      	RET
                 ;
                 ;//  Enter
                 ;void HandlerEventButEnter(void) {
                 ; 0004 0311 void HandlerEventButEnter(void) {
                 _HandlerEventButEnter:
                 ; 0004 0312   switch (mode) {
0010f3 940e 20d3 	CALL SUBOPT_0x46
                 ; 0004 0313         case MENU:
0010f5 30e1      	CPI  R30,LOW(0x1)
0010f6 e0a0      	LDI  R26,HIGH(0x1)
0010f7 07fa      	CPC  R31,R26
0010f8 f481      	BRNE _0x80099
                 ; 0004 0314                         menu[current_menu].items_submenu[current_pos].function();
0010f9 940e 2170 	CALL SUBOPT_0x54
0010fb 940e 2178 	CALL SUBOPT_0x55
0010fd 0fae      	ADD  R26,R30
0010fe 1fbf      	ADC  R27,R31
0010ff 9612      	ADIW R26,2
001100 91ed      	LD   R30,X+
001101 91fd      	LD   R31,X+
001102 9509      	ICALL
                 ; 0004 0315                         if (mode == MENU){
001103 91a0 0a1f 	LDS  R26,_mode
001105 30a1      	CPI  R26,LOW(0x1)
001106 f409      	BRNE _0x8009A
                 ; 0004 0316                             print_menu();
001107 d290      	RCALL _print_menu
                 ; 0004 0317                         }
                 ; 0004 0318                         break;
                 _0x8009A:
001108 c0a7      	RJMP _0x80098
                 ; 0004 0319 
                 ; 0004 031A         case SETTINGS:
                 _0x80099:
001109 30e2      	CPI  R30,LOW(0x2)
00110a e0a0      	LDI  R26,HIGH(0x2)
00110b 07fa      	CPC  R31,R26
00110c f439      	BRNE _0x8009B
                 ; 0004 031B                         SetNewParams();
00110d 940e 153f 	CALL _SetNewParams
                 ; 0004 031C                         SaveParam();
00110f 940e 1605 	CALL _SaveParam
                 ; 0004 031D                         nlcd_Clear();
001111 940e 2188 	CALL SUBOPT_0x56
                 ; 0004 031E                         mode = MENU;
                 ; 0004 031F                         break;
001113 c09c      	RJMP _0x80098
                 ; 0004 0320         case INIT:
                 _0x8009B:
001114 30e3      	CPI  R30,LOW(0x3)
001115 e0a0      	LDI  R26,HIGH(0x3)
001116 07fa      	CPC  R31,R26
001117 f429      	BRNE _0x8009C
                 ; 0004 0321                         SetSensors();
001118 940e 1682 	CALL _SetSensors
                 ; 0004 0322                         nlcd_Clear();
00111a 940e 2188 	CALL SUBOPT_0x56
                 ; 0004 0323                         mode = MENU;
                 ; 0004 0324                         break;
00111c c093      	RJMP _0x80098
                 ; 0004 0325         case END_PROC:
                 _0x8009C:
00111d 9730      	SBIW R30,0
00111e f431      	BRNE _0x8009D
                 ; 0004 0326                         mode = MENU;
00111f e0e1      	LDI  R30,LOW(1)
001120 93e0 0a1f 	STS  _mode,R30
                 ; 0004 0327                         BEEP_OFF;
001122 e0e0      	LDI  R30,LOW(0)
001123 bfe1      	OUT  0x31,R30
                 ; 0004 0328                         nlcd_Clear();
001124 c088      	RJMP _0x8010D
                 ; 0004 0329                         print_menu();
                 ; 0004 032A                         break;
                 ; 0004 032B         case RUN_DIST:
                 _0x8009D:
001125 30e4      	CPI  R30,LOW(0x4)
001126 e0a0      	LDI  R26,HIGH(0x4)
001127 07fa      	CPC  R31,R26
001128 f4b1      	BRNE _0x8009E
                 ; 0004 032C                         if (abortProcess) {
001129 91e0 0a20 	LDS  R30,_abortProcess
00112b 30e0      	CPI  R30,0
00112c f019      	BREQ _0x8009F
                 ; 0004 032D                             StopProcess();
00112d 940e 218e 	CALL SUBOPT_0x57
                 ; 0004 032E                             BEEP_OFF;
                 ; 0004 032F                             mode = MENU;
                 ; 0004 0330                             nlcd_Clear();
                 ; 0004 0331                             print_menu();
                 ; 0004 0332                         } else { //    
00112f c00e      	RJMP _0x800A0
                 _0x8009F:
                 ; 0004 0333                             distSettingMode ++;
001130 91e0 0f0d 	LDS  R30,_distSettingMode
001132 5fef      	SUBI R30,-LOW(1)
001133 93e0 0f0d 	STS  _distSettingMode,R30
                 ; 0004 0334                             distSettingMode %= 3;
001135 91a0 0f0d 	LDS  R26,_distSettingMode
001137 27bb      	CLR  R27
001138 e0e3      	LDI  R30,LOW(3)
001139 e0f0      	LDI  R31,HIGH(3)
00113a 940e 2634 	CALL __MODW21
00113c 93e0 0f0d 	STS  _distSettingMode,R30
                 ; 0004 0335                         }
                 _0x800A0:
                 ; 0004 0336                         break;
00113e c071      	RJMP _0x80098
                 ; 0004 0337         case RUN_RECT:
                 _0x8009E:
00113f 30e5      	CPI  R30,LOW(0x5)
001140 e0a0      	LDI  R26,HIGH(0x5)
001141 07fa      	CPC  R31,R26
001142 f529      	BRNE _0x800A1
                 ; 0004 0338                         if (abortProcess) {
001143 91e0 0a20 	LDS  R30,_abortProcess
001145 30e0      	CPI  R30,0
001146 f019      	BREQ _0x800A2
                 ; 0004 0339                             StopProcess();
001147 940e 218e 	CALL SUBOPT_0x57
                 ; 0004 033A                             BEEP_OFF;
                 ; 0004 033B                             mode = MENU;
                 ; 0004 033C                             nlcd_Clear();
                 ; 0004 033D                             print_menu();
                 ; 0004 033E                         } else {
001149 c01d      	RJMP _0x800A3
                 _0x800A2:
                 ; 0004 033F                         //   
                 ; 0004 0340                             nlcd_Clear();
00114a 940e 083c 	CALL _nlcd_Clear
                 ; 0004 0341                             mode = RUN_RECT_SET;
00114c e0e6      	LDI  R30,LOW(6)
00114d 93e0 0a1f 	STS  _mode,R30
                 ; 0004 0342                             param_id = 4;
00114f e0e4      	LDI  R30,LOW(4)
001150 940e 20bc 	CALL SUBOPT_0x43
                 ; 0004 0343                             params[param_id].value = t_kolona_down * 100;
001152 93ff      	PUSH R31
001153 93ef      	PUSH R30
001154 940e 215d 	CALL SUBOPT_0x52
001156 940e 2196 	CALL SUBOPT_0x58
001158 940e 24c5 	CALL __MULF12
00115a 91af      	POP  R26
00115b 91bf      	POP  R27
00115c 940e 2402 	CALL __CFD1U
00115e 93ed      	ST   X+,R30
00115f 93fc      	ST   X,R31
                 ; 0004 0344                             last_menu = current_menu;
001160 940e 20c4 	CALL SUBOPT_0x44
                 ; 0004 0345                             last_pos = current_pos;
                 ; 0004 0346                             current_menu = MENU_RECT;
                 ; 0004 0347                             current_pos = 2; //   
001162 e0e2      	LDI  R30,LOW(2)
001163 93e0 0af9 	STS  _current_pos,R30
                 ; 0004 0348                             ViewSettings();
001165 940e 14a8 	CALL _ViewSettings
                 ; 0004 0349                         }
                 _0x800A3:
                 ; 0004 034A                         break;
001167 c048      	RJMP _0x80098
                 ; 0004 034B 
                 ; 0004 034C         case RUN_RECT_SET:
                 _0x800A1:
001168 30e6      	CPI  R30,LOW(0x6)
001169 e0a0      	LDI  R26,HIGH(0x6)
00116a 07fa      	CPC  R31,R26
00116b f4c9      	BRNE _0x800A4
                 ; 0004 034D                         SetNewParams();
00116c 940e 153f 	CALL _SetNewParams
                 ; 0004 034E                         SaveParam();
00116e 940e 1605 	CALL _SaveParam
                 ; 0004 034F                         current_menu = last_menu;
001170 940e 219b 	CALL SUBOPT_0x59
                 ; 0004 0350                         current_pos = last_pos;
                 ; 0004 0351                         startStop = 1;       //   
001172 93e0 0a22 	STS  _startStop,R30
                 ; 0004 0352                         ssCounter = 0;
001174 940e 201c 	CALL SUBOPT_0x2E
                 ; 0004 0353                         ssTrig = 0;
                 ; 0004 0354                         impulseCounter = 0;
001176 940e 2016 	CALL SUBOPT_0x2D
                 ; 0004 0355                         pwmOn = 1;
001178 e0e1      	LDI  R30,LOW(1)
001179 93e0 0a2c 	STS  _pwmOn,R30
                 ; 0004 0356                         t_kuba_avg = t_kuba;
00117b 940e 2137 	CALL SUBOPT_0x4D
00117d 940e 20e6 	CALL SUBOPT_0x49
                 ; 0004 0357                         t_kuba_sum = 0.0;
                 ; 0004 0358                         t_kuba_count = 0;
                 ; 0004 0359                         CalculateBodySpeed();
                 ; 0004 035A                         //VALVE_OPN;
                 ; 0004 035B                         nlcd_Clear();
00117f 940e 083c 	CALL _nlcd_Clear
                 ; 0004 035C                         mode = RUN_RECT;
001181 e0e5      	LDI  R30,LOW(5)
001182 93e0 0a1f 	STS  _mode,R30
                 ; 0004 035D                         break;
001184 c02b      	RJMP _0x80098
                 ; 0004 035E 
                 ; 0004 035F        case CALIBRATE:
                 _0x800A4:
001185 30e7      	CPI  R30,LOW(0x7)
001186 e0a0      	LDI  R26,HIGH(0x7)
001187 07fa      	CPC  R31,R26
001188 f429      	BRNE _0x800A5
                 ; 0004 0360                        // mode = CALIBRATE_RUN;   //   
                 ; 0004 0361                         nlcd_Clear();
001189 940e 083c 	CALL _nlcd_Clear
                 ; 0004 0362                         CalibrateRun();
00118b dc6a      	RCALL _CalibrateRun
                 ; 0004 0363                         CalibrateView();
00118c dcaf      	RCALL _CalibrateView
                 ; 0004 0364                         break;
00118d c022      	RJMP _0x80098
                 ; 0004 0365 
                 ; 0004 0366        case CALIBRATE_RUN:                      //  50   
                 _0x800A5:
00118e 30e8      	CPI  R30,LOW(0x8)
00118f e0a0      	LDI  R26,HIGH(0x8)
001190 07fa      	CPC  R31,R26
001191 f481      	BRNE _0x800A6
                 ; 0004 0367                         if (abortProcess) {    //  
001192 91e0 0a20 	LDS  R30,_abortProcess
001194 30e0      	CPI  R30,0
001195 f059      	BREQ _0x800A7
                 ; 0004 0368                             VALVE_CLS;
001196 98db      	CBI  0x1B,3
                 ; 0004 0369                             pwmOn = 0;
001197 e0e0      	LDI  R30,LOW(0)
001198 93e0 0a2c 	STS  _pwmOn,R30
                 ; 0004 036A                             abortProcess = 0;
00119a 93e0 0a20 	STS  _abortProcess,R30
                 ; 0004 036B                             mode = MENU;
00119c e0e1      	LDI  R30,LOW(1)
00119d 93e0 0a1f 	STS  _mode,R30
                 ; 0004 036C                             nlcd_Clear();
00119f 940e 2012 	CALL SUBOPT_0x2C
                 ; 0004 036D                             print_menu();
                 ; 0004 036E                         }
                 ; 0004 036F                         break;
                 _0x800A7:
0011a1 c00e      	RJMP _0x80098
                 ; 0004 0370 
                 ; 0004 0371        case CALIBRATE_MOD:
                 _0x800A6:
0011a2 30e9      	CPI  R30,LOW(0x9)
0011a3 e0a0      	LDI  R26,HIGH(0x9)
0011a4 07fa      	CPC  R31,R26
0011a5 f451      	BRNE _0x80098
                 ; 0004 0372                         SetNewParams();                 //  ,      
0011a6 940e 153f 	CALL _SetNewParams
                 ; 0004 0373                         CalibrateStop();
0011a8 dc72      	RCALL _CalibrateStop
                 ; 0004 0374                         current_menu = last_menu;
0011a9 940e 219b 	CALL SUBOPT_0x59
                 ; 0004 0375                         current_pos = last_pos;
                 ; 0004 0376                         mode = MENU;
0011ab 93e0 0a1f 	STS  _mode,R30
                 ; 0004 0377                         nlcd_Clear();
                 _0x8010D:
0011ad 940e 083c 	CALL _nlcd_Clear
                 ; 0004 0378                         print_menu();
0011af d1e8      	RCALL _print_menu
                 ; 0004 0379                         break;
                 ; 0004 037A     }
                 _0x80098:
                 ; 0004 037B }
0011b0 9508      	RET
                 ;
                 ;//  Esc
                 ;void HandlerEventButEsc(void) {
                 ; 0004 037E void HandlerEventButEsc(void) {
                 _HandlerEventButEsc:
                 ; 0004 037F   switch (mode) {
0011b1 940e 20d3 	CALL SUBOPT_0x46
                 ; 0004 0380 
                 ; 0004 0381         case SETTINGS:
0011b3 30e2      	CPI  R30,LOW(0x2)
0011b4 e0a0      	LDI  R26,HIGH(0x2)
0011b5 07fa      	CPC  R31,R26
0011b6 f419      	BRNE _0x800AC
                 ; 0004 0382                         nlcd_Clear();
0011b7 940e 2188 	CALL SUBOPT_0x56
                 ; 0004 0383                         mode = MENU;
                 ; 0004 0384                         break;
0011b9 c054      	RJMP _0x800AB
                 ; 0004 0385         case INIT:
                 _0x800AC:
0011ba 30e3      	CPI  R30,LOW(0x3)
0011bb e0a0      	LDI  R26,HIGH(0x3)
0011bc 07fa      	CPC  R31,R26
0011bd f419      	BRNE _0x800AD
                 ; 0004 0386                         nlcd_Clear();
0011be 940e 2188 	CALL SUBOPT_0x56
                 ; 0004 0387                         mode = MENU;
                 ; 0004 0388                         break;
0011c0 c04d      	RJMP _0x800AB
                 ; 0004 0389 
                 ; 0004 038A         case MENU:
                 _0x800AD:
0011c1 30e1      	CPI  R30,LOW(0x1)
0011c2 e0a0      	LDI  R26,HIGH(0x1)
0011c3 07fa      	CPC  R31,R26
0011c4 f471      	BRNE _0x800AE
                 ; 0004 038B                         if (current_menu != 0) {
0011c5 91e0 0af8 	LDS  R30,_current_menu
0011c7 30e0      	CPI  R30,0
0011c8 f011      	BREQ _0x800AF
                 ; 0004 038C                             goto_menu();
0011c9 d1ab      	RCALL _goto_menu
                 ; 0004 038D                             print_menu();
0011ca c006      	RJMP _0x8010E
                 ; 0004 038E                         } else if (current_menu == 0){
                 _0x800AF:
0011cb 91e0 0af8 	LDS  R30,_current_menu
0011cd 30e0      	CPI  R30,0
0011ce f419      	BRNE _0x800B1
                 ; 0004 038F                            // mode = GENERAL;
                 ; 0004 0390                             nlcd_Clear();
0011cf 940e 083c 	CALL _nlcd_Clear
                 ; 0004 0391                             print_menu();
                 _0x8010E:
0011d1 d1c6      	RCALL _print_menu
                 ; 0004 0392                            // ES_PlaceEvent(EVENT_TIMER_1S);
                 ; 0004 0393                         }
                 ; 0004 0394                         break;
                 _0x800B1:
0011d2 c03b      	RJMP _0x800AB
                 ; 0004 0395 
                 ; 0004 0396         case END_PROC:
                 _0x800AE:
0011d3 9730      	SBIW R30,0
0011d4 f441      	BRNE _0x800B2
                 ; 0004 0397                         mode = MENU;
0011d5 e0e1      	LDI  R30,LOW(1)
0011d6 93e0 0a1f 	STS  _mode,R30
                 ; 0004 0398                         BEEP_OFF;
0011d8 e0e0      	LDI  R30,LOW(0)
0011d9 bfe1      	OUT  0x31,R30
                 ; 0004 0399                         nlcd_Clear();
0011da 940e 2012 	CALL SUBOPT_0x2C
                 ; 0004 039A                         print_menu();
                 ; 0004 039B                         break;
0011dc c031      	RJMP _0x800AB
                 ; 0004 039C         case RUN_DIST:
                 _0x800B2:
0011dd 30e4      	CPI  R30,LOW(0x4)
0011de e0a0      	LDI  R26,HIGH(0x4)
0011df 07fa      	CPC  R31,R26
0011e0 f149      	BREQ _0x8010F
                 ; 0004 039D                         abortProcess = !abortProcess;
                 ; 0004 039E                         nlcd_Clear();
                 ; 0004 039F                         break;
                 ; 0004 03A0 
                 ; 0004 03A1         case RUN_RECT:
0011e1 30e5      	CPI  R30,LOW(0x5)
0011e2 e0a0      	LDI  R26,HIGH(0x5)
0011e3 07fa      	CPC  R31,R26
0011e4 f479      	BRNE _0x800B4
                 ; 0004 03A2                         if (timerSignOn) {
0011e5 20dd      	TST  R13
0011e6 f041      	BREQ _0x800B5
                 ; 0004 03A3                             BEEP_OFF;
0011e7 e0e0      	LDI  R30,LOW(0)
0011e8 bfe1      	OUT  0x31,R30
                 ; 0004 03A4                             timerSignOn = 0;
0011e9 24dd      	CLR  R13
                 ; 0004 03A5                             timerSign = 0;
0011ea 93e0 0f03 	STS  _timerSign,R30
0011ec 93e0 0f04 	STS  _timerSign+1,R30
                 ; 0004 03A6                         } else {
0011ee c004      	RJMP _0x800B6
                 _0x800B5:
                 ; 0004 03A7                             abortProcess = !abortProcess;
0011ef 91e0 0a20 	LDS  R30,_abortProcess
0011f1 940e 21a5 	CALL SUBOPT_0x5A
                 ; 0004 03A8                             nlcd_Clear();
                 ; 0004 03A9                         }
                 _0x800B6:
                 ; 0004 03AA                         break;
0011f3 c01a      	RJMP _0x800AB
                 ; 0004 03AB 
                 ; 0004 03AC         case RUN_RECT_SET:
                 _0x800B4:
0011f4 30e6      	CPI  R30,LOW(0x6)
0011f5 e0a0      	LDI  R26,HIGH(0x6)
0011f6 07fa      	CPC  R31,R26
0011f7 f471      	BRNE _0x800B7
                 ; 0004 03AD                         current_menu = last_menu;
0011f8 91e0 0afa 	LDS  R30,_last_menu
0011fa 93e0 0af8 	STS  _current_menu,R30
                 ; 0004 03AE                         current_pos = last_pos;
0011fc 91e0 0afb 	LDS  R30,_last_pos
0011fe 93e0 0af9 	STS  _current_pos,R30
                 ; 0004 03AF                         nlcd_Clear();
001200 940e 083c 	CALL _nlcd_Clear
                 ; 0004 03B0                         mode = RUN_RECT;
001202 e0e5      	LDI  R30,LOW(5)
001203 93e0 0a1f 	STS  _mode,R30
                 ; 0004 03B1                         break;
001205 c008      	RJMP _0x800AB
                 ; 0004 03B2 
                 ; 0004 03B3         case CALIBRATE_RUN:
                 _0x800B7:
001206 30e8      	CPI  R30,LOW(0x8)
001207 e0a0      	LDI  R26,HIGH(0x8)
001208 07fa      	CPC  R31,R26
001209 f421      	BRNE _0x800AB
                 ; 0004 03B4                         abortProcess = !abortProcess;
                 _0x8010F:
00120a 91e0 0a20 	LDS  R30,_abortProcess
00120c 940e 21a5 	CALL SUBOPT_0x5A
                 ; 0004 03B5                         nlcd_Clear();
                 ; 0004 03B6                         //Calibrate_View();
                 ; 0004 03B7                         break;
                 ; 0004 03B8 
                 ; 0004 03B9      }
                 _0x800AB:
                 ; 0004 03BA }
00120e 9508      	RET
                 ;
                 ;//  Up
                 ;void HandlerEventButUp(void) {
                 ; 0004 03BD void HandlerEventButUp(void) {
                 _HandlerEventButUp:
                 ; 0004 03BE    switch (mode) {
00120f 940e 20d3 	CALL SUBOPT_0x46
                 ; 0004 03BF         case MENU:
001211 30e1      	CPI  R30,LOW(0x1)
001212 e0a0      	LDI  R26,HIGH(0x1)
001213 07fa      	CPC  R31,R26
001214 f489      	BRNE _0x800BC
                 ; 0004 03C0                         if (current_pos <= 0) {
001215 91a0 0af9 	LDS  R26,_current_pos
001217 30a0      	CPI  R26,0
001218 f429      	BRNE _0x800BD
                 ; 0004 03C1                                 current_pos=menu[current_menu].num_selections-1;
001219 940e 2170 	CALL SUBOPT_0x54
00121b 940e 21ab 	CALL SUBOPT_0x5B
00121d c002      	RJMP _0x80110
                 ; 0004 03C2                         } else {
                 _0x800BD:
                 ; 0004 03C3                                 current_pos--;
00121e 91e0 0af9 	LDS  R30,_current_pos
                 _0x80110:
001220 50e1      	SUBI R30,LOW(1)
001221 93e0 0af9 	STS  _current_pos,R30
                 ; 0004 03C4                         }
                 ; 0004 03C5                         nlcd_Clear();
001223 940e 2012 	CALL SUBOPT_0x2C
                 ; 0004 03C6                         print_menu();
                 ; 0004 03C7                         break;
001225 c052      	RJMP _0x800BB
                 ; 0004 03C8 
                 ; 0004 03C9         case SETTINGS:
                 _0x800BC:
001226 30e2      	CPI  R30,LOW(0x2)
001227 e0a0      	LDI  R26,HIGH(0x2)
001228 07fa      	CPC  R31,R26
001229 f409      	BRNE _0x800BF
                 ; 0004 03CA                         nlcd_Clear();
00122a c049      	RJMP _0x80111
                 ; 0004 03CB                         ParamInc();
                 ; 0004 03CC                         break;
                 ; 0004 03CD 
                 ; 0004 03CE         case RUN_RECT_SET:
                 _0x800BF:
00122b 30e6      	CPI  R30,LOW(0x6)
00122c e0a0      	LDI  R26,HIGH(0x6)
00122d 07fa      	CPC  R31,R26
00122e f409      	BRNE _0x800C0
                 ; 0004 03CF                         nlcd_Clear();
00122f c044      	RJMP _0x80111
                 ; 0004 03D0                         ParamInc();
                 ; 0004 03D1                         break;
                 ; 0004 03D2 
                 ; 0004 03D3         case RUN_DIST:
                 _0x800C0:
001230 30e4      	CPI  R30,LOW(0x4)
001231 e0a0      	LDI  R26,HIGH(0x4)
001232 07fa      	CPC  R31,R26
001233 f591      	BRNE _0x800C1
                 ; 0004 03D4                         switch(distSettingMode) {
001234 940e 21b0 	CALL SUBOPT_0x5C
                 ; 0004 03D5                             case DIST_SET_MODE_PWR:
001236 f459      	BRNE _0x800C5
                 ; 0004 03D6                                 {
                 ; 0004 03D7                                     heater_power += 1;   //5
001237 91e0 0a2b 	LDS  R30,_heater_power
001239 5fef      	SUBI R30,-LOW(1)
00123a 940e 21b3 	CALL SUBOPT_0x5D
                 ; 0004 03D8                                     if (heater_power > 100){
00123c 36a5      	CPI  R26,LOW(0x65)
00123d f018      	BRLO _0x800C6
                 ; 0004 03D9                                         heater_power = 100;
00123e e6e4      	LDI  R30,LOW(100)
00123f 93e0 0a2b 	STS  _heater_power,R30
                 ; 0004 03DA                                     }
                 ; 0004 03DB                                     break;
                 _0x800C6:
001241 c023      	RJMP _0x800C4
                 ; 0004 03DC                                 }
                 ; 0004 03DD                             case DIST_SET_MODE_VALV:
                 _0x800C5:
001242 30e1      	CPI  R30,LOW(0x1)
001243 e0a0      	LDI  R26,HIGH(0x1)
001244 07fa      	CPC  R31,R26
001245 f479      	BRNE _0x800C7
                 ; 0004 03DE                                 {
                 ; 0004 03DF                                     distValveMode ++;
001246 91e0 0f0e 	LDS  R30,_distValveMode
001248 5fef      	SUBI R30,-LOW(1)
001249 93e0 0f0e 	STS  _distValveMode,R30
                 ; 0004 03E0                                     distValveMode %= 3;
00124b 91a0 0f0e 	LDS  R26,_distValveMode
00124d 27bb      	CLR  R27
00124e e0e3      	LDI  R30,LOW(3)
00124f e0f0      	LDI  R31,HIGH(3)
001250 940e 2634 	CALL __MODW21
001252 93e0 0f0e 	STS  _distValveMode,R30
                 ; 0004 03E1                                     break;
001254 c010      	RJMP _0x800C4
                 ; 0004 03E2                                 }
                 ; 0004 03E3                             case DIST_SET_MODE_FLOW:
                 _0x800C7:
001255 30e2      	CPI  R30,LOW(0x2)
001256 e0a0      	LDI  R26,HIGH(0x2)
001257 07fa      	CPC  R31,R26
001258 f461      	BRNE _0x800C4
                 ; 0004 03E4                                 {
                 ; 0004 03E5                                     if (Votb < 2000.0) {
001259 940e 21b8 	CALL SUBOPT_0x5E
00125b f440      	BRSH _0x800C9
                 ; 0004 03E6                                         Votb += 10;
00125c 940e 1ff8 	CALL SUBOPT_0x28
00125e 940e 205f 	CALL SUBOPT_0x35
001260 940e 2475 	CALL __ADDF12
001262 940e 1f21 	CALL SUBOPT_0x15
                 ; 0004 03E7                                     }
                 ; 0004 03E8                                     CalculateDistBodySpeed();
                 _0x800C9:
001264 db0b      	RCALL _CalculateDistBodySpeed
                 ; 0004 03E9                                     break;
                 ; 0004 03EA                                 }
                 ; 0004 03EB 
                 ; 0004 03EC                         }
                 _0x800C4:
                 ; 0004 03ED                         break;
001265 c012      	RJMP _0x800BB
                 ; 0004 03EE         case RUN_RECT:
                 _0x800C1:
001266 30e5      	CPI  R30,LOW(0x5)
001267 e0a0      	LDI  R26,HIGH(0x5)
001268 07fa      	CPC  R31,R26
001269 f431      	BRNE _0x800CA
                 ; 0004 03EF                         if (!startStop) {
00126a 91e0 0a22 	LDS  R30,_startStop
00126c 30e0      	CPI  R30,0
00126d f409      	BRNE _0x800CB
                 ; 0004 03F0                             VALVE_OPN;
00126e 9adb      	SBI  0x1B,3
                 ; 0004 03F1                         }
                 ; 0004 03F2                         break;
                 _0x800CB:
00126f c008      	RJMP _0x800BB
                 ; 0004 03F3 
                 ; 0004 03F4         case CALIBRATE_MOD:                 //    
                 _0x800CA:
001270 30e9      	CPI  R30,LOW(0x9)
001271 e0a0      	LDI  R26,HIGH(0x9)
001272 07fa      	CPC  R31,R26
001273 f421      	BRNE _0x800BB
                 ; 0004 03F5                         nlcd_Clear();
                 _0x80111:
001274 940e 083c 	CALL _nlcd_Clear
                 ; 0004 03F6                         ParamInc();
001276 940e 141d 	CALL _ParamInc
                 ; 0004 03F7                         break;
                 ; 0004 03F8     }
                 _0x800BB:
                 ; 0004 03F9 }
001278 9508      	RET
                 ;
                 ;//  Down
                 ;void HandlerEventButDown(void) {
                 ; 0004 03FC void HandlerEventButDown(void) {
                 _HandlerEventButDown:
                 ; 0004 03FD   switch (mode) {
001279 940e 20d3 	CALL SUBOPT_0x46
                 ; 0004 03FE        case MENU:
00127b 30e1      	CPI  R30,LOW(0x1)
00127c e0a0      	LDI  R26,HIGH(0x1)
00127d 07fa      	CPC  R31,R26
00127e f4b1      	BRNE _0x800D0
                 ; 0004 03FF                          if(current_pos>=menu[current_menu].num_selections-1) {
00127f 940e 2170 	CALL SUBOPT_0x54
001281 940e 21ab 	CALL SUBOPT_0x5B
001283 e0f0      	LDI  R31,0
001284 9731      	SBIW R30,1
001285 91a0 0af9 	LDS  R26,_current_pos
001287 e0b0      	LDI  R27,0
001288 17ae      	CP   R26,R30
001289 07bf      	CPC  R27,R31
00128a f014      	BRLT _0x800D1
                 ; 0004 0400                              current_pos=0;
00128b e0e0      	LDI  R30,LOW(0)
00128c c003      	RJMP _0x80112
                 ; 0004 0401                          } else {
                 _0x800D1:
                 ; 0004 0402                              current_pos++;
00128d 91e0 0af9 	LDS  R30,_current_pos
00128f 5fef      	SUBI R30,-LOW(1)
                 _0x80112:
001290 93e0 0af9 	STS  _current_pos,R30
                 ; 0004 0403                          }
                 ; 0004 0404                          nlcd_Clear();
001292 940e 2012 	CALL SUBOPT_0x2C
                 ; 0004 0405                          print_menu();
                 ; 0004 0406                          break;
001294 c055      	RJMP _0x800CF
                 ; 0004 0407 
                 ; 0004 0408        case SETTINGS:
                 _0x800D0:
001295 30e2      	CPI  R30,LOW(0x2)
001296 e0a0      	LDI  R26,HIGH(0x2)
001297 07fa      	CPC  R31,R26
001298 f409      	BRNE _0x800D3
                 ; 0004 0409                          nlcd_Clear();
001299 c04c      	RJMP _0x80113
                 ; 0004 040A                          ParamDec();
                 ; 0004 040B                          break;
                 ; 0004 040C 
                 ; 0004 040D        case RUN_RECT_SET:
                 _0x800D3:
00129a 30e6      	CPI  R30,LOW(0x6)
00129b e0a0      	LDI  R26,HIGH(0x6)
00129c 07fa      	CPC  R31,R26
00129d f409      	BRNE _0x800D4
                 ; 0004 040E                         nlcd_Clear();
00129e c047      	RJMP _0x80113
                 ; 0004 040F                         ParamDec();
                 ; 0004 0410                         break;
                 ; 0004 0411 
                 ; 0004 0412        case RUN_DIST:
                 _0x800D4:
00129f 30e4      	CPI  R30,LOW(0x4)
0012a0 e0a0      	LDI  R26,HIGH(0x4)
0012a1 07fa      	CPC  R31,R26
0012a2 f5a9      	BRNE _0x800D5
                 ; 0004 0413                         switch(distSettingMode) {
0012a3 940e 21b0 	CALL SUBOPT_0x5C
                 ; 0004 0414                             case DIST_SET_MODE_PWR:
0012a5 f459      	BRNE _0x800D9
                 ; 0004 0415                                 {
                 ; 0004 0416                                     heater_power -= 1; //5
0012a6 91e0 0a2b 	LDS  R30,_heater_power
0012a8 50e1      	SUBI R30,LOW(1)
0012a9 940e 21b3 	CALL SUBOPT_0x5D
                 ; 0004 0417                                     if (heater_power < 1){
0012ab 30a1      	CPI  R26,LOW(0x1)
0012ac f418      	BRSH _0x800DA
                 ; 0004 0418                                         heater_power = 1;
0012ad e0e1      	LDI  R30,LOW(1)
0012ae 93e0 0a2b 	STS  _heater_power,R30
                 ; 0004 0419                                     }
                 ; 0004 041A                                     break;
                 _0x800DA:
0012b0 c026      	RJMP _0x800D8
                 ; 0004 041B                                 }
                 ; 0004 041C                             case DIST_SET_MODE_VALV:
                 _0x800D9:
0012b1 30e1      	CPI  R30,LOW(0x1)
0012b2 e0a0      	LDI  R26,HIGH(0x1)
0012b3 07fa      	CPC  R31,R26
0012b4 f461      	BRNE _0x800DB
                 ; 0004 041D                                 {
                 ; 0004 041E                                     if (distValveMode > 0) {
0012b5 91a0 0f0e 	LDS  R26,_distValveMode
0012b7 30a1      	CPI  R26,LOW(0x1)
0012b8 f020      	BRLO _0x800DC
                 ; 0004 041F                                         distValveMode --;
0012b9 91e0 0f0e 	LDS  R30,_distValveMode
0012bb 50e1      	SUBI R30,LOW(1)
0012bc c001      	RJMP _0x80114
                 ; 0004 0420                                     } else {
                 _0x800DC:
                 ; 0004 0421                                         distValveMode = 2;
0012bd e0e2      	LDI  R30,LOW(2)
                 _0x80114:
0012be 93e0 0f0e 	STS  _distValveMode,R30
                 ; 0004 0422                                     }
                 ; 0004 0423                                     break;
0012c0 c016      	RJMP _0x800D8
                 ; 0004 0424                                 }
                 ; 0004 0425                             case DIST_SET_MODE_FLOW:
                 _0x800DB:
0012c1 30e2      	CPI  R30,LOW(0x2)
0012c2 e0a0      	LDI  R26,HIGH(0x2)
0012c3 07fa      	CPC  R31,R26
0012c4 f491      	BRNE _0x800D8
                 ; 0004 0426                                 {
                 ; 0004 0427                                     if (Votb >= 20.0) {
0012c5 940e 2072 	CALL SUBOPT_0x38
                +
0012c7 e0e0     +LDI R30 , LOW ( 0x41A00000 )
0012c8 e0f0     +LDI R31 , HIGH ( 0x41A00000 )
0012c9 ea60     +LDI R22 , BYTE3 ( 0x41A00000 )
0012ca e471     +LDI R23 , BYTE4 ( 0x41A00000 )
                 	__GETD1N 0x41A00000
0012cb 940e 2558 	CALL __CMPF12
0012cd f040      	BRLO _0x800DF
                 ; 0004 0428                                         Votb -= 10;
0012ce 940e 1ff8 	CALL SUBOPT_0x28
0012d0 940e 205f 	CALL SUBOPT_0x35
0012d2 940e 246e 	CALL __SUBF12
0012d4 940e 1f21 	CALL SUBOPT_0x15
                 ; 0004 0429                                     }
                 ; 0004 042A                                     CalculateDistBodySpeed();
                 _0x800DF:
0012d6 da99      	RCALL _CalculateDistBodySpeed
                 ; 0004 042B                                     break;
                 ; 0004 042C                                 }
                 ; 0004 042D 
                 ; 0004 042E                         }
                 _0x800D8:
                 ; 0004 042F                         break;
0012d7 c012      	RJMP _0x800CF
                 ; 0004 0430        case RUN_RECT:
                 _0x800D5:
0012d8 30e5      	CPI  R30,LOW(0x5)
0012d9 e0a0      	LDI  R26,HIGH(0x5)
0012da 07fa      	CPC  R31,R26
0012db f431      	BRNE _0x800E0
                 ; 0004 0431                         if (!startStop) {
0012dc 91e0 0a22 	LDS  R30,_startStop
0012de 30e0      	CPI  R30,0
0012df f409      	BRNE _0x800E1
                 ; 0004 0432                             VALVE_CLS;
0012e0 98db      	CBI  0x1B,3
                 ; 0004 0433                         }
                 ; 0004 0434                         break;
                 _0x800E1:
0012e1 c008      	RJMP _0x800CF
                 ; 0004 0435 
                 ; 0004 0436        case CALIBRATE_MOD:                 //    
                 _0x800E0:
0012e2 30e9      	CPI  R30,LOW(0x9)
0012e3 e0a0      	LDI  R26,HIGH(0x9)
0012e4 07fa      	CPC  R31,R26
0012e5 f421      	BRNE _0x800CF
                 ; 0004 0437                         nlcd_Clear();
                 _0x80113:
0012e6 940e 083c 	CALL _nlcd_Clear
                 ; 0004 0438                         ParamDec();
0012e8 940e 1433 	CALL _ParamDec
                 ; 0004 0439                         break;
                 ; 0004 043A     }
                 _0x800CF:
                 ; 0004 043B }
0012ea 9508      	RET
                 ;
                 ;
                 ;
                 ;void HandlerEventButLUp(void){
                 ; 0004 043F void HandlerEventButLUp(void){
                 _HandlerEventButLUp:
                 ; 0004 0440    switch (mode) {
0012eb 940e 20d3 	CALL SUBOPT_0x46
                 ; 0004 0441 
                 ; 0004 0442         case SETTINGS:
0012ed 30e2      	CPI  R30,LOW(0x2)
0012ee e0a0      	LDI  R26,HIGH(0x2)
0012ef 07fa      	CPC  R31,R26
0012f0 f1b1      	BREQ _0x80115
                 ; 0004 0443                         nlcd_Clear();
                 ; 0004 0444                         ParamDec();
                 ; 0004 0445                         Param10Inc();
                 ; 0004 0446                         break;
                 ; 0004 0447 
                 ; 0004 0448         case RUN_RECT_SET:
0012f1 30e6      	CPI  R30,LOW(0x6)
0012f2 e0a0      	LDI  R26,HIGH(0x6)
0012f3 07fa      	CPC  R31,R26
0012f4 f191      	BREQ _0x80115
                 ; 0004 0449                         nlcd_Clear();
                 ; 0004 044A                         ParamDec();
                 ; 0004 044B                         Param10Inc();
                 ; 0004 044C                         break;
                 ; 0004 044D         case RUN_RECT:
0012f5 30e5      	CPI  R30,LOW(0x5)
0012f6 e0a0      	LDI  R26,HIGH(0x5)
0012f7 07fa      	CPC  R31,R26
0012f8 f449      	BRNE _0x800E8
                 ; 0004 044E                         if (!startStop) {
0012f9 91e0 0a22 	LDS  R30,_startStop
0012fb 30e0      	CPI  R30,0
0012fc f421      	BRNE _0x800E9
                 ; 0004 044F                             CalculateHead();
0012fd da27      	RCALL _CalculateHead
                 ; 0004 0450                             pwmOn = 1;
0012fe e0e1      	LDI  R30,LOW(1)
0012ff 93e0 0a2c 	STS  _pwmOn,R30
                 ; 0004 0451                         }
                 ; 0004 0452                         break;
                 _0x800E9:
001301 c02b      	RJMP _0x800E5
                 ; 0004 0453         case RUN_DIST:
                 _0x800E8:
001302 30e4      	CPI  R30,LOW(0x4)
001303 e0a0      	LDI  R26,HIGH(0x4)
001304 07fa      	CPC  R31,R26
001305 f4e9      	BRNE _0x800EA
                 ; 0004 0454                         switch(distSettingMode) {
001306 940e 21b0 	CALL SUBOPT_0x5C
                 ; 0004 0455                             case DIST_SET_MODE_PWR:
001308 f459      	BRNE _0x800EE
                 ; 0004 0456                                 {
                 ; 0004 0457                                     heater_power += 4;
001309 91e0 0a2b 	LDS  R30,_heater_power
00130b 5fec      	SUBI R30,-LOW(4)
00130c 940e 21b3 	CALL SUBOPT_0x5D
                 ; 0004 0458                                     if (heater_power > 100){
00130e 36a5      	CPI  R26,LOW(0x65)
00130f f018      	BRLO _0x800EF
                 ; 0004 0459                                         heater_power = 100;
001310 e6e4      	LDI  R30,LOW(100)
001311 93e0 0a2b 	STS  _heater_power,R30
                 ; 0004 045A                                     }
                 ; 0004 045B                                     break;
                 _0x800EF:
001313 c00e      	RJMP _0x800ED
                 ; 0004 045C                                 }
                 ; 0004 045D 
                 ; 0004 045E                             case DIST_SET_MODE_FLOW:
                 _0x800EE:
001314 30e2      	CPI  R30,LOW(0x2)
001315 e0a0      	LDI  R26,HIGH(0x2)
001316 07fa      	CPC  R31,R26
001317 f451      	BRNE _0x800ED
                 ; 0004 045F                                 {
                 ; 0004 0460                                     if (Votb < 2000.0) {
001318 940e 21b8 	CALL SUBOPT_0x5E
00131a f430      	BRSH _0x800F1
                 ; 0004 0461                                         Votb += 90;
00131b 940e 21c0 	CALL SUBOPT_0x5F
00131d 940e 2475 	CALL __ADDF12
00131f 940e 1f21 	CALL SUBOPT_0x15
                 ; 0004 0462                                     }
                 ; 0004 0463                                     CalculateDistBodySpeed();
                 _0x800F1:
001321 da4e      	RCALL _CalculateDistBodySpeed
                 ; 0004 0464                                     break;
                 ; 0004 0465                                 }
                 ; 0004 0466 
                 ; 0004 0467                         }
                 _0x800ED:
                 ; 0004 0468                         break;
001322 c00a      	RJMP _0x800E5
                 ; 0004 0469 
                 ; 0004 046A         case CALIBRATE_MOD:                 //    
                 _0x800EA:
001323 30e9      	CPI  R30,LOW(0x9)
001324 e0a0      	LDI  R26,HIGH(0x9)
001325 07fa      	CPC  R31,R26
001326 f431      	BRNE _0x800E5
                 ; 0004 046B                         nlcd_Clear();
                 _0x80115:
001327 940e 083c 	CALL _nlcd_Clear
                 ; 0004 046C                         ParamDec();
001329 940e 1433 	CALL _ParamDec
                 ; 0004 046D                         Param10Inc();
00132b 940e 144b 	CALL _Param10Inc
                 ; 0004 046E                         break;
                 ; 0004 046F     }
                 _0x800E5:
                 ; 0004 0470 
                 ; 0004 0471 }
00132d 9508      	RET
                 ;
                 ;void HandlerEventButLDown(void){
                 ; 0004 0473 void HandlerEventButLDown(void){
                 _HandlerEventButLDown:
                 ; 0004 0474    switch (mode) {
00132e 940e 20d3 	CALL SUBOPT_0x46
                 ; 0004 0475 
                 ; 0004 0476        case SETTINGS:
001330 30e2      	CPI  R30,LOW(0x2)
001331 e0a0      	LDI  R26,HIGH(0x2)
001332 07fa      	CPC  R31,R26
001333 f1d1      	BREQ _0x80116
                 ; 0004 0477                          nlcd_Clear();
                 ; 0004 0478                          ParamInc();
                 ; 0004 0479                          Param10Dec();
                 ; 0004 047A                          break;
                 ; 0004 047B 
                 ; 0004 047C        case RUN_RECT_SET:
001334 30e6      	CPI  R30,LOW(0x6)
001335 e0a0      	LDI  R26,HIGH(0x6)
001336 07fa      	CPC  R31,R26
001337 f1b1      	BREQ _0x80116
                 ; 0004 047D                          nlcd_Clear();
                 ; 0004 047E                          ParamInc();
                 ; 0004 047F                          Param10Dec();
                 ; 0004 0480                          break;
                 ; 0004 0481        case RUN_RECT:
001338 30e5      	CPI  R30,LOW(0x5)
001339 e0a0      	LDI  R26,HIGH(0x5)
00133a 07fa      	CPC  R31,R26
00133b f449      	BRNE _0x800F8
                 ; 0004 0482                         if (!startStop) {
00133c 91e0 0a22 	LDS  R30,_startStop
00133e 30e0      	CPI  R30,0
00133f f409      	BRNE _0x800F9
                 ; 0004 0483                             VALVE_CLS;
001340 98db      	CBI  0x1B,3
                 ; 0004 0484                         }
                 ; 0004 0485                         pwmOn = 0;
                 _0x800F9:
001341 e0e0      	LDI  R30,LOW(0)
001342 93e0 0a2c 	STS  _pwmOn,R30
                 ; 0004 0486                         break;
001344 c02f      	RJMP _0x800F5
                 ; 0004 0487        case RUN_DIST:
                 _0x800F8:
001345 30e4      	CPI  R30,LOW(0x4)
001346 e0a0      	LDI  R26,HIGH(0x4)
001347 07fa      	CPC  R31,R26
001348 f509      	BRNE _0x800FA
                 ; 0004 0488 
                 ; 0004 0489                         switch(distSettingMode) {
001349 940e 21b0 	CALL SUBOPT_0x5C
                 ; 0004 048A                             case DIST_SET_MODE_PWR:
00134b f459      	BRNE _0x800FE
                 ; 0004 048B                                 {
                 ; 0004 048C                                     heater_power -= 4;
00134c 91e0 0a2b 	LDS  R30,_heater_power
00134e 50e4      	SUBI R30,LOW(4)
00134f 940e 21b3 	CALL SUBOPT_0x5D
                 ; 0004 048D                                     if (heater_power < 5){
001351 30a5      	CPI  R26,LOW(0x5)
001352 f418      	BRSH _0x800FF
                 ; 0004 048E                                         heater_power = 1;
001353 e0e1      	LDI  R30,LOW(1)
001354 93e0 0a2b 	STS  _heater_power,R30
                 ; 0004 048F                                     }
                 ; 0004 0490                                     break;
                 _0x800FF:
001356 c012      	RJMP _0x800FD
                 ; 0004 0491                                 }
                 ; 0004 0492 
                 ; 0004 0493                             case DIST_SET_MODE_FLOW:
                 _0x800FE:
001357 30e2      	CPI  R30,LOW(0x2)
001358 e0a0      	LDI  R26,HIGH(0x2)
001359 07fa      	CPC  R31,R26
00135a f471      	BRNE _0x800FD
                 ; 0004 0494                                 {
                 ; 0004 0495                                     if (Votb >= 100.0) {
00135b 940e 2072 	CALL SUBOPT_0x38
00135d 940e 2196 	CALL SUBOPT_0x58
00135f 940e 2558 	CALL __CMPF12
001361 f030      	BRLO _0x80101
                 ; 0004 0496                                         Votb -= 90;
001362 940e 21c0 	CALL SUBOPT_0x5F
001364 940e 246e 	CALL __SUBF12
001366 940e 1f21 	CALL SUBOPT_0x15
                 ; 0004 0497                                     }
                 ; 0004 0498                                     CalculateDistBodySpeed();
                 _0x80101:
001368 da07      	RCALL _CalculateDistBodySpeed
                 ; 0004 0499                                     break;
                 ; 0004 049A                                 }
                 ; 0004 049B 
                 ; 0004 049C                         }
                 _0x800FD:
                 ; 0004 049D                         break;
001369 c00a      	RJMP _0x800F5
                 ; 0004 049E 
                 ; 0004 049F        case CALIBRATE_MOD:                 //    
                 _0x800FA:
00136a 30e9      	CPI  R30,LOW(0x9)
00136b e0a0      	LDI  R26,HIGH(0x9)
00136c 07fa      	CPC  R31,R26
00136d f431      	BRNE _0x800F5
                 ; 0004 04A0                         nlcd_Clear();
                 _0x80116:
00136e 940e 083c 	CALL _nlcd_Clear
                 ; 0004 04A1                         ParamInc();
001370 940e 141d 	CALL _ParamInc
                 ; 0004 04A2                         Param10Dec();
001372 940e 1463 	CALL _Param10Dec
                 ; 0004 04A3                         break;
                 ; 0004 04A4     }
                 _0x800F5:
                 ; 0004 04A5 }
001374 9508      	RET
                 ;#include <menu.h>
                 ;#include <handlers.h>
                 ;#include <stdio.h>
                 ;#include <delay.h>
                 ;#include <string.h>
                 ;#include <nokia1100_lcd_lib.h>
                 	#ifndef __SLEEP_DEFINED__
                 	#endif
                 ;#include <settings.h>
                 ;
                 ;char cod;
                 ;char current_menu=0; //    
                 ;char current_pos=0; //     /
                 ;
                 ;char last_menu;
                 ;char last_pos;
                 ;
                 ;// 
                 ;flash unsigned char distilation[] =       {""};
                 ;flash unsigned char rectification[] =     {""};
                 ;flash unsigned char settings[] =          {""};
                 ;
                 ;// 
                 ;flash unsigned char set_dist[] =          {""};
                 ;flash unsigned char set_rectif[] =        {""};
                 ;flash unsigned char set_temp_sensors[] =  {" "};
                 ;flash unsigned char set_calibrate_vlv[] = {" ."};
                 ;
                 ;//  -> 
                 ;flash unsigned char set_dis_t[] =         {"t  ."};
                 ;flash unsigned char set_dis_pten[] =      {" "};
                 ;
                 ;//  -> 
                 ;flash unsigned char set_rect_pten_min[] =   {"  t>60"};
                 ;flash unsigned char set_rect_Pkol_max[] =   {"P  "};
                 ;flash unsigned char set_rect_t_otbor[] =    {"t "};
                 ;flash unsigned char set_rect_dt_otbor[] =   {"dt "};
                 ;flash unsigned char set_rect_T1_valve[] =   {"T1 . ."};
                 ;flash unsigned char set_rect_T2_valve[] =   {"T2 . ."};
                 ;flash unsigned char set_rect_t_kuba_v[] =   {"t  . "};
                 ;flash unsigned char set_rect_t_kuba_off[] = {"t  ."};
                 ;flash unsigned char set_rect_head_val[] =   {" "};
                 ;flash unsigned char set_rect_body_spd[] =   {" ."};
                 ;flash unsigned char set_rect_pulse_d[] =    {". "};
                 ;flash unsigned char set_rect_fact_q[] =     {"  "};
                 ;flash unsigned char set_rect_k_factor[] =   {". "};
                 ;
                 ;//  ->  
                 ;flash unsigned char set_sens_tkub[] =          {" "};
                 ;flash unsigned char set_sens_tkolona_down[] =  {"  "};
                 ;flash unsigned char set_sens_tkolona_up[] =    {"  "};
                 ;
                 ;//===========================================================================
                 ;
                 ;//     ( SELECTION)
                 ;static SELECTION menu_[]= {
                 ;  {distilation, RunDistilation, 0, MAIN_MENU, 0}, // 
                 ;  {rectification, RunRectification, 0, MAIN_MENU, 0}, // 
                 ;  {settings, goto_menu, MENU_SET, MAIN_MENU, 0} // 
                 ;};
                 
                 	.DSEG
                 ;
                 ;//     ( SELECTION)
                 ;static SELECTION menu_settings[]={
                 ;  {set_dist, goto_menu, MENU_DIST, MAIN_MENU, 2}, // 
                 ;  {set_rectif, goto_menu, MENU_RECT, MAIN_MENU, 2}, // 
                 ;  {set_temp_sensors, goto_menu, MENU_INIT, MAIN_MENU, 2}, // 
                 ;  {set_calibrate_vlv, CalibrateValve, 0, MAIN_MENU, 2} // 
                 ;};
                 ;
                 ;//    ->  ( SELECTION)
                 ;static SELECTION menu_set_dist[]={
                 ;  {set_dis_t, SetParam, 0, MENU_SET, 0}, //t  .
                 ;  {set_dis_pten, SetParam, 0, MENU_SET, 0} // 
                 ;};
                 ;
                 ;//    -> ( SELECTION)
                 ;static SELECTION menu_set_rect[]={
                 ;  {set_rect_pten_min, SetParam, 0, MENU_SET, 1},  //  t>60
                 ;  {set_rect_Pkol_max, SetParam, 0, MENU_SET, 1},  //P  
                 ;  {set_rect_t_otbor, SetParam, 0, MENU_SET, 1},   //t 
                 ;  {set_rect_dt_otbor, SetParam, 0, MENU_SET, 1},  //dt 
                 ;  {set_rect_T1_valve, SetParam, 0, MENU_SET, 1},  //T1 . .
                 ;  {set_rect_T2_valve, SetParam, 0, MENU_SET, 1},  //T2 . .
                 ;  {set_rect_t_kuba_v, SetParam, 0, MENU_SET, 1},  //t  . 
                 ;  {set_rect_t_kuba_off, SetParam, 0, MENU_SET, 1},//t  .
                 ;  {set_rect_head_val, SetParam, 0, MENU_SET, 1},  // 
                 ;  {set_rect_body_spd, SetParam, 0, MENU_SET, 1},  // 
                 ;  {set_rect_pulse_d, SetParam, 0, MENU_SET, 1},   //. 
                 ;  {set_rect_fact_q, SetParam, 0, MENU_SET, 1},    //  
                 ;  {set_rect_k_factor, SetParam, 0, MENU_SET, 1}   //   (k)
                 ;};
                 ;
                 ;//    -> ( SELECTION)
                 ;static SELECTION menu_set_init[]={
                 ;  {set_sens_tkub, InitSensors, 0, MENU_SET, 2},         // 
                 ;  {set_sens_tkolona_down, InitSensors, 0, MENU_SET, 2}, //  
                 ;  {set_sens_tkolona_up, InitSensors, 0, MENU_SET, 2}    //  
                 ;};
                 ;
                 ;
                 ;//      /
                 ;// /            enum __menu__id ...
                 ;static _MENU menu[] = {
                 ;  {MAIN_MENU, 3, menu_}, //
                 ;  {MENU_DIST, 2, menu_set_dist}, //
                 ;  {MENU_RECT, 13, menu_set_rect}, // 
                 ;  {MENU_SET,  4, menu_settings}, //
                 ;  {MENU_INIT, 3, menu_set_init} // 
                 ;};
                 ;//////////////////////////////////////////////////////////////////////////////////////////////////////////////////
                 ;void goto_menu() {
                 ; 0005 006D void goto_menu() {
                 
                 	.CSEG
                 _goto_menu:
                 ; 0005 006E   switch (cod) {
001375 91e0 0af7 	LDS  R30,_cod
001377 e0f0      	LDI  R31,0
                 ; 0005 006F     case 'e': {current_menu=menu[current_menu].items_submenu[current_pos].ent_f; break;};//enter
001378 36e5      	CPI  R30,LOW(0x65)
001379 e0a0      	LDI  R26,HIGH(0x65)
00137a 07fa      	CPC  R31,R26
00137b f441      	BRNE _0xA000C
00137c 940e 2170 	CALL SUBOPT_0x54
00137e 940e 2178 	CALL SUBOPT_0x55
001380 0fae      	ADD  R26,R30
001381 1fbf      	ADC  R27,R31
001382 9614      	ADIW R26,4
001383 c00b      	RJMP _0xA0019
                 ; 0005 0070     case 'b': {current_menu=menu[current_menu].items_submenu[current_pos].esc_f; break;};//escape
                 _0xA000C:
001384 36e2      	CPI  R30,LOW(0x62)
001385 e0a0      	LDI  R26,HIGH(0x62)
001386 07fa      	CPC  R31,R26
001387 f451      	BRNE _0xA000B
001388 940e 2170 	CALL SUBOPT_0x54
00138a 940e 2178 	CALL SUBOPT_0x55
00138c 0fae      	ADD  R26,R30
00138d 1fbf      	ADC  R27,R31
00138e 9615      	ADIW R26,5
                 _0xA0019:
00138f 91ec      	LD   R30,X
001390 93e0 0af8 	STS  _current_menu,R30
                 ; 0005 0071   }
                 _0xA000B:
                 ; 0005 0072   nlcd_Clear();
001392 940e 083c 	CALL _nlcd_Clear
                 ; 0005 0073   current_pos = 0;
001394 e0e0      	LDI  R30,LOW(0)
001395 93e0 0af9 	STS  _current_pos,R30
                 ; 0005 0074 }
001397 9508      	RET
                 ;//////////////////////////////////////////////////////////////////////////////////////////////////////////////////
                 ;void print_menu()
                 ; 0005 0077 {
                 _print_menu:
                 ; 0005 0078 unsigned char tmp[17];
                 ; 0005 0079 signed char i, s, f, t, c;
                 ; 0005 007A     if (current_menu != 0){
001398 9761      	SBIW R28,17
001399 940e 26d9 	CALL __SAVELOCR6
                 ;	tmp -> Y+6
                 ;	i -> R17
                 ;	s -> R16
                 ;	f -> R19
                 ;	t -> R18
                 ;	c -> R21
00139b 91e0 0af8 	LDS  R30,_current_menu
00139d 30e0      	CPI  R30,0
00139e f091      	BREQ _0xA000E
                 ; 0005 007B         strcpyf(tmp, menu[0].items_submenu[menu[current_menu].items_submenu[current_pos].parent].name_item);
00139f 940e 21c6 	CALL SUBOPT_0x60
0013a1 940e 2178 	CALL SUBOPT_0x55
0013a3 940e 21cb 	CALL SUBOPT_0x61
                 ; 0005 007C         sprintf(buf,"-%s-", tmp);
                +
0013a5 e3ea     +LDI R30 , LOW ( 2 * _0xA0000 + ( 0 ) )
0013a6 e0f9     +LDI R31 , HIGH ( 2 * _0xA0000 + ( 0 ) )
                 	__POINTW1FN _0xA0000,0
0013a7 940e 21de 	CALL SUBOPT_0x62
                 ; 0005 007D         nlcd_GotoXY(7 - strlen(buf)/2, 1);
0013a9 940e 21e5 	CALL SUBOPT_0x63
0013ab e0a7      	LDI  R26,LOW(7)
0013ac e0b0      	LDI  R27,HIGH(7)
0013ad 1bae      	SUB  R26,R30
0013ae 0bbf      	SBC  R27,R31
0013af 93aa      	ST   -Y,R26
0013b0 c00c      	RJMP _0xA001A
                 ; 0005 007E         nlcd_Print(buf);
                 ; 0005 007F     } else {
                 _0xA000E:
                 ; 0005 0080         sprintf(buf,"-==-");
0013b1 940e 2046 	CALL SUBOPT_0x32
                +
0013b3 e3ef     +LDI R30 , LOW ( 2 * _0xA0000 + ( 5 ) )
0013b4 e0f9     +LDI R31 , HIGH ( 2 * _0xA0000 + ( 5 ) )
                 	__POINTW1FN _0xA0000,5
0013b5 93fa      	ST   -Y,R31
0013b6 93ea      	ST   -Y,R30
0013b7 e080      	LDI  R24,0
0013b8 940e 1d47 	CALL _sprintf
0013ba 9624      	ADIW R28,4
                 ; 0005 0081         nlcd_GotoXY(3, 1);
0013bb e0e3      	LDI  R30,LOW(3)
0013bc 93ea      	ST   -Y,R30
                 _0xA001A:
0013bd e0a1      	LDI  R26,LOW(1)
0013be 940e 21ec 	CALL SUBOPT_0x64
                 ; 0005 0082         nlcd_Print(buf);
                 ; 0005 0083     }
                 ; 0005 0084     c = 5;
0013c0 e055      	LDI  R21,LOW(5)
                 ; 0005 0085     t = 2;
0013c1 e022      	LDI  R18,LOW(2)
                 ; 0005 0086     if (menu[current_menu].num_selections > c) {
0013c2 940e 2170 	CALL SUBOPT_0x54
0013c4 0fae      	ADD  R26,R30
0013c5 1fbf      	ADC  R27,R31
0013c6 9611      	ADIW R26,1
0013c7 91ac      	LD   R26,X
0013c8 2fe5      	MOV  R30,R21
0013c9 940e 21ef 	CALL SUBOPT_0x65
0013cb f4b4      	BRGE _0xA0010
                 ; 0005 0087         if (current_pos - (c - (signed char)1) > 0){
0013cc 940e 21f6 	CALL SUBOPT_0x66
0013ce 1bae      	SUB  R26,R30
0013cf 0bbf      	SBC  R27,R31
0013d0 940e 26d5 	CALL __CPW02
0013d2 f464      	BRGE _0xA0011
                 ; 0005 0088          s = current_pos - (c - (signed char)1);
0013d3 940e 21f6 	CALL SUBOPT_0x66
0013d5 940e 2691 	CALL __SWAPW12
0013d7 1bea      	SUB  R30,R26
0013d8 0bfb      	SBC  R31,R27
0013d9 2f0e      	MOV  R16,R30
                 ; 0005 0089          f = current_pos + 1;
0013da 940e 21ff 	CALL SUBOPT_0x67
0013dc 9631      	ADIW R30,1
0013dd 2f3e      	MOV  R19,R30
                 ; 0005 008A         } else {
0013de c002      	RJMP _0xA0012
                 _0xA0011:
                 ; 0005 008B          s = 0;
0013df e000      	LDI  R16,LOW(0)
                 ; 0005 008C          f = c;
0013e0 2f35      	MOV  R19,R21
                 ; 0005 008D         }
                 _0xA0012:
                 ; 0005 008E     } else {
0013e1 c007      	RJMP _0xA0013
                 _0xA0010:
                 ; 0005 008F        f = menu[current_menu].num_selections;
0013e2 940e 2170 	CALL SUBOPT_0x54
0013e4 0fae      	ADD  R26,R30
0013e5 1fbf      	ADC  R27,R31
0013e6 9611      	ADIW R26,1
0013e7 913c      	LD   R19,X
                 ; 0005 0090        s = 0;
0013e8 e000      	LDI  R16,LOW(0)
                 ; 0005 0091     }
                 _0xA0013:
                 ; 0005 0092     for (i = s; i < f; i++) {
0013e9 2f10      	MOV  R17,R16
                 _0xA0015:
0013ea 1713      	CP   R17,R19
0013eb f554      	BRGE _0xA0016
                 ; 0005 0093         if (i == current_pos) {
0013ec 91e0 0af9 	LDS  R30,_current_pos
0013ee 2fa1      	MOV  R26,R17
0013ef e0b0      	LDI  R27,0
0013f0 fda7      	SBRC R26,7
0013f1 efbf      	SER  R27
0013f2 e0f0      	LDI  R31,0
0013f3 17ea      	CP   R30,R26
0013f4 07fb      	CPC  R31,R27
0013f5 f461      	BRNE _0xA0017
                 ; 0005 0094             strcpyf(tmp, menu[current_menu].items_submenu[i].name_item);
0013f6 940e 21c6 	CALL SUBOPT_0x60
0013f8 940e 2203 	CALL SUBOPT_0x68
0013fa 940e 220a 	CALL SUBOPT_0x69
                 ; 0005 0095             sprintf(buf,"[%s]", tmp);
                +
0013fc e4e8     +LDI R30 , LOW ( 2 * _0xA0000 + ( 14 ) )
0013fd e0f9     +LDI R31 , HIGH ( 2 * _0xA0000 + ( 14 ) )
                 	__POINTW1FN _0xA0000,14
0013fe 940e 21de 	CALL SUBOPT_0x62
                 ; 0005 0096             nlcd_GotoXY(0, t++);
001400 e0e0      	LDI  R30,LOW(0)
001401 c00b      	RJMP _0xA001B
                 ; 0005 0097         } else {
                 _0xA0017:
                 ; 0005 0098             strcpyf(tmp, menu[current_menu].items_submenu[i].name_item);
001402 940e 21c6 	CALL SUBOPT_0x60
001404 940e 2203 	CALL SUBOPT_0x68
001406 940e 220a 	CALL SUBOPT_0x69
                 ; 0005 0099             sprintf(buf,"%s", tmp);
                +
001408 e4ed     +LDI R30 , LOW ( 2 * _0xA0000 + ( 19 ) )
001409 e0f9     +LDI R31 , HIGH ( 2 * _0xA0000 + ( 19 ) )
                 	__POINTW1FN _0xA0000,19
00140a 940e 21de 	CALL SUBOPT_0x62
                 ; 0005 009A             nlcd_GotoXY(1, t++);
00140c e0e1      	LDI  R30,LOW(1)
                 _0xA001B:
00140d 93ea      	ST   -Y,R30
00140e 2fa2      	MOV  R26,R18
00140f 5f2f      	SUBI R18,-1
001410 940e 090f 	CALL _nlcd_GotoXY
                 ; 0005 009B         }
                 ; 0005 009C         nlcd_Print(buf);
001412 940e 1ecd 	CALL SUBOPT_0x9
                 ; 0005 009D     }
001414 5f1f      	SUBI R17,-1
001415 cfd4      	RJMP _0xA0015
                 _0xA0016:
                 ; 0005 009E     cod='k';
001416 e6eb      	LDI  R30,LOW(107)
001417 93e0 0af7 	STS  _cod,R30
                 ; 0005 009F }
001419 940e 26e0 	CALL __LOADLOCR6
00141b 9667      	ADIW R28,23
00141c 9508      	RET
                 ;#include <settings.h>
                 ;#include <handlers.h>
                 ;#include <menu.h>
                 ;#include <nokia1100_lcd_lib.h>
                 	#ifndef __SLEEP_DEFINED__
                 	#endif
                 ;#include <stdio.h>
                 ;#include <string.h>
                 ;#include <general.h>
                 ;#include <hwinit.h>
                 ;
                 ;#include <OWIPolled.h>
                 ;#include <OWIHighLevelFunctions.h>
                 ;#include <OWIBitFunctions.h>
                 ;#include <OWIcrc.h>
                 ;
                 ;extern OWI_device ds1820_rom_codes[MAX_DS1820];
                 ;extern OWI_device t_rom_codes[MAX_DS1820];
                 ;
                 ;flash unsigned char set_on[] = {"."};
                 ;flash unsigned char set_off[] ={"."};
                 ;
                 ;flash unsigned char label_grad[] =    {""};
                 ;flash unsigned char label_min[] =     {""};
                 ;flash unsigned char label_mmhb[] =    {".."};
                 ;flash unsigned char label_percent[] = {"%"};
                 ;flash unsigned char label_ml[] =      {"."};
                 ;flash unsigned char label_mlph[] =    {"./"};
                 ;flash unsigned char label_ms[] =      {"*10 "};
                 ;
                 ;
                 ;flash unsigned char * flash yesno[] = {set_off, set_on};
                 ;flash unsigned char * flash labels[] = {label_min, label_grad, label_mmhb, label_percent, label_ml, label_mlph, label_ms};
                 ;
                 ;unsigned char param_id;
                 ;
                 ;float dis_t_kuba;
                 ;unsigned int dis_p_ten;
                 ;unsigned int rect_p_ten_min;
                 ;unsigned int rect_p_kol_max;
                 ;float rect_t_otbora;
                 ;float rect_dt_otbora;
                 ;unsigned int rect_T1_valve;
                 ;unsigned int rect_T2_valve;
                 ;float rect_t_kuba_valve;
                 ;float rect_t_kuba_off;
                 ;unsigned int rect_head_val;
                 ;unsigned int rect_body_speed;
                 ;unsigned char rect_pulse_delay;
                 ;float onePulseDose;
                 ;unsigned int factCalibrateQ;
                 ;
                 ;PARAM params[SET_COUNT];
                 ;
                 ;eeprom PARAM params_eeprom[SET_COUNT] = {
                 ;//v     |min    |max    |lab    |type
                 ;{9800,  0,      11000,  1,      PT_FLOAT}, //  -> t  .
                 ;{80,    0,      100,    3,      PT_DIGIT}, //  ->  
                 ;{70,    0,      100,    3,      PT_DIGIT}, //  ->   t>=60C
                 ;{20,    0,      100,    2,      PT_DIGIT}, //  ->  
                 ;{7880,  0,      11000,  1,      PT_FLOAT}, //  -> t 
                 ;{45,    0,      1500,   1,      PT_FLOAT}, //  -> dt 
                 ;{1,     0,      5,      0,      PT_DIGIT}, //  -> T1  
                 ;{2,     0,      5,      0,      PT_DIGIT}, //  -> T2  
                 ;{9200,  0,      11000,  1,      PT_FLOAT}, //  -> t  
                 ;{9800,  0,      11000,  1,      PT_FLOAT}, //  -> t  .
                 ;{100,   10,     1500,   4,      PT_DIGIT}, //  ->  
                 ;{2100,  10,     3000,   5,      PT_DIGIT}, //  ->  
                 ;{4,     1,      10,     6,      PT_DIGIT}, //  ->  
                 ;{50,    1,      500,    4,      PT_DIGIT}, //  ->  
                 ;{HEADDOZA,   1,      900,    4,      PT_DOUBLE}  //  ->   
                 ;};
                 ;
                 ;eeprom OWI_device t_sens_eeprom_code[MAX_DS1820];
                 ;
                 ;//eeprom float onePulseDose_eeprom = HEADDOZA;
                 ;
                 ;
                 ;void ParamInc() {
                 ; 0006 004D void ParamInc() {
                 
                 	.CSEG
                 _ParamInc:
                 ; 0006 004E     if (++params[param_id].value > params[param_id].max_value) {
00141d 940e 2218 	CALL SUBOPT_0x6A
00141f 5ae4      	SUBI R30,LOW(-_params)
001420 4ff5      	SBCI R31,HIGH(-_params)
001421 01df      	MOVW R26,R30
001422 940e 1e99 	CALL SUBOPT_0x1
001424 01bf      	MOVW R22,R30
001425 01f0      	MOVW R30,R0
                +
001426 5ae0     +SUBI R30 , LOW ( - _params - ( 4 ) )
001427 4ff5     +SBCI R31 , HIGH ( - _params - ( 4 ) )
                 	__ADDW1MN _params,4
001428 01df      	MOVW R26,R30
001429 940e 221e 	CALL SUBOPT_0x6B
00142b f430      	BRSH _0xC0003
                 ; 0006 004F         params[param_id].value = params[param_id].min_value;
00142c 940e 2218 	CALL SUBOPT_0x6A
00142e 940e 2223 	CALL SUBOPT_0x6C
001430 940e 2228 	CALL SUBOPT_0x6D
                 ; 0006 0050     }
                 ; 0006 0051 }
                 _0xC0003:
001432 9508      	RET
                 ;
                 ;void ParamDec() {
                 ; 0006 0053 void ParamDec() {
                 _ParamDec:
                 ; 0006 0054     if (params[param_id].value > params[param_id].min_value) {
001433 940e 2218 	CALL SUBOPT_0x6A
001435 940e 2230 	CALL SUBOPT_0x6E
                +
001437 5aa2     +SUBI R26 , LOW ( - _params - ( 2 ) )
001438 4fb5     +SBCI R27 , HIGH ( - _params - ( 2 ) )
                 	__ADDW2MN _params,2
001439 940e 221e 	CALL SUBOPT_0x6B
00143b f440      	BRSH _0xC0004
                 ; 0006 0055         params[param_id].value--;
00143c 940e 2218 	CALL SUBOPT_0x6A
00143e 940e 2236 	CALL SUBOPT_0x6F
001440 9731      	SBIW R30,1
001441 93fe      	ST   -X,R31
001442 93ee      	ST   -X,R30
                 ; 0006 0056     } else {
001443 c006      	RJMP _0xC0005
                 _0xC0004:
                 ; 0006 0057         params[param_id].value = params[param_id].max_value;
001444 940e 2218 	CALL SUBOPT_0x6A
001446 940e 2223 	CALL SUBOPT_0x6C
001448 940e 223c 	CALL SUBOPT_0x70
                 ; 0006 0058     }
                 _0xC0005:
                 ; 0006 0059 }
00144a 9508      	RET
                 ;
                 ;
                 ;void Param10Inc() {
                 ; 0006 005C void Param10Inc() {
                 _Param10Inc:
                 ; 0006 005D     params[param_id].value += 100;
00144b 940e 2218 	CALL SUBOPT_0x6A
00144d 940e 2236 	CALL SUBOPT_0x6F
00144f 59ec      	SUBI R30,LOW(-100)
001450 4fff      	SBCI R31,HIGH(-100)
001451 93fe      	ST   -X,R31
001452 93ee      	ST   -X,R30
                 ; 0006 005E     if (params[param_id].value > params[param_id].max_value) {
001453 940e 2218 	CALL SUBOPT_0x6A
001455 940e 2230 	CALL SUBOPT_0x6E
                +
001457 5aa0     +SUBI R26 , LOW ( - _params - ( 4 ) )
001458 4fb5     +SBCI R27 , HIGH ( - _params - ( 4 ) )
                 	__ADDW2MN _params,4
001459 940e 221e 	CALL SUBOPT_0x6B
00145b f430      	BRSH _0xC0006
                 ; 0006 005F         params[param_id].value = params[param_id].min_value;
00145c 940e 2218 	CALL SUBOPT_0x6A
00145e 940e 2223 	CALL SUBOPT_0x6C
001460 940e 2228 	CALL SUBOPT_0x6D
                 ; 0006 0060     }
                 ; 0006 0061 }
                 _0xC0006:
001462 9508      	RET
                 ;
                 ;void Param10Dec() {
                 ; 0006 0063 void Param10Dec() {
                 _Param10Dec:
                 ; 0006 0064     if (params[param_id].value > (params[param_id].min_value + 100)) {
001463 940e 2218 	CALL SUBOPT_0x6A
001465 940e 2230 	CALL SUBOPT_0x6E
                +
001467 5aa2     +SUBI R26 , LOW ( - _params - ( 2 ) )
001468 4fb5     +SBCI R27 , HIGH ( - _params - ( 2 ) )
                 	__ADDW2MN _params,2
001469 940e 2665 	CALL __GETW1P
00146b 59ec      	SUBI R30,LOW(-100)
00146c 4fff      	SBCI R31,HIGH(-100)
00146d 17e6      	CP   R30,R22
00146e 07f7      	CPC  R31,R23
00146f f448      	BRSH _0xC0007
                 ; 0006 0065         params[param_id].value -= 100;
001470 940e 2218 	CALL SUBOPT_0x6A
001472 940e 2236 	CALL SUBOPT_0x6F
001474 56e4      	SUBI R30,LOW(100)
001475 40f0      	SBCI R31,HIGH(100)
001476 93fe      	ST   -X,R31
001477 93ee      	ST   -X,R30
                 ; 0006 0066     } else {
001478 c006      	RJMP _0xC0008
                 _0xC0007:
                 ; 0006 0067         params[param_id].value = params[param_id].max_value;
001479 940e 2218 	CALL SUBOPT_0x6A
00147b 940e 2223 	CALL SUBOPT_0x6C
00147d 940e 223c 	CALL SUBOPT_0x70
                 ; 0006 0068     }
                 _0xC0008:
                 ; 0006 0069 }
00147f 9508      	RET
                 ;
                 ;void SetParam(void){
                 ; 0006 006B void SetParam(void){
                 _SetParam:
                 ; 0006 006C     char i;
                 ; 0006 006D     mode = SETTINGS;
001480 931a      	ST   -Y,R17
                 ;	i -> R17
001481 e0e2      	LDI  R30,LOW(2)
001482 940e 2244 	CALL SUBOPT_0x71
                 ; 0006 006E     nlcd_Clear();
                 ; 0006 006F     param_id = 0;
001484 e0e0      	LDI  R30,LOW(0)
001485 93e0 0a5b 	STS  _param_id,R30
                 ; 0006 0070     for (i = 1; i < current_menu; i++) {
001487 e011      	LDI  R17,LOW(1)
                 _0xC000A:
001488 91e0 0af8 	LDS  R30,_current_menu
00148a 171e      	CP   R17,R30
00148b f490      	BRSH _0xC000B
                 ; 0006 0071         param_id += menu[i].num_selections;
00148c 9000 0a5b 	LDS  R0,_param_id
00148e 2411      	CLR  R1
00148f 2fe1      	MOV  R30,R17
001490 eea3      	LDI  R26,LOW(_menu)
001491 e0ba      	LDI  R27,HIGH(_menu)
001492 e0f0      	LDI  R31,0
001493 940e 258c 	CALL __LSLW2
001495 940e 21ab 	CALL SUBOPT_0x5B
001497 e0f0      	LDI  R31,0
001498 0de0      	ADD  R30,R0
001499 1df1      	ADC  R31,R1
00149a 93e0 0a5b 	STS  _param_id,R30
                 ; 0006 0072     }
00149c 5f1f      	SUBI R17,-1
00149d cfea      	RJMP _0xC000A
                 _0xC000B:
                 ; 0006 0073     param_id += current_pos;
00149e 91a0 0a5b 	LDS  R26,_param_id
0014a0 27bb      	CLR  R27
0014a1 91e0 0af9 	LDS  R30,_current_pos
0014a3 940e 1edb 	CALL SUBOPT_0xC
0014a5 93e0 0a5b 	STS  _param_id,R30
                 ; 0006 0074 };
0014a7 c237      	RJMP _0x20A000E
                 ;
                 ;
                 ;void ViewSettings(){
                 ; 0006 0077 void ViewSettings(){
                 _ViewSettings:
                 ; 0006 0078     unsigned char tmp[17];
                 ; 0006 0079     strcpyf(tmp, menu[0].items_submenu[menu[current_menu].items_submenu[current_pos].parent].name_item);
0014a8 9761      	SBIW R28,17
                 ;	tmp -> Y+0
0014a9 940e 2248 	CALL SUBOPT_0x72
0014ab 940e 2178 	CALL SUBOPT_0x55
0014ad 940e 21cb 	CALL SUBOPT_0x61
                 ; 0006 007A     sprintf(buf,"-%s-", tmp);
                +
0014af e5e0     +LDI R30 , LOW ( 2 * _0xC0000 + ( 0 ) )
0014b0 e0f9     +LDI R31 , HIGH ( 2 * _0xC0000 + ( 0 ) )
                 	__POINTW1FN _0xC0000,0
0014b1 940e 204b 	CALL SUBOPT_0x33
0014b3 940e 1ec4 	CALL SUBOPT_0x7
                 ; 0006 007B     nlcd_GotoXY(8 - strlen(buf)/2, 1);
0014b5 940e 21e5 	CALL SUBOPT_0x63
0014b7 940e 224c 	CALL SUBOPT_0x73
0014b9 e0a1      	LDI  R26,LOW(1)
0014ba 940e 21ec 	CALL SUBOPT_0x64
                 ; 0006 007C     nlcd_Print(buf);
                 ; 0006 007D     strcpyf(tmp, menu[current_menu].items_submenu[current_pos].name_item);
0014bc 940e 2248 	CALL SUBOPT_0x72
0014be 940e 2178 	CALL SUBOPT_0x55
0014c0 940e 2252 	CALL SUBOPT_0x74
                 ; 0006 007E     sprintf(buf,"*%s*", tmp);
                +
0014c2 e5e5     +LDI R30 , LOW ( 2 * _0xC0000 + ( 5 ) )
0014c3 e0f9     +LDI R31 , HIGH ( 2 * _0xC0000 + ( 5 ) )
                 	__POINTW1FN _0xC0000,5
0014c4 940e 204b 	CALL SUBOPT_0x33
0014c6 940e 1ec4 	CALL SUBOPT_0x7
                 ; 0006 007F     nlcd_GotoXY(8 - strlen(buf)/2, 2);
0014c8 940e 21e5 	CALL SUBOPT_0x63
0014ca 940e 224c 	CALL SUBOPT_0x73
0014cc e0a2      	LDI  R26,LOW(2)
0014cd 940e 21ec 	CALL SUBOPT_0x64
                 ; 0006 0080     nlcd_Print(buf);
                 ; 0006 0081 
                 ; 0006 0082     if (params[param_id].type == PT_DOUBLE){  // for k-factor
0014cf 940e 2218 	CALL SUBOPT_0x6A
                +
0014d1 59ec     +SUBI R30 , LOW ( - _params - ( 8 ) )
0014d2 4ff5     +SBCI R31 , HIGH ( - _params - ( 8 ) )
                 	__ADDW1MN _params,8
0014d3 81a0      	LD   R26,Z
0014d4 30a3      	CPI  R26,LOW(0x3)
0014d5 f489      	BRNE _0xC000C
                 ; 0006 0083         strcpyf(tmp, labels[params[param_id].units]);
0014d6 940e 225a 	CALL SUBOPT_0x75
0014d8 940e 225e 	CALL SUBOPT_0x76
                 ; 0006 0084         sprintf(buf,"%1.4f %s", params[param_id].value / 10000.0, tmp);
                +
0014da e5ea     +LDI R30 , LOW ( 2 * _0xC0000 + ( 10 ) )
0014db e0f9     +LDI R31 , HIGH ( 2 * _0xC0000 + ( 10 ) )
                 	__POINTW1FN _0xC0000,10
0014dc 940e 226e 	CALL SUBOPT_0x77
0014de 940e 2271 	CALL SUBOPT_0x78
0014e0 940e 227a 	CALL SUBOPT_0x79
0014e2 940e 227f 	CALL SUBOPT_0x7A
0014e4 940e 2008 	CALL SUBOPT_0x2A
                 ; 0006 0085     } else
0014e6 c04f      	RJMP _0xC000D
                 _0xC000C:
                 ; 0006 0086     if (params[param_id].type == PT_FLOAT){  // for tempreture
0014e7 940e 2218 	CALL SUBOPT_0x6A
                +
0014e9 59ec     +SUBI R30 , LOW ( - _params - ( 8 ) )
0014ea 4ff5     +SBCI R31 , HIGH ( - _params - ( 8 ) )
                 	__ADDW1MN _params,8
0014eb 81a0      	LD   R26,Z
0014ec 30a2      	CPI  R26,LOW(0x2)
0014ed f489      	BRNE _0xC000E
                 ; 0006 0087         strcpyf(tmp, labels[params[param_id].units]);
0014ee 940e 225a 	CALL SUBOPT_0x75
0014f0 940e 225e 	CALL SUBOPT_0x76
                 ; 0006 0088         sprintf(buf,"%3.2f %s", params[param_id].value / 100.0, tmp);
                +
0014f2 e6e3     +LDI R30 , LOW ( 2 * _0xC0000 + ( 19 ) )
0014f3 e0f9     +LDI R31 , HIGH ( 2 * _0xC0000 + ( 19 ) )
                 	__POINTW1FN _0xC0000,19
0014f4 940e 226e 	CALL SUBOPT_0x77
0014f6 940e 2271 	CALL SUBOPT_0x78
0014f8 940e 2196 	CALL SUBOPT_0x58
0014fa 940e 227f 	CALL SUBOPT_0x7A
0014fc 940e 2008 	CALL SUBOPT_0x2A
                 ; 0006 0089     } else
0014fe c037      	RJMP _0xC000F
                 _0xC000E:
                 ; 0006 008A     if (params[param_id].type == PT_DIGIT) {
0014ff 940e 2218 	CALL SUBOPT_0x6A
                +
001501 59ec     +SUBI R30 , LOW ( - _params - ( 8 ) )
001502 4ff5     +SBCI R31 , HIGH ( - _params - ( 8 ) )
                 	__ADDW1MN _params,8
001503 81a0      	LD   R26,Z
001504 30a1      	CPI  R26,LOW(0x1)
001505 f499      	BRNE _0xC0010
                 ; 0006 008B         strcpyf(tmp, labels[params[param_id].units]);
001506 940e 225a 	CALL SUBOPT_0x75
001508 940e 225e 	CALL SUBOPT_0x76
                 ; 0006 008C         sprintf(buf,"%u %s", params[param_id].value, tmp);
                +
00150a e6ec     +LDI R30 , LOW ( 2 * _0xC0000 + ( 28 ) )
00150b e0f9     +LDI R31 , HIGH ( 2 * _0xC0000 + ( 28 ) )
                 	__POINTW1FN _0xC0000,28
00150c 940e 226e 	CALL SUBOPT_0x77
00150e 940e 2284 	CALL SUBOPT_0x7B
001510 2766      	CLR  R22
001511 2777      	CLR  R23
001512 940e 2681 	CALL __PUTPARD1
001514 940e 1ff1 	CALL SUBOPT_0x27
001516 940e 2008 	CALL SUBOPT_0x2A
                 ; 0006 008D     } else
001518 c01d      	RJMP _0xC0011
                 _0xC0010:
                 ; 0006 008E         if(params[param_id].type == PT_YESNO) {
001519 940e 2218 	CALL SUBOPT_0x6A
                +
00151b 59ec     +SUBI R30 , LOW ( - _params - ( 8 ) )
00151c 4ff5     +SBCI R31 , HIGH ( - _params - ( 8 ) )
                 	__ADDW1MN _params,8
00151d 81e0      	LD   R30,Z
00151e 30e0      	CPI  R30,0
00151f f4b1      	BRNE _0xC0012
                 ; 0006 008F             strcpyf(tmp, yesno[params[param_id].value]);
001520 940e 225a 	CALL SUBOPT_0x75
001522 940e 2284 	CALL SUBOPT_0x7B
001524 e8ac      	LDI  R26,LOW(_yesno*2)
001525 e0b0      	LDI  R27,HIGH(_yesno*2)
001526 0fee      	LSL  R30
001527 1fff      	ROL  R31
001528 0fea      	ADD  R30,R26
001529 1ffb      	ADC  R31,R27
00152a 940e 266f 	CALL __GETW2PF
00152c 940e 19fd 	CALL _strcpyf
                 ; 0006 0090             sprintf(buf,"<%s>", tmp);
00152e 940e 2046 	CALL SUBOPT_0x32
                +
001530 e7e2     +LDI R30 , LOW ( 2 * _0xC0000 + ( 34 ) )
001531 e0f9     +LDI R31 , HIGH ( 2 * _0xC0000 + ( 34 ) )
                 	__POINTW1FN _0xC0000,34
001532 940e 204b 	CALL SUBOPT_0x33
001534 940e 1ec4 	CALL SUBOPT_0x7
                 ; 0006 0091     }
                 ; 0006 0092     nlcd_GotoXY(7 - strlen(buf)/2, 4);
                 _0xC0012:
                 _0xC0011:
                 _0xC000F:
                 _0xC000D:
001536 940e 21e5 	CALL SUBOPT_0x63
001538 e0a7      	LDI  R26,LOW(7)
001539 e0b0      	LDI  R27,HIGH(7)
00153a 1bae      	SUB  R26,R30
00153b 0bbf      	SBC  R27,R31
00153c 93aa      	ST   -Y,R26
00153d e0a4      	LDI  R26,LOW(4)
00153e c13d      	RJMP _0x20A000F
                 ; 0006 0093     nlcd_Print(buf);
                 ; 0006 0094 };
                 ;
                 ;void SetNewParams(){
                 ; 0006 0096 void SetNewParams(){
                 _SetNewParams:
                 ; 0006 0097     unsigned char j,k;
                 ; 0006 0098     dis_t_kuba = params[0].value / 100.0;
00153f 931a      	ST   -Y,R17
001540 930a      	ST   -Y,R16
                 ;	j -> R17
                 ;	k -> R16
001541 91e0 0a5c 	LDS  R30,_params
001543 91f0 0a5d 	LDS  R31,_params+1
001545 940e 228a 	CALL SUBOPT_0x7C
001547 93e0 0a38 	STS  _dis_t_kuba,R30
001549 93f0 0a39 	STS  _dis_t_kuba+1,R31
00154b 9360 0a3a 	STS  _dis_t_kuba+2,R22
00154d 9370 0a3b 	STS  _dis_t_kuba+3,R23
                 ; 0006 0099     dis_p_ten = params[1].value;
                +
00154f 91e0 0a65+LDS R30 , _params + ( 9 )
001551 91f0 0a66+LDS R31 , _params + ( 9 ) + 1
                 	__GETW1MN _params,9
001553 93e0 0a3c 	STS  _dis_p_ten,R30
001555 93f0 0a3d 	STS  _dis_p_ten+1,R31
                 ; 0006 009A     rect_p_ten_min = params[2].value;
                +
001557 91e0 0a6e+LDS R30 , _params + ( 18 )
001559 91f0 0a6f+LDS R31 , _params + ( 18 ) + 1
                 	__GETW1MN _params,18
00155b 93e0 0a3e 	STS  _rect_p_ten_min,R30
00155d 93f0 0a3f 	STS  _rect_p_ten_min+1,R31
                 ; 0006 009B     rect_p_kol_max = params[3].value;
                +
00155f 91e0 0a77+LDS R30 , _params + ( 27 )
001561 91f0 0a78+LDS R31 , _params + ( 27 ) + 1
                 	__GETW1MN _params,27
001563 93e0 0a40 	STS  _rect_p_kol_max,R30
001565 93f0 0a41 	STS  _rect_p_kol_max+1,R31
                 ; 0006 009C     rect_t_otbora = params[4].value / 100.0;
                +
001567 91e0 0a80+LDS R30 , _params + ( 36 )
001569 91f0 0a81+LDS R31 , _params + ( 36 ) + 1
                 	__GETW1MN _params,36
00156b 940e 228a 	CALL SUBOPT_0x7C
00156d 93e0 0a42 	STS  _rect_t_otbora,R30
00156f 93f0 0a43 	STS  _rect_t_otbora+1,R31
001571 9360 0a44 	STS  _rect_t_otbora+2,R22
001573 9370 0a45 	STS  _rect_t_otbora+3,R23
                 ; 0006 009D     rect_dt_otbora = params[5].value / 100.0;
                +
001575 91e0 0a89+LDS R30 , _params + ( 45 )
001577 91f0 0a8a+LDS R31 , _params + ( 45 ) + 1
                 	__GETW1MN _params,45
001579 940e 228a 	CALL SUBOPT_0x7C
00157b 93e0 0a46 	STS  _rect_dt_otbora,R30
00157d 93f0 0a47 	STS  _rect_dt_otbora+1,R31
00157f 9360 0a48 	STS  _rect_dt_otbora+2,R22
001581 9370 0a49 	STS  _rect_dt_otbora+3,R23
                 ; 0006 009E     rect_T1_valve = params[6].value;
                +
001583 91e0 0a92+LDS R30 , _params + ( 54 )
001585 91f0 0a93+LDS R31 , _params + ( 54 ) + 1
                 	__GETW1MN _params,54
001587 93e0 0a4a 	STS  _rect_T1_valve,R30
001589 93f0 0a4b 	STS  _rect_T1_valve+1,R31
                 ; 0006 009F     rect_T2_valve = params[7].value;
                +
00158b 91e0 0a9b+LDS R30 , _params + ( 63 )
00158d 91f0 0a9c+LDS R31 , _params + ( 63 ) + 1
                 	__GETW1MN _params,63
00158f 93e0 0a4c 	STS  _rect_T2_valve,R30
001591 93f0 0a4d 	STS  _rect_T2_valve+1,R31
                 ; 0006 00A0     rect_t_kuba_valve = params[8].value / 100.0;
                +
001593 91e0 0aa4+LDS R30 , _params + ( 72 )
001595 91f0 0aa5+LDS R31 , _params + ( 72 ) + 1
                 	__GETW1MN _params,72
001597 940e 228a 	CALL SUBOPT_0x7C
001599 93e0 0a4e 	STS  _rect_t_kuba_valve,R30
00159b 93f0 0a4f 	STS  _rect_t_kuba_valve+1,R31
00159d 9360 0a50 	STS  _rect_t_kuba_valve+2,R22
00159f 9370 0a51 	STS  _rect_t_kuba_valve+3,R23
                 ; 0006 00A1     rect_t_kuba_off = params[9].value / 100.0;
                +
0015a1 91e0 0aad+LDS R30 , _params + ( 81 )
0015a3 91f0 0aae+LDS R31 , _params + ( 81 ) + 1
                 	__GETW1MN _params,81
0015a5 940e 228a 	CALL SUBOPT_0x7C
0015a7 93e0 0a52 	STS  _rect_t_kuba_off,R30
0015a9 93f0 0a53 	STS  _rect_t_kuba_off+1,R31
0015ab 9360 0a54 	STS  _rect_t_kuba_off+2,R22
0015ad 9370 0a55 	STS  _rect_t_kuba_off+3,R23
                 ; 0006 00A2     rect_head_val = params[10].value;
                +
0015af 91e0 0ab6+LDS R30 , _params + ( 90 )
0015b1 91f0 0ab7+LDS R31 , _params + ( 90 ) + 1
                 	__GETW1MN _params,90
0015b3 93e0 0a56 	STS  _rect_head_val,R30
0015b5 93f0 0a57 	STS  _rect_head_val+1,R31
                 ; 0006 00A3     rect_body_speed = params[11].value;
                +
0015b7 91e0 0abf+LDS R30 , _params + ( 99 )
0015b9 91f0 0ac0+LDS R31 , _params + ( 99 ) + 1
                 	__GETW1MN _params,99
0015bb 93e0 0a58 	STS  _rect_body_speed,R30
0015bd 93f0 0a59 	STS  _rect_body_speed+1,R31
                 ; 0006 00A4     rect_pulse_delay = params[12].value;
                +
0015bf 91e0 0ac8+LDS R30 , _params + ( 108 )
                 	__GETB1MN _params,108
0015c1 93e0 0a5a 	STS  _rect_pulse_delay,R30
                 ; 0006 00A5     factCalibrateQ =  params[13].value;
                +
0015c3 91e0 0ad1+LDS R30 , _params + ( 117 )
0015c5 91f0 0ad2+LDS R31 , _params + ( 117 ) + 1
                 	__GETW1MN _params,117
0015c7 93e0 0a36 	STS  _factCalibrateQ,R30
0015c9 93f0 0a37 	STS  _factCalibrateQ+1,R31
                 ; 0006 00A6     onePulseDose = (float)params[14].value / 10000.0;
0015cb 940e 2291 	CALL SUBOPT_0x7D
                 ; 0006 00A7     //onePulseDose = onePulseDose_eeprom;
                 ; 0006 00A8 
                 ; 0006 00A9     for (j=0; j<MAX_DS1820; j++){
0015cd e010      	LDI  R17,LOW(0)
                 _0xC0014:
0015ce 3013      	CPI  R17,3
0015cf f4e8      	BRSH _0xC0015
                 ; 0006 00AA         for (k=0; k<8; k++){
0015d0 e000      	LDI  R16,LOW(0)
                 _0xC0017:
0015d1 3008      	CPI  R16,8
0015d2 f4c0      	BRSH _0xC0018
                 ; 0006 00AB             t_rom_codes[j].id[k] = t_sens_eeprom_code[j].id[k];
0015d3 940e 1ef2 	CALL SUBOPT_0x10
0015d5 940e 258a 	CALL __LSLW3
0015d7 01bf      	MOVW R22,R30
0015d8 5eec      	SUBI R30,LOW(-_t_rom_codes)
0015d9 4ff4      	SBCI R31,HIGH(-_t_rom_codes)
0015da 01df      	MOVW R26,R30
0015db 2fe0      	MOV  R30,R16
0015dc 940e 1edb 	CALL SUBOPT_0xC
0015de 010f      	MOVW R0,R30
0015df 01db      	MOVW R26,R22
0015e0 57a9      	SUBI R26,LOW(-_t_sens_eeprom_code)
0015e1 4fbf      	SBCI R27,HIGH(-_t_sens_eeprom_code)
0015e2 27ee      	CLR  R30
0015e3 0fa0      	ADD  R26,R16
0015e4 1fbe      	ADC  R27,R30
0015e5 940e 2698 	CALL __EEPROMRDB
0015e7 01d0      	MOVW R26,R0
0015e8 93ec      	ST   X,R30
                 ; 0006 00AC         }
0015e9 5f0f      	SUBI R16,-1
0015ea cfe6      	RJMP _0xC0017
                 _0xC0018:
                 ; 0006 00AD     }
0015eb 5f1f      	SUBI R17,-1
0015ec cfe1      	RJMP _0xC0014
                 _0xC0015:
                 ; 0006 00AE };
0015ed 9109      	LD   R16,Y+
0015ee 9119      	LD   R17,Y+
0015ef 9508      	RET
                 ;
                 ;void LoadParam(){
                 ; 0006 00B0 void LoadParam(){
                 _LoadParam:
                 ; 0006 00B1    unsigned char j;
                 ; 0006 00B2    for (j=0; j<SET_COUNT; j++) {
0015f0 931a      	ST   -Y,R17
                 ;	j -> R17
0015f1 e010      	LDI  R17,LOW(0)
                 _0xC001A:
0015f2 301f      	CPI  R17,15
0015f3 f470      	BRSH _0xC001B
                 ; 0006 00B3         params[j]= params_eeprom[j];
0015f4 e0a9      	LDI  R26,LOW(9)
0015f5 9f1a      	MUL  R17,R26
0015f6 01f0      	MOVW R30,R0
0015f7 940e 2223 	CALL SUBOPT_0x6C
0015f9 01fd      	MOVW R30,R26
0015fa 50e0      	SUBI R30,LOW(-_params_eeprom)
0015fb 40f0      	SBCI R31,HIGH(-_params_eeprom)
0015fc 01db      	MOVW R26,R22
0015fd e089      	LDI  R24,9
0015fe 940e 26bd 	CALL __COPYMEL
                 ; 0006 00B4    }
001600 5f1f      	SUBI R17,-1
001601 cff0      	RJMP _0xC001A
                 _0xC001B:
                 ; 0006 00B5    //onePulseDose = onePulseDose_eeprom;
                 ; 0006 00B6    onePulseDose = params[14].value / 10000.0;
001602 940e 2291 	CALL SUBOPT_0x7D
                 ; 0006 00B7 }
001604 c0da      	RJMP _0x20A000E
                 ;
                 ;void SaveParam(){
                 ; 0006 00B9 void SaveParam(){
                 _SaveParam:
                 ; 0006 00BA     unsigned char j;
                 ; 0006 00BB 
                 ; 0006 00BC     params[14].value = (unsigned int) (onePulseDose * 10000.0);
001605 931a      	ST   -Y,R17
                 ;	j -> R17
001606 91a0 0a32 	LDS  R26,_onePulseDose
001608 91b0 0a33 	LDS  R27,_onePulseDose+1
00160a 9180 0a34 	LDS  R24,_onePulseDose+2
00160c 9190 0a35 	LDS  R25,_onePulseDose+3
00160e 940e 227a 	CALL SUBOPT_0x79
001610 940e 24c5 	CALL __MULF12
001612 940e 2402 	CALL __CFD1U
                +
001614 93e0 0ada+STS _params + ( 126 ) , R30
001616 93f0 0adb+STS _params + ( 126 ) + 1 , R31
                 	__PUTW1MN _params,126
                 ; 0006 00BD 
                 ; 0006 00BE     for (j=0; j<SET_COUNT; j++) {
001618 e010      	LDI  R17,LOW(0)
                 _0xC001D:
001619 301f      	CPI  R17,15
00161a f478      	BRSH _0xC001E
                 ; 0006 00BF         params_eeprom[j].value = params[j].value;
00161b e0a9      	LDI  R26,LOW(9)
00161c 9f1a      	MUL  R17,R26
00161d 01f0      	MOVW R30,R0
00161e 01df      	MOVW R26,R30
00161f 50e0      	SUBI R30,LOW(-_params_eeprom)
001620 40f0      	SBCI R31,HIGH(-_params_eeprom)
001621 01bf      	MOVW R22,R30
001622 01fd      	MOVW R30,R26
001623 940e 2284 	CALL SUBOPT_0x7B
001625 01db      	MOVW R26,R22
001626 940e 26a4 	CALL __EEPROMWRW
                 ; 0006 00C0     }
001628 5f1f      	SUBI R17,-1
001629 cfef      	RJMP _0xC001D
                 _0xC001E:
                 ; 0006 00C1     //onePulseDose_eeprom = onePulseDose;
                 ; 0006 00C2 }
00162a c0b4      	RJMP _0x20A000E
                 ;
                 ;void InitSensors(){
                 ; 0006 00C4 void InitSensors(){
                 _InitSensors:
                 ; 0006 00C5     char tmp[17];
                 ; 0006 00C6     mode = INIT;
00162b 9761      	SBIW R28,17
                 ;	tmp -> Y+0
00162c e0e3      	LDI  R30,LOW(3)
00162d 940e 2244 	CALL SUBOPT_0x71
                 ; 0006 00C7     nlcd_Clear();
                 ; 0006 00C8     nlcd_GotoXY(1,0);
00162f e0e1      	LDI  R30,LOW(1)
001630 940e 1f6c 	CALL SUBOPT_0x1C
                 ; 0006 00C9     nlcd_PrintF("");
                +
001632 e1a4     +LDI R26 , LOW ( _0xC001F + ( 0 ) )
001633 e0b9     +LDI R27 , HIGH ( _0xC001F + ( 0 ) )
                 	__POINTW2MN _0xC001F,0
001634 940e 08e9 	CALL _nlcd_PrintF
                 ; 0006 00CA     strcpyf(tmp, menu[current_menu].items_submenu[current_pos].name_item);
001636 940e 2248 	CALL SUBOPT_0x72
001638 940e 2178 	CALL SUBOPT_0x55
00163a 940e 2252 	CALL SUBOPT_0x74
                 ; 0006 00CB     sprintf(buf,"%s", tmp);
                +
00163c e6e0     +LDI R30 , LOW ( 2 * _0xC0000 + ( 16 ) )
00163d e0f9     +LDI R31 , HIGH ( 2 * _0xC0000 + ( 16 ) )
                 	__POINTW1FN _0xC0000,16
00163e 940e 204b 	CALL SUBOPT_0x33
001640 940e 1ec4 	CALL SUBOPT_0x7
                 ; 0006 00CC     nlcd_GotoXY(8 - strlen(buf)/2, 1);
001642 940e 21e5 	CALL SUBOPT_0x63
001644 940e 224c 	CALL SUBOPT_0x73
001646 e0a1      	LDI  R26,LOW(1)
001647 940e 21ec 	CALL SUBOPT_0x64
                 ; 0006 00CD     nlcd_Print(buf);
                 ; 0006 00CE     nlcd_GotoXY(0,2);
001649 940e 1ea4 	CALL SUBOPT_0x3
                 ; 0006 00CF     nlcd_PrintF(" ");
                +
00164b e2a2     +LDI R26 , LOW ( _0xC001F + ( 14 ) )
00164c e0b9     +LDI R27 , HIGH ( _0xC001F + ( 14 ) )
                 	__POINTW2MN _0xC001F,14
00164d 940e 08e9 	CALL _nlcd_PrintF
                 ; 0006 00D0     nlcd_GotoXY(3,3);
00164f e0e3      	LDI  R30,LOW(3)
001650 940e 208b 	CALL SUBOPT_0x3B
                 ; 0006 00D1     nlcd_PrintF(" !!!");
                +
001652 e3a2     +LDI R26 , LOW ( _0xC001F + ( 30 ) )
001653 e0b9     +LDI R27 , HIGH ( _0xC001F + ( 30 ) )
                 	__POINTW2MN _0xC001F,30
001654 940e 08e9 	CALL _nlcd_PrintF
                 ; 0006 00D2     nlcd_GotoXY(2,4);
001656 e0e2      	LDI  R30,LOW(2)
001657 940e 208f 	CALL SUBOPT_0x3C
                 ; 0006 00D3     nlcd_PrintF(" <ENT>");
                +
001659 e3ad     +LDI R26 , LOW ( _0xC001F + ( 41 ) )
00165a e0b9     +LDI R27 , HIGH ( _0xC001F + ( 41 ) )
                 	__POINTW2MN _0xC001F,41
00165b 940e 08e9 	CALL _nlcd_PrintF
                 ; 0006 00D4     //sprintf(buf,"ID:%X", t_sens_eeprom_code[current_pos].id[7]);
                 ; 0006 00D5     sprintf(buf,"ID:%2X%2X",t_rom_codes[current_pos].id[6], t_rom_codes[current_pos].id[7] );
00165d 940e 2046 	CALL SUBOPT_0x32
                +
00165f eaee     +LDI R30 , LOW ( 2 * _0xC0000 + ( 94 ) )
001660 e0f9     +LDI R31 , HIGH ( 2 * _0xC0000 + ( 94 ) )
                 	__POINTW1FN _0xC0000,94
001661 93fa      	ST   -Y,R31
001662 93ea      	ST   -Y,R30
001663 940e 21ff 	CALL SUBOPT_0x67
001665 940e 258a 	CALL __LSLW3
                +
001667 5ee6     +SUBI R30 , LOW ( - _t_rom_codes - ( 6 ) )
001668 4ff4     +SBCI R31 , HIGH ( - _t_rom_codes - ( 6 ) )
                 	__ADDW1MN _t_rom_codes,6
001669 81e0      	LD   R30,Z
00166a 940e 1feb 	CALL SUBOPT_0x26
00166c 940e 21ff 	CALL SUBOPT_0x67
00166e 940e 258a 	CALL __LSLW3
                +
001670 5ee5     +SUBI R30 , LOW ( - _t_rom_codes - ( 7 ) )
001671 4ff4     +SBCI R31 , HIGH ( - _t_rom_codes - ( 7 ) )
                 	__ADDW1MN _t_rom_codes,7
001672 81e0      	LD   R30,Z
001673 940e 1feb 	CALL SUBOPT_0x26
001675 940e 2008 	CALL SUBOPT_0x2A
                 ; 0006 00D6     nlcd_GotoXY(8 - strlen(buf)/2, 5);
001677 940e 21e5 	CALL SUBOPT_0x63
001679 940e 224c 	CALL SUBOPT_0x73
00167b e0a5      	LDI  R26,LOW(5)
                 _0x20A000F:
00167c 940e 090f 	CALL _nlcd_GotoXY
                 ; 0006 00D7     nlcd_Print(buf);
00167e 940e 1ecd 	CALL SUBOPT_0x9
                 ; 0006 00D8 };
001680 9661      	ADIW R28,17
001681 9508      	RET
                 
                 	.DSEG
                 _0xC001F:
000914           	.BYTE 0x37
                 ;
                 ;void SetSensors(){
                 ; 0006 00DA void SetSensors(){
                 
                 	.CSEG
                 _SetSensors:
                 ; 0006 00DB     char k;
                 ; 0006 00DC     nlcd_Clear();
001682 931a      	ST   -Y,R17
                 ;	k -> R17
001683 940e 083c 	CALL _nlcd_Clear
                 ; 0006 00DD     // OWI_SearchDevices(ds1820_rom_codes, MAX_DS1820, BUS, &ds1820_devices);
                 ; 0006 00DE     if (OWI_SearchDevices(ds1820_rom_codes, MAX_DS1820, BUS, &ds1820_devices) == SEARCH_SUCCESSFUL) {
001685 940e 1eaf 	CALL SUBOPT_0x5
001687 30e0      	CPI  R30,0
001688 f5a1      	BRNE _0xC0020
                 ; 0006 00DF 
                 ; 0006 00E0     //}
                 ; 0006 00E1     //if (ds1820_devices == 1) {
                 ; 0006 00E2         for (k=0; k<9; k++){
001689 e010      	LDI  R17,LOW(0)
                 _0xC0022:
00168a 3019      	CPI  R17,9
00168b f498      	BRSH _0xC0023
                 ; 0006 00E3             t_sens_eeprom_code[current_pos].id[k] = ds1820_rom_codes[0].id[k];
00168c 940e 21ff 	CALL SUBOPT_0x67
00168e 940e 258a 	CALL __LSLW3
001690 57e9      	SUBI R30,LOW(-_t_sens_eeprom_code)
001691 4fff      	SBCI R31,HIGH(-_t_sens_eeprom_code)
001692 01df      	MOVW R26,R30
001693 27ee      	CLR  R30
001694 0fa1      	ADD  R26,R17
001695 1fbe      	ADC  R27,R30
001696 940e 1ef2 	CALL SUBOPT_0x10
001698 50e4      	SUBI R30,LOW(-_ds1820_rom_codes)
001699 4ff5      	SBCI R31,HIGH(-_ds1820_rom_codes)
00169a 81e0      	LD   R30,Z
00169b 940e 26ac 	CALL __EEPROMWRB
                 ; 0006 00E4         }
00169d 5f1f      	SUBI R17,-1
00169e cfeb      	RJMP _0xC0022
                 _0xC0023:
                 ; 0006 00E5         SetNewParams();
00169f de9f      	RCALL _SetNewParams
                 ; 0006 00E6         nlcd_GotoXY(0,2);
0016a0 940e 1ea4 	CALL SUBOPT_0x3
                 ; 0006 00E7         nlcd_PrintF("  ");
                +
0016a2 e4ab     +LDI R26 , LOW ( _0xC0024 + ( 0 ) )
0016a3 e0b9     +LDI R27 , HIGH ( _0xC0024 + ( 0 ) )
                 	__POINTW2MN _0xC0024,0
0016a4 940e 08e9 	CALL _nlcd_PrintF
                 ; 0006 00E8         nlcd_GotoXY(3,3);
0016a6 e0e3      	LDI  R30,LOW(3)
0016a7 940e 208b 	CALL SUBOPT_0x3B
                 ; 0006 00E9         nlcd_PrintF(" ");
                +
0016a9 e5ab     +LDI R26 , LOW ( _0xC0024 + ( 16 ) )
0016aa e0b9     +LDI R27 , HIGH ( _0xC0024 + ( 16 ) )
                 	__POINTW2MN _0xC0024,16
0016ab 940e 08e9 	CALL _nlcd_PrintF
                 ; 0006 00EA         nlcd_GotoXY(2,4);
0016ad e0e2      	LDI  R30,LOW(2)
0016ae 940e 208f 	CALL SUBOPT_0x3C
                 ; 0006 00EB         nlcd_PrintF(" !");
                +
0016b0 e6a3     +LDI R26 , LOW ( _0xC0024 + ( 24 ) )
0016b1 e0b9     +LDI R27 , HIGH ( _0xC0024 + ( 24 ) )
                 	__POINTW2MN _0xC0024,24
0016b2 940e 08e9 	CALL _nlcd_PrintF
                 ; 0006 00EC         SetNewParams();
0016b4 de8a      	RCALL _SetNewParams
                 ; 0006 00ED         delay_ms(2000);
0016b5 eda0      	LDI  R26,LOW(2000)
0016b6 e0b7      	LDI  R27,HIGH(2000)
0016b7 940e 23c5 	CALL _delay_ms
                 ; 0006 00EE         mode = MENU;
0016b9 e0e1      	LDI  R30,LOW(1)
0016ba 93e0 0a1f 	STS  _mode,R30
                 ; 0006 00EF     } else {
0016bc c022      	RJMP _0xC0025
                 _0xC0020:
                 ; 0006 00F0         nlcd_GotoXY(0,2);
0016bd 940e 1ea4 	CALL SUBOPT_0x3
                 ; 0006 00F1         nlcd_PrintF("  ");
                +
0016bf e6ad     +LDI R26 , LOW ( _0xC0024 + ( 34 ) )
0016c0 e0b9     +LDI R27 , HIGH ( _0xC0024 + ( 34 ) )
                 	__POINTW2MN _0xC0024,34
0016c1 940e 1f2f 	CALL SUBOPT_0x17
                 ; 0006 00F2         nlcd_GotoXY(0,3);
0016c3 e0a3      	LDI  R26,LOW(3)
0016c4 940e 090f 	CALL _nlcd_GotoXY
                 ; 0006 00F3         nlcd_PrintF("  . ");
                +
0016c6 e7ad     +LDI R26 , LOW ( _0xC0024 + ( 50 ) )
0016c7 e0b9     +LDI R27 , HIGH ( _0xC0024 + ( 50 ) )
                 	__POINTW2MN _0xC0024,50
0016c8 940e 1f2f 	CALL SUBOPT_0x17
                 ; 0006 00F4         nlcd_GotoXY(0,4);
0016ca e0a4      	LDI  R26,LOW(4)
0016cb 940e 090f 	CALL _nlcd_GotoXY
                 ; 0006 00F5         nlcd_PrintF(" ");
                +
0016cd e8ad     +LDI R26 , LOW ( _0xC0024 + ( 66 ) )
0016ce e0b9     +LDI R27 , HIGH ( _0xC0024 + ( 66 ) )
                 	__POINTW2MN _0xC0024,66
0016cf 940e 08e9 	CALL _nlcd_PrintF
                 ; 0006 00F6         nlcd_GotoXY(0,5);
0016d1 e0e0      	LDI  R30,LOW(0)
0016d2 940e 1ec9 	CALL SUBOPT_0x8
                 ; 0006 00F7         nlcd_PrintF("<ENT>. <ESC>");
                +
0016d4 e9ad     +LDI R26 , LOW ( _0xC0024 + ( 82 ) )
0016d5 e0b9     +LDI R27 , HIGH ( _0xC0024 + ( 82 ) )
                 	__POINTW2MN _0xC0024,82
0016d6 940e 1f2f 	CALL SUBOPT_0x17
                 ; 0006 00F8         nlcd_GotoXY(0,6);
0016d8 e0a6      	LDI  R26,LOW(6)
0016d9 940e 090f 	CALL _nlcd_GotoXY
                 ; 0006 00F9         nlcd_PrintF(" .");
                +
0016db eaaa     +LDI R26 , LOW ( _0xC0024 + ( 95 ) )
0016dc e0b9     +LDI R27 , HIGH ( _0xC0024 + ( 95 ) )
                 	__POINTW2MN _0xC0024,95
0016dd 940e 08e9 	CALL _nlcd_PrintF
                 ; 0006 00FA     }
                 _0xC0025:
                 ; 0006 00FB }
                 _0x20A000E:
0016df 9119      	LD   R17,Y+
0016e0 9508      	RET
                 
                 	.DSEG
                 _0xC0024:
00094b           	.BYTE 0x6B
                 ;
                 ;
                 ;void CalibrateValve() {
                 ; 0006 00FE void CalibrateValve() {
                 
                 	.CSEG
                 _CalibrateValve:
                 ; 0006 00FF     mode = CALIBRATE;
0016e1 e0e7      	LDI  R30,LOW(7)
0016e2 940e 2244 	CALL SUBOPT_0x71
                 ; 0006 0100     nlcd_Clear();
                 ; 0006 0101     nlcd_GotoXY(0,1);
0016e4 940e 1f2a 	CALL SUBOPT_0x16
                 ; 0006 0102     nlcd_PrintF("      ");
                +
0016e6 eba6     +LDI R26 , LOW ( _0xC0026 + ( 0 ) )
0016e7 e0b9     +LDI R27 , HIGH ( _0xC0026 + ( 0 ) )
                 	__POINTW2MN _0xC0026,0
0016e8 940e 08e9 	CALL _nlcd_PrintF
                 ; 0006 0103     nlcd_PrintF(" .  ");
                +
0016ea eca7     +LDI R26 , LOW ( _0xC0026 + ( 17 ) )
0016eb e0b9     +LDI R27 , HIGH ( _0xC0026 + ( 17 ) )
                 	__POINTW2MN _0xC0026,17
0016ec 940e 08e9 	CALL _nlcd_PrintF
                 ; 0006 0104     nlcd_PrintF("   50 .  ");
                +
0016ee eda8     +LDI R26 , LOW ( _0xC0026 + ( 34 ) )
0016ef e0b9     +LDI R27 , HIGH ( _0xC0026 + ( 34 ) )
                 	__POINTW2MN _0xC0026,34
0016f0 940e 08e9 	CALL _nlcd_PrintF
                 ; 0006 0105     nlcd_PrintF("       ");
                +
0016f2 eea9     +LDI R26 , LOW ( _0xC0026 + ( 51 ) )
0016f3 e0b9     +LDI R27 , HIGH ( _0xC0026 + ( 51 ) )
                 	__POINTW2MN _0xC0026,51
0016f4 940e 08e9 	CALL _nlcd_PrintF
                 ; 0006 0106     nlcd_PrintF("  <ENT>  ");
                +
0016f6 efaa     +LDI R26 , LOW ( _0xC0026 + ( 68 ) )
0016f7 e0b9     +LDI R27 , HIGH ( _0xC0026 + ( 68 ) )
                 	__POINTW2MN _0xC0026,68
0016f8 940e 08e9 	CALL _nlcd_PrintF
                 ; 0006 0107 }
0016fa 9508      	RET
                 
                 	.DSEG
                 _0xC0026:
0009b6           	.BYTE 0x55
                 ;#include <hwinit.h>
                 ;#include <mega128.h>
                 	#ifndef __SLEEP_DEFINED__
                 	#endif
                 ;#include <delay.h>
                 ;#include <nokia1100_lcd_lib.h>
                 ;#include <general.h>
                 ;
                 ;void HW_Init(){
                 ; 0007 0007 void HW_Init(){
                 
                 	.CSEG
                 _HW_Init:
                 ; 0007 0008 // Input/Output Ports initialization
                 ; 0007 0009 // Port A initialization
                 ; 0007 000A // Func7=In Func6=In Func5=In Func4=In Func3=Out Func2=Out Func1=In Func0=In
                 ; 0007 000B // State7=T State6=T State5=T State4=T State3=0 State2=0 State1=T State0=T
                 ; 0007 000C PORTA=0x00;
0016fb e0e0      	LDI  R30,LOW(0)
0016fc bbeb      	OUT  0x1B,R30
                 ; 0007 000D DDRA=0x0C;
0016fd e0ec      	LDI  R30,LOW(12)
0016fe bbea      	OUT  0x1A,R30
                 ; 0007 000E 
                 ; 0007 000F // Port B initialization
                 ; 0007 0010 // Func7=In Func6=In Func5=In Func4=Out Func3=In Func2=In Func1=In Func0=In
                 ; 0007 0011 // State7=T State6=T State5=T State4=0 State3=T State2=T State1=T State0=T
                 ; 0007 0012 PORTB=0x00;
0016ff e0e0      	LDI  R30,LOW(0)
001700 bbe8      	OUT  0x18,R30
                 ; 0007 0013 DDRB=0x10;
001701 e1e0      	LDI  R30,LOW(16)
001702 bbe7      	OUT  0x17,R30
                 ; 0007 0014 
                 ; 0007 0015 // Port C initialization
                 ; 0007 0016 // Func7=In Func6=In Func5=In Func4=In Func3=In Func2=In Func1=In Func0=In
                 ; 0007 0017 // State7=T State6=T State5=T State4=T State3=T State2=T State1=T State0=T
                 ; 0007 0018 PORTC=0x00;
001703 e0e0      	LDI  R30,LOW(0)
001704 bbe5      	OUT  0x15,R30
                 ; 0007 0019 DDRC=0x00;
001705 bbe4      	OUT  0x14,R30
                 ; 0007 001A 
                 ; 0007 001B // Port D initialization
                 ; 0007 001C // Func7=Out Func6=In Func5=In Func4=In Func3=In Func2=In Func1=In Func0=In
                 ; 0007 001D // State7=0 State6=T State5=T State4=T State3=T State2=T State1=T State0=T
                 ; 0007 001E PORTD=0x00;
001706 bbe2      	OUT  0x12,R30
                 ; 0007 001F DDRD=0x80;
001707 e8e0      	LDI  R30,LOW(128)
001708 bbe1      	OUT  0x11,R30
                 ; 0007 0020 
                 ; 0007 0021 // Port E initialization
                 ; 0007 0022 // Func7=In Func6=In Func5=In Func4=In Func3=In Func2=In Func1=In Func0=In
                 ; 0007 0023 // State7=T State6=T State5=T State4=T State3=T State2=T State1=T State0=T
                 ; 0007 0024 PORTE=0x00;
001709 e0e0      	LDI  R30,LOW(0)
00170a b9e3      	OUT  0x3,R30
                 ; 0007 0025 DDRE=0x00;
00170b b9e2      	OUT  0x2,R30
                 ; 0007 0026 
                 ; 0007 0027 // Port F initialization
                 ; 0007 0028 // Func7=In Func6=In Func5=In Func4=In Func3=In Func2=In Func1=In Func0=In
                 ; 0007 0029 // State7=T State6=T State5=T State4=T State3=T State2=T State1=T State0=T
                 ; 0007 002A PORTF=0x00;
00170c 93e0 0062 	STS  98,R30
                 ; 0007 002B DDRF=0x00;
00170e 93e0 0061 	STS  97,R30
                 ; 0007 002C 
                 ; 0007 002D // Port G initialization
                 ; 0007 002E // Func4=In Func3=In Func2=In Func1=In Func0=In
                 ; 0007 002F // State4=T State3=T State2=T State1=T State0=T
                 ; 0007 0030 PORTG=0x00;
001710 93e0 0065 	STS  101,R30
                 ; 0007 0031 DDRG=0x00;
001712 93e0 0064 	STS  100,R30
                 ; 0007 0032 /*
                 ; 0007 0033 // Timer/Counter 0 initialization
                 ; 0007 0034 // Clock source: TOSC1 pin
                 ; 0007 0035 // Clock value: TOSC1
                 ; 0007 0036 // Mode: Fast PWM top=0xFF
                 ; 0007 0037 // OC0 output: Non-Inverted PWM
                 ; 0007 0038 ASSR=0x08;
                 ; 0007 0039 TCCR0=0x69;
                 ; 0007 003A TCNT0=0x00;
                 ; 0007 003B OCR0=0x00;
                 ; 0007 003C */
                 ; 0007 003D 
                 ; 0007 003E // Timer/Counter 0 initialization
                 ; 0007 003F // Clock source: System Clock
                 ; 0007 0040 // Clock value: 460,800 kHz
                 ; 0007 0041 // Mode: Phase correct PWM top=0xFF
                 ; 0007 0042 // OC0 output: Non-Inverted PWM
                 ; 0007 0043 ASSR=0x00;
001714 bfe0      	OUT  0x30,R30
                 ; 0007 0044 TCCR0=0x63;
001715 e6e3      	LDI  R30,LOW(99)
001716 bfe3      	OUT  0x33,R30
                 ; 0007 0045 TCNT0=0x00;
001717 e0e0      	LDI  R30,LOW(0)
001718 bfe2      	OUT  0x32,R30
                 ; 0007 0046 OCR0=0x00;
001719 bfe1      	OUT  0x31,R30
                 ; 0007 0047 
                 ; 0007 0048 // Timer/Counter 1 initialization
                 ; 0007 0049 // Clock source: System Clock
                 ; 0007 004A // Clock value: 14,400 kHz
                 ; 0007 004B // Mode: Normal top=0xFFFF
                 ; 0007 004C // OC1A output: Discon.
                 ; 0007 004D // OC1B output: Discon.
                 ; 0007 004E // OC1C output: Discon.
                 ; 0007 004F // Noise Canceler: Off
                 ; 0007 0050 // Input Capture on Falling Edge
                 ; 0007 0051 // Timer1 Overflow Interrupt: On
                 ; 0007 0052 // Input Capture Interrupt: Off
                 ; 0007 0053 // Compare A Match Interrupt: Off
                 ; 0007 0054 // Compare B Match Interrupt: Off
                 ; 0007 0055 // Compare C Match Interrupt: Off
                 ; 0007 0056 TCCR1A=0x00;
00171a bdef      	OUT  0x2F,R30
                 ; 0007 0057 TCCR1B=0x05;
00171b e0e5      	LDI  R30,LOW(5)
00171c bdee      	OUT  0x2E,R30
                 ; 0007 0058 TCNT1H=0xC7;
00171d ece7      	LDI  R30,LOW(199)
00171e bded      	OUT  0x2D,R30
                 ; 0007 0059 TCNT1L=0xB1;
00171f ebe1      	LDI  R30,LOW(177)
001720 bdec      	OUT  0x2C,R30
                 ; 0007 005A ICR1H=0x00;
001721 e0e0      	LDI  R30,LOW(0)
001722 bde7      	OUT  0x27,R30
                 ; 0007 005B ICR1L=0x00;
001723 bde6      	OUT  0x26,R30
                 ; 0007 005C OCR1AH=0x00;
001724 bdeb      	OUT  0x2B,R30
                 ; 0007 005D OCR1AL=0x00;
001725 bdea      	OUT  0x2A,R30
                 ; 0007 005E OCR1BH=0x00;
001726 bde9      	OUT  0x29,R30
                 ; 0007 005F OCR1BL=0x00;
001727 bde8      	OUT  0x28,R30
                 ; 0007 0060 OCR1CH=0x00;
001728 93e0 0079 	STS  121,R30
                 ; 0007 0061 OCR1CL=0x00;
00172a 93e0 0078 	STS  120,R30
                 ; 0007 0062 
                 ; 0007 0063 // Timer/Counter 2 initialization
                 ; 0007 0064 // Clock source: System Clock
                 ; 0007 0065 // Clock value: 14,400 kHz
                 ; 0007 0066 // Mode: Normal top=0xFF
                 ; 0007 0067 // OC2 output: Disconnected
                 ; 0007 0068 TCCR2=0x05;
00172c e0e5      	LDI  R30,LOW(5)
00172d bde5      	OUT  0x25,R30
                 ; 0007 0069 TCNT2=0x00;
00172e e0e0      	LDI  R30,LOW(0)
00172f bde4      	OUT  0x24,R30
                 ; 0007 006A OCR2=0x00;
001730 bde3      	OUT  0x23,R30
                 ; 0007 006B 
                 ; 0007 006C // Timer/Counter 3 initialization
                 ; 0007 006D // Clock source: System Clock
                 ; 0007 006E // Clock value: Timer3 Stopped
                 ; 0007 006F // Mode: Normal top=0xFFFF
                 ; 0007 0070 // OC3A output: Discon.
                 ; 0007 0071 // OC3B output: Discon.
                 ; 0007 0072 // OC3C output: Discon.
                 ; 0007 0073 // Noise Canceler: Off
                 ; 0007 0074 // Input Capture on Falling Edge
                 ; 0007 0075 // Timer3 Overflow Interrupt: Off
                 ; 0007 0076 // Input Capture Interrupt: Off
                 ; 0007 0077 // Compare A Match Interrupt: Off
                 ; 0007 0078 // Compare B Match Interrupt: Off
                 ; 0007 0079 // Compare C Match Interrupt: Off
                 ; 0007 007A TCCR3A=0x00;
001731 93e0 008b 	STS  139,R30
                 ; 0007 007B TCCR3B=0x00;
001733 93e0 008a 	STS  138,R30
                 ; 0007 007C TCNT3H=0x00;
001735 93e0 0089 	STS  137,R30
                 ; 0007 007D TCNT3L=0x00;
001737 93e0 0088 	STS  136,R30
                 ; 0007 007E ICR3H=0x00;
001739 93e0 0081 	STS  129,R30
                 ; 0007 007F ICR3L=0x00;
00173b 93e0 0080 	STS  128,R30
                 ; 0007 0080 OCR3AH=0x00;
00173d 93e0 0087 	STS  135,R30
                 ; 0007 0081 OCR3AL=0x00;
00173f 93e0 0086 	STS  134,R30
                 ; 0007 0082 OCR3BH=0x00;
001741 93e0 0085 	STS  133,R30
                 ; 0007 0083 OCR3BL=0x00;
001743 93e0 0084 	STS  132,R30
                 ; 0007 0084 OCR3CH=0x00;
001745 93e0 0083 	STS  131,R30
                 ; 0007 0085 OCR3CL=0x00;
001747 93e0 0082 	STS  130,R30
                 ; 0007 0086 /*
                 ; 0007 0087 // External Interrupt(s) initialization
                 ; 0007 0088 // INT0: Off
                 ; 0007 0089 // INT1: Off
                 ; 0007 008A // INT2: On
                 ; 0007 008B // INT2 Mode: Falling Edge
                 ; 0007 008C // INT3: Off
                 ; 0007 008D // INT4: Off
                 ; 0007 008E // INT5: Off
                 ; 0007 008F // INT6: Off
                 ; 0007 0090 // INT7: Off
                 ; 0007 0091 EICRA=0x20;
                 ; 0007 0092 EICRB=0x00;
                 ; 0007 0093 EIMSK=0x04;
                 ; 0007 0094 EIFR=0x04;
                 ; 0007 0095 */
                 ; 0007 0096 
                 ; 0007 0097 // External Interrupt(s) initialization
                 ; 0007 0098 // INT0: Off
                 ; 0007 0099 // INT1: Off
                 ; 0007 009A // INT2: On
                 ; 0007 009B // INT2 Mode: Rising Edge
                 ; 0007 009C // INT3: Off
                 ; 0007 009D // INT4: Off
                 ; 0007 009E // INT5: Off
                 ; 0007 009F // INT6: Off
                 ; 0007 00A0 // INT7: Off
                 ; 0007 00A1 EICRA=0x30;
001749 e3e0      	LDI  R30,LOW(48)
00174a 93e0 006a 	STS  106,R30
                 ; 0007 00A2 EICRB=0x00;
00174c e0e0      	LDI  R30,LOW(0)
00174d bfea      	OUT  0x3A,R30
                 ; 0007 00A3 EIMSK=0x04;
00174e e0e4      	LDI  R30,LOW(4)
00174f bfe9      	OUT  0x39,R30
                 ; 0007 00A4 EIFR=0x04;
001750 bfe8      	OUT  0x38,R30
                 ; 0007 00A5 
                 ; 0007 00A6 // Timer(s)/Counter(s) Interrupt(s) initialization
                 ; 0007 00A7 TIMSK=0x45;
001751 e4e5      	LDI  R30,LOW(69)
001752 bfe7      	OUT  0x37,R30
                 ; 0007 00A8 
                 ; 0007 00A9 ETIMSK=0x00;
001753 e0e0      	LDI  R30,LOW(0)
001754 93e0 007d 	STS  125,R30
                 ; 0007 00AA 
                 ; 0007 00AB // USART0 initialization
                 ; 0007 00AC // Communication Parameters: 8 Data, 1 Stop, No Parity
                 ; 0007 00AD // USART0 Receiver: On
                 ; 0007 00AE // USART0 Transmitter: On
                 ; 0007 00AF // USART0 Mode: Asynchronous
                 ; 0007 00B0 // USART0 Baud Rate: 9600
                 ; 0007 00B1 UCSR0A=0x00;
001756 b9eb      	OUT  0xB,R30
                 ; 0007 00B2 UCSR0B=0x98;
001757 e9e8      	LDI  R30,LOW(152)
001758 b9ea      	OUT  0xA,R30
                 ; 0007 00B3 UCSR0C=0x06;
001759 e0e6      	LDI  R30,LOW(6)
00175a 93e0 0095 	STS  149,R30
                 ; 0007 00B4 UBRR0H=0x00;
00175c e0e0      	LDI  R30,LOW(0)
00175d 93e0 0090 	STS  144,R30
                 ; 0007 00B5 UBRR0L=0x5F;
00175f e5ef      	LDI  R30,LOW(95)
001760 b9e9      	OUT  0x9,R30
                 ; 0007 00B6 
                 ; 0007 00B7 // USART1 initialization
                 ; 0007 00B8 // USART1 disabled
                 ; 0007 00B9 UCSR1B=0x00;
001761 e0e0      	LDI  R30,LOW(0)
001762 93e0 009a 	STS  154,R30
                 ; 0007 00BA 
                 ; 0007 00BB // Analog Comparator initialization
                 ; 0007 00BC // Analog Comparator: Off
                 ; 0007 00BD // Analog Comparator Input Capture by Timer/Counter 1: Off
                 ; 0007 00BE ACSR=0x80;
001764 e8e0      	LDI  R30,LOW(128)
001765 b9e8      	OUT  0x8,R30
                 ; 0007 00BF SFIOR=0x00;
001766 e0e0      	LDI  R30,LOW(0)
001767 bde0      	OUT  0x20,R30
                 ; 0007 00C0 
                 ; 0007 00C1 // ADC initialization
                 ; 0007 00C2 // ADC Clock frequency: 921,600 kHz
                 ; 0007 00C3 // ADC Voltage Reference: AVCC pin
                 ; 0007 00C4 ADMUX=ADC_VREF_TYPE & 0xff;
001768 e4e0      	LDI  R30,LOW(64)
001769 b9e7      	OUT  0x7,R30
                 ; 0007 00C5 ADCSRA=0x8C;
00176a e8ec      	LDI  R30,LOW(140)
00176b b9e6      	OUT  0x6,R30
                 ; 0007 00C6 
                 ; 0007 00C7 // SPI initialization
                 ; 0007 00C8 // SPI disabled
                 ; 0007 00C9 SPCR=0x00;
00176c e0e0      	LDI  R30,LOW(0)
00176d b9ed      	OUT  0xD,R30
                 ; 0007 00CA 
                 ; 0007 00CB // TWI initialization
                 ; 0007 00CC // TWI disabled
                 ; 0007 00CD TWCR=0x00;
00176e 93e0 0074 	STS  116,R30
                 ; 0007 00CE 
                 ; 0007 00CF VALVE_CLS;
001770 98db      	CBI  0x1B,3
                 ; 0007 00D0 HEATER_OFF;
001771 98da      	CBI  0x1B,2
                 ; 0007 00D1 
                 ; 0007 00D2 };
001772 9508      	RET
                 ;
                 ;#ifdef HW1_P
                 ;void PresureInit(){
                 ;    p_offset = read_adc(0);
                 ;    nlcd_GotoXY(0,1);
                 ;    nlcd_PrintF("      ");
                 ;    nlcd_PrintF("         ");
                 ;    nlcd_PrintF("  ...   ");
                 ;    delay_ms(2000);
                 ;    nlcd_Clear();
                 ;    p_offset = read_adc(0);
                 ;};
                 ;#endif
                 ;// This file has been prepared for Doxygen automatic documentation generation.
                 ;/*! \file ********************************************************************
                 ;*
                 ;* Atmel Corporation
                 ;*
                 ;* \li File:               OWIcrc.c
                 ;* \li Compiler:           IAR EWAAVR 3.20a
                 ;* \li Support mail:       avr@atmel.com
                 ;*
                 ;* \li Supported devices:  All AVRs.
                 ;*
                 ;* \li Application Note:   AVR318 - Dallas 1-Wire(R) master.
                 ;*
                 ;*
                 ;* \li Description:        CRC algorithms typically used in a 1-Wire(R)
                 ;*                         environment.
                 ;*
                 ;*                         $Revision: 1.7 $
                 ;*                         $Date: Thursday, August 19, 2004 14:27:16 UTC $
                 ;****************************************************************************/
                 ;
                 ;#include "OWIcrc.h"
                 ;#include "OWIdefs.h"
                 	#ifndef __SLEEP_DEFINED__
                 	#endif
                 ;
                 ;
                 ;/*! \brief  Compute the CRC8 value of a data set.
                 ; *
                 ; *  This function will compute the CRC8 or DOW-CRC of inData using seed
                 ; *  as inital value for the CRC.
                 ; *
                 ; *  \param  inData  One byte of data to compute CRC from.
                 ; *
                 ; *  \param  seed    The starting value of the CRC.
                 ; *
                 ; *  \return The CRC8 of inData with seed as initial value.
                 ; *
                 ; *  \note   Setting seed to 0 computes the crc8 of the inData.
                 ; *
                 ; *  \note   Constantly passing the return value of this function
                 ; *          As the seed argument computes the CRC8 value of a
                 ; *          longer string of data.
                 ; */
                 ;unsigned char OWI_ComputeCRC8(unsigned char inData, unsigned char seed)
                 ; 0008 002C {
                 
                 	.CSEG
                 _OWI_ComputeCRC8:
                 ; 0008 002D     unsigned char bitsLeft;
                 ; 0008 002E     unsigned char temp;
                 ; 0008 002F 
                 ; 0008 0030     for (bitsLeft = 8; bitsLeft > 0; bitsLeft--)
001773 93aa      	ST   -Y,R26
001774 931a      	ST   -Y,R17
001775 930a      	ST   -Y,R16
                 ;	inData -> Y+3
                 ;	seed -> Y+2
                 ;	bitsLeft -> R17
                 ;	temp -> R16
001776 e018      	LDI  R17,LOW(8)
                 _0x100004:
001777 3011      	CPI  R17,1
001778 f0c0      	BRLO _0x100005
                 ; 0008 0031     {
                 ; 0008 0032         temp = ((seed ^ inData) & 0x01);
001779 81eb      	LDD  R30,Y+3
00177a 81aa      	LDD  R26,Y+2
00177b 27ae      	EOR  R26,R30
00177c e0e1      	LDI  R30,LOW(1)
00177d 23ea      	AND  R30,R26
00177e 2f0e      	MOV  R16,R30
                 ; 0008 0033         if (temp == 0)
00177f 3000      	CPI  R16,0
001780 f419      	BRNE _0x100006
                 ; 0008 0034         {
                 ; 0008 0035             seed >>= 1;
001781 81ea      	LDD  R30,Y+2
001782 95e6      	LSR  R30
001783 c007      	RJMP _0x100011
                 ; 0008 0036         }
                 ; 0008 0037         else
                 _0x100006:
                 ; 0008 0038         {
                 ; 0008 0039             seed ^= 0x18;
001784 81aa      	LDD  R26,Y+2
001785 e1e8      	LDI  R30,LOW(24)
001786 27ea      	EOR  R30,R26
001787 83ea      	STD  Y+2,R30
                 ; 0008 003A             seed >>= 1;
001788 95e6      	LSR  R30
001789 83ea      	STD  Y+2,R30
                 ; 0008 003B             seed |= 0x80;
00178a 68e0      	ORI  R30,0x80
                 _0x100011:
00178b 83ea      	STD  Y+2,R30
                 ; 0008 003C         }
                 ; 0008 003D         inData >>= 1;
00178c 81eb      	LDD  R30,Y+3
00178d 95e6      	LSR  R30
00178e 83eb      	STD  Y+3,R30
                 ; 0008 003E     }
00178f 5011      	SUBI R17,1
001790 cfe6      	RJMP _0x100004
                 _0x100005:
                 ; 0008 003F     return seed;
001791 81ea      	LDD  R30,Y+2
001792 8119      	LDD  R17,Y+1
001793 8108      	LDD  R16,Y+0
001794 c067      	RJMP _0x20A000D
                 ; 0008 0040 }
                 ;
                 ;
                 ;/*! \brief  Compute the CRC16 value of a data set.
                 ; *
                 ; *  This function will compute the CRC16 of inData using seed
                 ; *  as inital value for the CRC.
                 ; *
                 ; *  \param  inData  One byte of data to compute CRC from.
                 ; *
                 ; *  \param  seed    The starting value of the CRC.
                 ; *
                 ; *  \return The CRC16 of inData with seed as initial value.
                 ; *
                 ; *  \note   Setting seed to 0 computes the crc16 of the inData.
                 ; *
                 ; *  \note   Constantly passing the return value of this function
                 ; *          As the seed argument computes the CRC16 value of a
                 ; *          longer string of data.
                 ; */
                 ;unsigned int OWI_ComputeCRC16(unsigned char inData, unsigned int seed)
                 ; 0008 0055 {
                 ; 0008 0056     unsigned char bitsLeft;
                 ; 0008 0057     unsigned char temp;
                 ; 0008 0058 
                 ; 0008 0059     for (bitsLeft = 8; bitsLeft > 0; bitsLeft--)
                 ;	inData -> Y+4
                 ;	seed -> Y+2
                 ;	bitsLeft -> R17
                 ;	temp -> R16
                 ; 0008 005A     {
                 ; 0008 005B         temp = ((seed ^ inData) & 0x01);
                 ; 0008 005C         if (temp == 0)
                 ; 0008 005D         {
                 ; 0008 005E             seed >>= 1;
                 ; 0008 005F         }
                 ; 0008 0060         else
                 ; 0008 0061         {
                 ; 0008 0062             seed ^= 0x4002;
                 ; 0008 0063             seed >>= 1;
                 ; 0008 0064             seed |= 0x8000;
                 ; 0008 0065         }
                 ; 0008 0066         inData >>= 1;
                 ; 0008 0067     }
                 ; 0008 0068     return seed;
                 ; 0008 0069 }
                 ;
                 ;
                 ;/*! \brief  Calculate and check the CRC of a 64 bit ROM identifier.
                 ; *
                 ; *  This function computes the CRC8 value of the first 56 bits of a
                 ; *  64 bit identifier. It then checks the calculated value against the
                 ; *  CRC value stored in ROM.
                 ; *
                 ; *  \param  romvalue    A pointer to an array holding a 64 bit identifier.
                 ; *
                 ; *  \retval OWI_CRC_OK      The CRC's matched.
                 ; *  \retval OWI_CRC_ERROR   There was a discrepancy between the calculated and the stored CRC.
                 ; */
                 ;unsigned char OWI_CheckRomCRC(unsigned char * romValue)
                 ; 0008 0078 {
                 _OWI_CheckRomCRC:
                 ; 0008 0079     unsigned char i;
                 ; 0008 007A     unsigned char crc8 = 0;
                 ; 0008 007B 
                 ; 0008 007C     for (i = 0; i < 7; i++)
001795 93ba      	ST   -Y,R27
001796 93aa      	ST   -Y,R26
001797 931a      	ST   -Y,R17
001798 930a      	ST   -Y,R16
                 ;	*romValue -> Y+2
                 ;	i -> R17
                 ;	crc8 -> R16
001799 e000      	LDI  R16,0
00179a e010      	LDI  R17,LOW(0)
                 _0x10000E:
00179b 3017      	CPI  R17,7
00179c f470      	BRSH _0x10000F
                 ; 0008 007D     {
                 ; 0008 007E         crc8 = OWI_ComputeCRC8(*romValue, crc8);
00179d 81aa      	LDD  R26,Y+2
00179e 81bb      	LDD  R27,Y+2+1
00179f 91ec      	LD   R30,X
0017a0 93ea      	ST   -Y,R30
0017a1 2fa0      	MOV  R26,R16
0017a2 dfd0      	RCALL _OWI_ComputeCRC8
0017a3 2f0e      	MOV  R16,R30
                 ; 0008 007F         romValue++;
0017a4 81ea      	LDD  R30,Y+2
0017a5 81fb      	LDD  R31,Y+2+1
0017a6 9631      	ADIW R30,1
0017a7 83ea      	STD  Y+2,R30
0017a8 83fb      	STD  Y+2+1,R31
                 ; 0008 0080     }
0017a9 5f1f      	SUBI R17,-1
0017aa cff0      	RJMP _0x10000E
                 _0x10000F:
                 ; 0008 0081     if (crc8 == (*romValue))
0017ab 81aa      	LDD  R26,Y+2
0017ac 81bb      	LDD  R27,Y+2+1
0017ad 91ec      	LD   R30,X
0017ae 17e0      	CP   R30,R16
0017af f421      	BRNE _0x100010
                 ; 0008 0082     {
                 ; 0008 0083         return OWI_CRC_OK;
0017b0 e0e0      	LDI  R30,LOW(0)
0017b1 8119      	LDD  R17,Y+1
0017b2 8108      	LDD  R16,Y+0
0017b3 c048      	RJMP _0x20A000D
                 ; 0008 0084     }
                 ; 0008 0085     return OWI_CRC_ERROR;
                 _0x100010:
0017b4 e0e1      	LDI  R30,LOW(1)
0017b5 8119      	LDD  R17,Y+1
0017b6 8108      	LDD  R16,Y+0
0017b7 c044      	RJMP _0x20A000D
                 ; 0008 0086 }
                 ;// This file has been prepared for Doxygen automatic documentation generation.
                 ;/*! \file ********************************************************************
                 ;*
                 ;* Atmel Corporation
                 ;*
                 ;* \li File:               OWIHighLevelFunctions.c
                 ;* \li Compiler:           IAR EWAAVR 3.20a
                 ;* \li Support mail:       avr@atmel.com
                 ;*
                 ;* \li Supported devices:  All AVRs.
                 ;*
                 ;* \li Application Note:   AVR318 - Dallas 1-Wire(R) master.
                 ;*
                 ;*
                 ;* \li Description:        High level functions for transmission of full bytes
                 ;*                         on the 1-Wire(R) bus and implementations of ROM
                 ;*                         commands.
                 ;*
                 ;*                         $Revision: 1.7 $
                 ;*                         $Date: Thursday, August 19, 2004 14:27:18 UTC $
                 ;****************************************************************************/
                 ;#include "compilers.h"
                 	#ifndef __SLEEP_DEFINED__
                 	#endif
                 ;#include "OWIHighLevelFunctions.h"
                 ;#include "OWIBitFunctions.h"
                 ;#include "OWIPolled.h"
                 ;#include "OWIcrc.h"
                 ;
                 ;/*! \brief  Sends one byte of data on the 1-Wire(R) bus(es).
                 ; *
                 ; *  This function automates the task of sending a complete byte
                 ; *  of data on the 1-Wire bus(es).
                 ; *
                 ; *  \param  data    The data to send on the bus(es).
                 ; *
                 ; *  \param  pins    A bitmask of the buses to send the data to.
                 ; */
                 ;void OWI_SendByte(unsigned char data, unsigned char pin)
                 ; 0009 0026 {
                 
                 	.CSEG
                 _OWI_SendByte:
                 ; 0009 0027     unsigned char temp;
                 ; 0009 0028     unsigned char i;
                 ; 0009 0029 
                 ; 0009 002A     // Do once for each bit
                 ; 0009 002B     for (i = 0; i < 8; i++)
0017b8 93aa      	ST   -Y,R26
0017b9 931a      	ST   -Y,R17
0017ba 930a      	ST   -Y,R16
                 ;	data -> Y+3
                 ;	pin -> Y+2
                 ;	temp -> R17
                 ;	i -> R16
0017bb e000      	LDI  R16,LOW(0)
                 _0x120004:
0017bc 3008      	CPI  R16,8
0017bd f478      	BRSH _0x120005
                 ; 0009 002C     {
                 ; 0009 002D         // Determine if lsb is '0' or '1' and transmit corresponding
                 ; 0009 002E         // waveform on the bus.
                 ; 0009 002F         temp = data & 0x01;
0017be 81eb      	LDD  R30,Y+3
0017bf 70e1      	ANDI R30,LOW(0x1)
0017c0 2f1e      	MOV  R17,R30
                 ; 0009 0030         if (temp)
0017c1 3010      	CPI  R17,0
0017c2 f019      	BREQ _0x120006
                 ; 0009 0031         {
                 ; 0009 0032             OWI_WriteBit1(pin);
0017c3 81aa      	LDD  R26,Y+2
0017c4 d1ae      	RCALL _OWI_WriteBit1
                 ; 0009 0033         }
                 ; 0009 0034         else
0017c5 c002      	RJMP _0x120007
                 _0x120006:
                 ; 0009 0035         {
                 ; 0009 0036             OWI_WriteBit0(pin);
0017c6 81aa      	LDD  R26,Y+2
0017c7 d1c2      	RCALL _OWI_WriteBit0
                 ; 0009 0037         }
                 _0x120007:
                 ; 0009 0038         // Right shift the data to get next bit.
                 ; 0009 0039         data >>= 1;
0017c8 81eb      	LDD  R30,Y+3
0017c9 95e6      	LSR  R30
0017ca 83eb      	STD  Y+3,R30
                 ; 0009 003A     }
0017cb 5f0f      	SUBI R16,-1
0017cc cfef      	RJMP _0x120004
                 _0x120005:
                 ; 0009 003B }
0017cd 8119      	LDD  R17,Y+1
0017ce 8108      	LDD  R16,Y+0
0017cf c02c      	RJMP _0x20A000D
                 ;
                 ;
                 ;/*! \brief  Receives one byte of data from the 1-Wire(R) bus.
                 ; *
                 ; *  This function automates the task of receiving a complete byte
                 ; *  of data from the 1-Wire bus.
                 ; *
                 ; *  \param  pin     A bitmask of the bus to read from.
                 ; *
                 ; *  \return     The byte read from the bus.
                 ; */
                 ;unsigned char OWI_ReceiveByte(unsigned char pin)
                 ; 0009 0048 {
                 _OWI_ReceiveByte:
                 ; 0009 0049     unsigned char data;
                 ; 0009 004A     unsigned char i;
                 ; 0009 004B 
                 ; 0009 004C     // Clear the temporary input variable.
                 ; 0009 004D     data = 0x00;
0017d0 93aa      	ST   -Y,R26
0017d1 931a      	ST   -Y,R17
0017d2 930a      	ST   -Y,R16
                 ;	pin -> Y+2
                 ;	data -> R17
                 ;	i -> R16
0017d3 e010      	LDI  R17,LOW(0)
                 ; 0009 004E 
                 ; 0009 004F     // Do once for each bit
                 ; 0009 0050     for (i = 0; i < 8; i++)
0017d4 e000      	LDI  R16,LOW(0)
                 _0x120009:
0017d5 3008      	CPI  R16,8
0017d6 f440      	BRSH _0x12000A
                 ; 0009 0051     {
                 ; 0009 0052         // Shift temporary input variable right.
                 ; 0009 0053         data >>= 1;
0017d7 9516      	LSR  R17
                 ; 0009 0054         // Set the msb if a '1' value is read from the bus.
                 ; 0009 0055         // Leave as it is ('0') else.
                 ; 0009 0056         if (OWI_ReadBit(pin))
0017d8 81aa      	LDD  R26,Y+2
0017d9 d1ca      	RCALL _OWI_ReadBit
0017da 30e0      	CPI  R30,0
0017db f009      	BREQ _0x12000B
                 ; 0009 0057         {
                 ; 0009 0058             // Set msb
                 ; 0009 0059             data |= 0x80;
0017dc 6810      	ORI  R17,LOW(128)
                 ; 0009 005A         }
                 ; 0009 005B     }
                 _0x12000B:
0017dd 5f0f      	SUBI R16,-1
0017de cff6      	RJMP _0x120009
                 _0x12000A:
                 ; 0009 005C     return data;
0017df 2fe1      	MOV  R30,R17
0017e0 940c 19e7 	JMP  _0x20A0008
                 ; 0009 005D }
                 ;
                 ;
                 ;/*! \brief  Sends the SKIP ROM command to the 1-Wire bus(es).
                 ; *
                 ; *  \param  pins    A bitmask of the buses to send the SKIP ROM command to.
                 ; */
                 ;void OWI_SkipRom(unsigned char pin)
                 ; 0009 0065 {
                 _OWI_SkipRom:
                 ; 0009 0066     // Send the SKIP ROM command on the bus.
                 ; 0009 0067     OWI_SendByte(OWI_ROM_SKIP, pin);
0017e2 93aa      	ST   -Y,R26
                 ;	pin -> Y+0
0017e3 ecec      	LDI  R30,LOW(204)
0017e4 93ea      	ST   -Y,R30
0017e5 81a9      	LDD  R26,Y+1
0017e6 dfd1      	RCALL _OWI_SendByte
                 ; 0009 0068 }
0017e7 c189      	RJMP _0x20A000A
                 ;
                 ;
                 ;/*! \brief  Sends the READ ROM command and reads back the ROM id.
                 ; *
                 ; *  \param  romValue    A pointer where the id will be placed.
                 ; *
                 ; *  \param  pin     A bitmask of the bus to read from.
                 ; */
                 ;void OWI_ReadRom(unsigned char * romValue, unsigned char pin)
                 ; 0009 0072 {
                 ; 0009 0073     unsigned char bytesLeft = 8;
                 ; 0009 0074 
                 ; 0009 0075     // Send the READ ROM command on the bus.
                 ; 0009 0076     OWI_SendByte(OWI_ROM_READ, pin);
                 ;	*romValue -> Y+2
                 ;	pin -> Y+1
                 ;	bytesLeft -> R17
                 ; 0009 0077 
                 ; 0009 0078     // Do 8 times.
                 ; 0009 0079     while (bytesLeft > 0)
                 ; 0009 007A     {
                 ; 0009 007B         // Place the received data in memory.
                 ; 0009 007C         *romValue++ = OWI_ReceiveByte(pin);
                 ; 0009 007D         bytesLeft--;
                 ; 0009 007E     }
                 ; 0009 007F }
                 ;
                 ;
                 ;/*! \brief  Sends the MATCH ROM command and the ROM id to match against.
                 ; *
                 ; *  \param  romValue    A pointer to the ID to match against.
                 ; *
                 ; *  \param  pins    A bitmask of the buses to perform the MATCH ROM command on.
                 ; */
                 ;void OWI_MatchRom(unsigned char * romValue, unsigned char pin)
                 ; 0009 0089 {
                 _OWI_MatchRom:
                 ; 0009 008A     unsigned char bytesLeft = 8;
                 ; 0009 008B 
                 ; 0009 008C     // Send the MATCH ROM command.
                 ; 0009 008D     OWI_SendByte(OWI_ROM_MATCH, pin);
0017e8 93aa      	ST   -Y,R26
0017e9 931a      	ST   -Y,R17
                 ;	*romValue -> Y+2
                 ;	pin -> Y+1
                 ;	bytesLeft -> R17
0017ea e018      	LDI  R17,8
0017eb e5e5      	LDI  R30,LOW(85)
0017ec 93ea      	ST   -Y,R30
0017ed 81aa      	LDD  R26,Y+2
0017ee dfc9      	RCALL _OWI_SendByte
                 ; 0009 008E 
                 ; 0009 008F     // Do once for each byte.
                 ; 0009 0090     while (bytesLeft > 0)
                 _0x12000F:
0017ef 3011      	CPI  R17,1
0017f0 f050      	BRLO _0x120011
                 ; 0009 0091     {
                 ; 0009 0092         // Transmit 1 byte of the ID to match.
                 ; 0009 0093         OWI_SendByte(*romValue++, pin);
0017f1 81aa      	LDD  R26,Y+2
0017f2 81bb      	LDD  R27,Y+2+1
0017f3 91ed      	LD   R30,X+
0017f4 83aa      	STD  Y+2,R26
0017f5 83bb      	STD  Y+2+1,R27
0017f6 93ea      	ST   -Y,R30
0017f7 81aa      	LDD  R26,Y+2
0017f8 dfbf      	RCALL _OWI_SendByte
                 ; 0009 0094         bytesLeft--;
0017f9 5011      	SUBI R17,1
                 ; 0009 0095     }
0017fa cff4      	RJMP _0x12000F
                 _0x120011:
                 ; 0009 0096 }
0017fb 8118      	LDD  R17,Y+0
                 _0x20A000D:
0017fc 9624      	ADIW R28,4
0017fd 9508      	RET
                 ;
                 ;
                 ;/*! \brief  Sends the SEARCH ROM command and returns 1 id found on the
                 ; *          1-Wire(R) bus.
                 ; *
                 ; *  \param  bitPattern      A pointer to an 8 byte char array where the
                 ; *                          discovered identifier will be placed. When
                 ; *                          searching for several slaves, a copy of the
                 ; *                          last found identifier should be supplied in
                 ; *                          the array, or the search will fail.
                 ; *
                 ; *  \param  lastDeviation   The bit position where the algorithm made a
                 ; *                          choice the last time it was run. This argument
                 ; *                          should be 0 when a search is initiated. Supplying
                 ; *                          the return argument of this function when calling
                 ; *                          repeatedly will go through the complete slave
                 ; *                          search.
                 ; *
                 ; *  \param  pin             A bit-mask of the bus to perform a ROM search on.
                 ; *
                 ; *  \return The last bit position where there was a discrepancy between slave addresses the last time this function was run. Returns OWI_ROM_SEARCH_FAILED if an error was detected (e.g. a device was connected to the bus during the search), or OWI_ROM_SEA                 RCH_FINISHED when there are no more devices to be discovered.
                 ; *
                 ; *  \note   See main.c for an example of how to utilize this function.
                 ; */
                 ;unsigned char OWI_SearchRom(unsigned char * bitPattern, unsigned char lastDeviation, unsigned char pin)
                 ; 0009 00B0 {
                 _OWI_SearchRom:
                 ; 0009 00B1     unsigned char currentBit = 1;
                 ; 0009 00B2     unsigned char newDeviation = 0;
                 ; 0009 00B3     unsigned char bitMask = 0x01;
                 ; 0009 00B4     unsigned char bitA;
                 ; 0009 00B5     unsigned char bitB;
                 ; 0009 00B6 
                 ; 0009 00B7     // Send SEARCH ROM command on the bus.
0017fe 93aa      ; 0009 00B8     OWI_SendByte(OWI_ROM_SEARCH, pin);
0017ff 940e 26d9 	ST   -Y,R26
                 	CALL __SAVELOCR6
                 ;	*bitPattern -> Y+8
                 ;	lastDeviation -> Y+7
                 ;	pin -> Y+6
                 ;	currentBit -> R17
                 ;	newDeviation -> R16
                 ;	bitMask -> R19
                 ;	bitA -> R18
001801 e011      ;	bitB -> R21
001802 e000      	LDI  R17,1
001803 e031      	LDI  R16,0
001804 efe0      	LDI  R19,1
001805 93ea      	LDI  R30,LOW(240)
001806 81af      	ST   -Y,R30
001807 dfb0      	LDD  R26,Y+7
                 	RCALL _OWI_SendByte
                 ; 0009 00B9 
                 ; 0009 00BA     // Walk through all 64 bits.
                 ; 0009 00BB     while (currentBit <= 64)
001808 3411      _0x120012:
001809 f010      	CPI  R17,65
00180a 940c 1851 	BRLO PC+3
                 	JMP _0x120014
                 ; 0009 00BC     {
                 ; 0009 00BD         // Read bit from bus twice.
00180c 81ae      ; 0009 00BE         bitA = OWI_ReadBit(pin);
00180d d196      	LDD  R26,Y+6
00180e 2f2e      	RCALL _OWI_ReadBit
                 	MOV  R18,R30
00180f 81ae      ; 0009 00BF         bitB = OWI_ReadBit(pin);
001810 d193      	LDD  R26,Y+6
001811 2f5e      	RCALL _OWI_ReadBit
                 	MOV  R21,R30
                 ; 0009 00C0 
001812 3020      ; 0009 00C1         if (bitA && bitB)
001813 f011      	CPI  R18,0
001814 3050      	BREQ _0x120016
001815 f409      	CPI  R21,0
                 	BRNE _0x120017
001816 c003      _0x120016:
                 	RJMP _0x120015
                 _0x120017:
                 ; 0009 00C2         {
                 ; 0009 00C3             // Both bits 1 (Error).
001817 ef0f      ; 0009 00C4             newDeviation = OWI_ROM_SEARCH_FAILED;
                 	LDI  R16,LOW(255)
001818 efef      ; 0009 00C5             return SEARCH_ERROR;
001819 c038      	LDI  R30,LOW(255)
                 	RJMP _0x20A000C
                 ; 0009 00C6         }
                 ; 0009 00C7         else if (bitA ^ bitB)
00181a 2fe5      _0x120015:
00181b 27e2      	MOV  R30,R21
00181c f059      	EOR  R30,R18
                 	BREQ _0x120019
                 ; 0009 00C8         {
                 ; 0009 00C9             // Bits A and B are different. All devices have the same bit here.
                 ; 0009 00CA             // Set the bit in bitPattern to this value.
00181d 3020      ; 0009 00CB             if (bitA)
00181e f029      	CPI  R18,0
                 	BREQ _0x12001A
                 ; 0009 00CC             {
00181f 85a8      ; 0009 00CD                 (*bitPattern) |= bitMask;
001820 85b9      	LDD  R26,Y+8
001821 91ec      	LDD  R27,Y+8+1
001822 2be3      	LD   R30,X
001823 c002      	OR   R30,R19
                 	RJMP _0x120046
                 ; 0009 00CE             }
                 ; 0009 00CF             else
                 _0x12001A:
                 ; 0009 00D0             {
001824 940e 229a ; 0009 00D1                 (*bitPattern) &= ~bitMask;
                 	CALL SUBOPT_0x7E
001826 93ec      _0x120046:
                 	ST   X,R30
                 ; 0009 00D2             }
                 ; 0009 00D3         }
001827 c017      ; 0009 00D4         else // Both bits 0
                 	RJMP _0x12001C
                 _0x120019:
                 ; 0009 00D5         {
                 ; 0009 00D6             // If this is where a choice was made the last time,
                 ; 0009 00D7             // a '1' bit is selected this time.
001828 81ef      ; 0009 00D8             if (currentBit == lastDeviation)
001829 17e1      	LDD  R30,Y+7
00182a f431      	CP   R30,R17
                 	BRNE _0x12001D
                 ; 0009 00D9             {
00182b 85a8      ; 0009 00DA                 (*bitPattern) |= bitMask;
00182c 85b9      	LDD  R26,Y+8
00182d 91ec      	LDD  R27,Y+8+1
00182e 2be3      	LD   R30,X
00182f 93ec      	OR   R30,R19
                 	ST   X,R30
                 ; 0009 00DB             }
                 ; 0009 00DC             // For the rest of the id, '0' bits are selected when
                 ; 0009 00DD             // discrepancies occur.
001830 c00e      ; 0009 00DE             else if (currentBit > lastDeviation)
                 	RJMP _0x12001E
001831 81ef      _0x12001D:
001832 17e1      	LDD  R30,Y+7
001833 f428      	CP   R30,R17
                 	BRSH _0x12001F
                 ; 0009 00DF             {
001834 940e 229a ; 0009 00E0                 (*bitPattern) &= ~bitMask;
001836 93ec      	CALL SUBOPT_0x7E
                 	ST   X,R30
001837 2f01      ; 0009 00E1                 newDeviation = currentBit;
                 	MOV  R16,R17
                 ; 0009 00E2             }
                 ; 0009 00E3             // If current bit in bit pattern = 0, then this is
                 ; 0009 00E4             // out new deviation.
001838 c006      ; 0009 00E5             else if ( !(*bitPattern & bitMask))
                 	RJMP _0x120020
001839 85a8      _0x12001F:
00183a 85b9      	LDD  R26,Y+8
00183b 91ec      	LDD  R27,Y+8+1
00183c 23e3      	LD   R30,X
00183d f409      	AND  R30,R19
                 	BRNE _0x120021
                 ; 0009 00E6             {
00183e 2f01      ; 0009 00E7                 newDeviation = currentBit;
                 	MOV  R16,R17
                 ; 0009 00E8             }
                 ; 0009 00E9             // IF the bit is already 1, do nothing.
                 ; 0009 00EA             else
                 _0x120021:
                 ; 0009 00EB             {
                 ; 0009 00EC 
                 ; 0009 00ED             }
                 _0x120020:
                 _0x12001E:
                 ; 0009 00EE         }
                 _0x12001C:
                 ; 0009 00EF 
                 ; 0009 00F0 
                 ; 0009 00F1         // Send the selected bit to the bus.
00183f 85a8      ; 0009 00F2         if ((*bitPattern) & bitMask)
001840 85b9      	LDD  R26,Y+8
001841 91ec      	LDD  R27,Y+8+1
001842 23e3      	LD   R30,X
001843 f019      	AND  R30,R19
                 	BREQ _0x120023
                 ; 0009 00F3         {
001844 81ae      ; 0009 00F4             OWI_WriteBit1(pin);
001845 d12d      	LDD  R26,Y+6
                 	RCALL _OWI_WriteBit1
                 ; 0009 00F5         }
001846 c002      ; 0009 00F6         else
                 	RJMP _0x120024
                 _0x120023:
                 ; 0009 00F7         {
001847 81ae      ; 0009 00F8             OWI_WriteBit0(pin);
001848 d141      	LDD  R26,Y+6
                 	RCALL _OWI_WriteBit0
                 ; 0009 00F9         }
                 _0x120024:
                 ; 0009 00FA 
                 ; 0009 00FB         // Increment current bit.
001849 5f1f      ; 0009 00FC         currentBit++;
                 	SUBI R17,-1
                 ; 0009 00FD 
                 ; 0009 00FE         // Adjust bitMask and bitPattern pointer.
00184a 0f33      ; 0009 00FF         bitMask <<= 1;
                 	LSL  R19
00184b 3030      ; 0009 0100         if (!bitMask)
00184c f419      	CPI  R19,0
                 	BRNE _0x120025
                 ; 0009 0101         {
00184d e031      ; 0009 0102             bitMask = 0x01;
                 	LDI  R19,LOW(1)
00184e 940e 22a3 ; 0009 0103             bitPattern++;
                 	CALL SUBOPT_0x7F
                 ; 0009 0104         }
                 ; 0009 0105     }
001850 cfb7      _0x120025:
                 	RJMP _0x120012
                 _0x120014:
001851 2fe0      ; 0009 0106     return newDeviation;
                 	MOV  R30,R16
001852 940e 26e0 _0x20A000C:
001854 962a      	CALL __LOADLOCR6
001855 9508      	ADIW R28,10
                 	RET
                 ; 0009 0107 }
                 ;
                 ;/*! \brief  Perform a 1-Wire search
                 ; *
                 ; *  This function shows how the OWI_SearchRom function can be used to
                 ; *  discover all slaves on the bus. It will also CRC check the 64 bit
                 ; *  identifiers.
                 ; *
                 ; *  \param  devices Pointer to an array of type OWI_device. The discovered
                 ; *                  devices will be placed from the beginning of this array.
                 ; *
                 ; *  \param  len     The length of the device array. (Max. number of elements).
                 ; *
                 ; *  \param  buses   Bitmask of the buses to perform search on.
                 ; *
                 ; *  \retval SEARCH_SUCCESSFUL   Search completed successfully.
                 ; *  \retval SEARCH_CRC_ERROR    A CRC error occured. Probably because of noise
                 ; *                              during transmission.
                 ; */
                 ;unsigned char OWI_SearchDevices(OWI_device * devices, unsigned char numDevices, unsigned char pin, unsigned char *num)
                 ; 0009 011B {
                 _OWI_SearchDevices:
                 ; 0009 011C     unsigned char i, j;
                 ; 0009 011D     unsigned char * newID;
                 ; 0009 011E     unsigned char * currentID;
                 ; 0009 011F     unsigned char lastDeviation;
                 ; 0009 0120     unsigned char numFoundDevices;
                 ; 0009 0121     unsigned char flag = SEARCH_SUCCESSFUL;
                 ; 0009 0122 
                 ; 0009 0123     //  1Wire 
001856 93ba      ; 0009 0124     for (i = 0; i < numDevices; i++)
001857 93aa      	ST   -Y,R27
001858 9723      	ST   -Y,R26
001859 e0e0      	SBIW R28,3
00185a 83e8      	LDI  R30,LOW(0)
00185b 940e 26d9 	ST   Y,R30
                 	CALL __SAVELOCR6
                 ;	*devices -> Y+13
                 ;	numDevices -> Y+12
                 ;	pin -> Y+11
                 ;	*num -> Y+9
                 ;	i -> R17
                 ;	j -> R16
                 ;	*newID -> R18,R19
                 ;	*currentID -> R20,R21
                 ;	lastDeviation -> Y+8
                 ;	numFoundDevices -> Y+7
00185d e010      ;	flag -> Y+6
                 	LDI  R17,LOW(0)
00185e 85ec      _0x120027:
00185f 171e      	LDD  R30,Y+12
001860 f488      	CP   R17,R30
                 	BRSH _0x120028
                 ; 0009 0125     {
001861 e000      ; 0009 0126         for (j = 0; j < 8; j++)
                 	LDI  R16,LOW(0)
001862 3008      _0x12002A:
001863 f460      	CPI  R16,8
                 	BRSH _0x12002B
                 ; 0009 0127         {
001864 940e 1ef2 ; 0009 0128             devices[i].id[j] = 0x00;
001866 940e 22a9 	CALL SUBOPT_0x10
001868 0fae      	CALL SUBOPT_0x80
001869 1fbf      	ADD  R26,R30
00186a 27ee      	ADC  R27,R31
00186b 0fa0      	CLR  R30
00186c 1fbe      	ADD  R26,R16
00186d 93ec      	ADC  R27,R30
                 	ST   X,R30
00186e 5f0f      ; 0009 0129         }
00186f cff2      	SUBI R16,-1
                 	RJMP _0x12002A
                 _0x12002B:
001870 5f1f      ; 0009 012A     }
001871 cfec      	SUBI R17,-1
                 	RJMP _0x120027
                 _0x120028:
                 ; 0009 012B 
001872 e0e0      ; 0009 012C     numFoundDevices = 0;
001873 83ef      	LDI  R30,LOW(0)
                 	STD  Y+7,R30
                +
001874 852d     +LDD R18 , Y + 13
001875 853e     +LDD R19 , Y + 13 + 1
                 	__GETWRS 18,19,13
                 ; 0009 012E     lastDeviation = 0;
001876 87e8      	STD  Y+8,R30
                 ; 0009 012F     currentID = newID;
001877 01a9      	MOVW R20,R18
                 ; 0009 0130     *num = 0;
001878 85a9      	LDD  R26,Y+9
001879 85ba      	LDD  R27,Y+9+1
00187a 93ec      	ST   X,R30
                 ; 0009 0131 
                 ; 0009 0132     do
                 _0x12002D:
                 ; 0009 0133     {
                 ; 0009 0134       memcpy(newID, currentID, 8);
00187b 933a      	ST   -Y,R19
00187c 932a      	ST   -Y,R18
00187d 935a      	ST   -Y,R21
00187e 934a      	ST   -Y,R20
00187f e0a8      	LDI  R26,LOW(8)
001880 e0b0      	LDI  R27,0
001881 940e 19eb 	CALL _memcpy
                 ; 0009 0135       if (!OWI_DetectPresence(pin)){
001883 85ab      	LDD  R26,Y+11
001884 d141      	RCALL _OWI_DetectPresence
001885 30e0      	CPI  R30,0
001886 f411      	BRNE _0x12002F
                 ; 0009 0136         return SEARCH_ERROR;
001887 efef      	LDI  R30,LOW(255)
001888 c02c      	RJMP _0x20A000B
                 ; 0009 0137       };
                 _0x12002F:
                 ; 0009 0138       lastDeviation = OWI_SearchRom(newID, lastDeviation, pin);
001889 933a      	ST   -Y,R19
00188a 932a      	ST   -Y,R18
00188b 85ea      	LDD  R30,Y+10
00188c 93ea      	ST   -Y,R30
00188d 85ae      	LDD  R26,Y+14
00188e df6f      	RCALL _OWI_SearchRom
00188f 87e8      	STD  Y+8,R30
                 ; 0009 0139       currentID = newID;
001890 01a9      	MOVW R20,R18
                 ; 0009 013A       numFoundDevices++;
001891 81ef      	LDD  R30,Y+7
001892 5fef      	SUBI R30,-LOW(1)
001893 83ef      	STD  Y+7,R30
                 ; 0009 013B       newID=devices[numFoundDevices].id;
001894 e0f0      	LDI  R31,0
001895 940e 22a9 	CALL SUBOPT_0x80
001897 0fea      	ADD  R30,R26
001898 1ffb      	ADC  R31,R27
001899 019f      	MOVW R18,R30
                 ; 0009 013C     } while(lastDeviation != OWI_ROM_SEARCH_FINISHED);
00189a 85e8      	LDD  R30,Y+8
00189b 30e0      	CPI  R30,0
00189c f6f1      	BRNE _0x12002D
                 ; 0009 013D 
                 ; 0009 013E 
                 ; 0009 013F     // Go through all the devices and do CRC check.
                 ; 0009 0140     for (i = 0; i < numFoundDevices; i++)
00189d e010      	LDI  R17,LOW(0)
                 _0x120031:
00189e 81ef      	LDD  R30,Y+7
00189f 171e      	CP   R17,R30
0018a0 f498      	BRSH _0x120032
                 ; 0009 0141     {
                 ; 0009 0142         // If any id has a crc error, return error.
                 ; 0009 0143         if(OWI_CheckRomCRC(devices[i].id) != OWI_CRC_OK)
0018a1 940e 1ef2 	CALL SUBOPT_0x10
0018a3 940e 22a9 	CALL SUBOPT_0x80
0018a5 0fae      	ADD  R26,R30
0018a6 1fbf      	ADC  R27,R31
0018a7 deed      	RCALL _OWI_CheckRomCRC
0018a8 30e0      	CPI  R30,0
0018a9 f019      	BREQ _0x120033
                 ; 0009 0144         {
                 ; 0009 0145             flag = SEARCH_CRC_ERROR;
0018aa e0e1      	LDI  R30,LOW(1)
0018ab 83ee      	STD  Y+6,R30
                 ; 0009 0146         }
                 ; 0009 0147         else
0018ac c005      	RJMP _0x120034
                 _0x120033:
                 ; 0009 0148         {
                 ; 0009 0149            (*num)++;
0018ad 85a9      	LDD  R26,Y+9
0018ae 85ba      	LDD  R27,Y+9+1
0018af 91ec      	LD   R30,X
0018b0 5fef      	SUBI R30,-LOW(1)
0018b1 93ec      	ST   X,R30
                 ; 0009 014A         }
                 _0x120034:
                 ; 0009 014B     }
0018b2 5f1f      	SUBI R17,-1
0018b3 cfea      	RJMP _0x120031
                 _0x120032:
                 ; 0009 014C     // Else, return Successful.
                 ; 0009 014D     return flag;
0018b4 81ee      	LDD  R30,Y+6
                 _0x20A000B:
0018b5 940e 26e0 	CALL __LOADLOCR6
0018b7 962f      	ADIW R28,15
0018b8 9508      	RET
                 ; 0009 014E }
                 ;
                 ;/*! \brief  Find the first device of a family based on the family id
                 ; *
                 ; *  This function returns a pointer to a device in the device array
                 ; *  that matches the specified family.
                 ; *
                 ; *  \param  familyID    The 8 bit family ID to search for.
                 ; *
                 ; *  \param  devices     An array of devices to search through.
                 ; *
                 ; *  \param  size        The size of the array 'devices'
                 ; *
                 ; *  \return A pointer to a device of the family.
                 ; *  \retval NULL    if no device of the family was found.
                 ; */
                 ;unsigned char FindFamily(unsigned char familyID, OWI_device * devices, unsigned char numDevices, unsigned char lastNum)
                 ; 0009 015F {
                 ; 0009 0160     unsigned char i;
                 ; 0009 0161 
                 ; 0009 0162     if (lastNum == AT_FIRST){
                 ;	familyID -> Y+5
                 ;	*devices -> Y+3
                 ;	numDevices -> Y+2
                 ;	lastNum -> Y+1
                 ;	i -> R17
                 ; 0009 0163       i = 0;
                 ; 0009 0164     }
                 ; 0009 0165     else{
                 ; 0009 0166       i = lastNum + 1;
                 ; 0009 0167     }
                 ; 0009 0168 
                 ; 0009 0169     // Search through the array.
                 ; 0009 016A     while (i < numDevices)
                 ; 0009 016B     {
                 ; 0009 016C         // Return the pointer if there is a family id match.
                 ; 0009 016D         if ((*devices).id[0] == familyID)
                 ; 0009 016E         {
                 ; 0009 016F             return i;
                 ; 0009 0170         }
                 ; 0009 0171         devices++;
                 ; 0009 0172         i++;
                 ; 0009 0173     }
                 ; 0009 0174     return SEARCH_ERROR;
                 ; 0009 0175 }
                 ;
                 ;
                 ;/*! \brief  Start temperature convert for all devicec on bus
                 ; *
                 ; *  This function
                 ; *
                 ; *  \param  pin    Bitmask of the buses to perform search on.
                 ; *
                 ; */
                 ;
                 ;void StartAllConvert_T(unsigned char pin)
                 ; 0009 0181 {
                 _StartAllConvert_T:
                 ; 0009 0182     OWI_DetectPresence(pin);
0018b9 93aa      	ST   -Y,R26
                 ;	pin -> Y+0
0018ba 81a8      	LD   R26,Y
0018bb d10a      	RCALL _OWI_DetectPresence
                 ; 0009 0183     OWI_SkipRom(pin);
0018bc 81a8      	LD   R26,Y
0018bd df24      	RCALL _OWI_SkipRom
                 ; 0009 0184     OWI_SendByte(DS18B20_CONVERT_T, pin);
0018be e4e4      	LDI  R30,LOW(68)
0018bf 93ea      	ST   -Y,R30
0018c0 81a9      	LDD  R26,Y+1
0018c1 def6      	RCALL _OWI_SendByte
                 ; 0009 0185 }
0018c2 c0ae      	RJMP _0x20A000A
                 ;
                 ;
                 ;float GetTemperatureSkipRom(unsigned char pin)
                 ; 0009 0189 {
                 ; 0009 018A     unsigned int tmp = 0, sig = 0;
                 ; 0009 018B     float temperature;
                 ; 0009 018C     unsigned char scratchpad[9];
                 ; 0009 018D     OWI_DetectPresence(pin);
                 ;	pin -> Y+17
                 ;	tmp -> R16,R17
                 ;	sig -> R18,R19
                 ;	temperature -> Y+13
                 ;	scratchpad -> Y+4
                 ; 0009 018E     OWI_SkipRom(pin);
                 ; 0009 018F     OWI_SendByte(DS18B20_READ_SCRATCHPAD, pin);
                 ; 0009 0190     scratchpad[0] = OWI_ReceiveByte(pin);
                 ; 0009 0191     scratchpad[1] = OWI_ReceiveByte(pin);
                 ; 0009 0192 
                 ; 0009 0193     if ((scratchpad[1]&128) != 0){
                 ; 0009 0194       tmp = ((unsigned int)scratchpad[1]<<8)|scratchpad[0];
                 ; 0009 0195       tmp = ~tmp + 1;
                 ; 0009 0196       scratchpad[0] = tmp;
                 ; 0009 0197       scratchpad[1] = tmp>>8;
                 ; 0009 0198       sig = 1;
                 ; 0009 0199     }
                 ; 0009 019A     /* . */
                 ; 0009 019B     temperature = (float)((scratchpad[0]>>4)|((scratchpad[1]&7)<<4));
                 ; 0009 019C     /*   . */
                 ; 0009 019D     temperature += ((float)(scratchpad[0]&15) * 0.0625);
                 ; 0009 019E     if (sig) {
                 ; 0009 019F         temperature *= -1.0;
                 ; 0009 01A0     }
                 ; 0009 01A1     return temperature;
                 ; 0009 01A2 }
                 ;
                 ;float GetTemperatureMatchRom(unsigned char * romValue, unsigned char pin)
                 ; 0009 01A5 {
                 _GetTemperatureMatchRom:
                 ; 0009 01A6     unsigned int tmp = 0, sig = 0;
                 ; 0009 01A7     float temperature;
                 ; 0009 01A8     unsigned char scratchpad[9];
                 ; 0009 01A9     OWI_DetectPresence(pin);
0018c3 93aa      	ST   -Y,R26
0018c4 972d      	SBIW R28,13
0018c5 940e 26db 	CALL __SAVELOCR4
                 ;	*romValue -> Y+18
                 ;	pin -> Y+17
                 ;	tmp -> R16,R17
                 ;	sig -> R18,R19
                 ;	temperature -> Y+13
                 ;	scratchpad -> Y+4
                +
0018c7 e000     +LDI R16 , LOW ( 0 )
0018c8 e010     +LDI R17 , HIGH ( 0 )
                 	__GETWRN 16,17,0
                +
0018c9 e020     +LDI R18 , LOW ( 0 )
0018ca e030     +LDI R19 , HIGH ( 0 )
                 	__GETWRN 18,19,0
0018cb 89a9      	LDD  R26,Y+17
0018cc d0f9      	RCALL _OWI_DetectPresence
                 ; 0009 01AA     OWI_MatchRom(romValue, pin);
0018cd 89ea      	LDD  R30,Y+18
0018ce 89fb      	LDD  R31,Y+18+1
0018cf 93fa      	ST   -Y,R31
0018d0 93ea      	ST   -Y,R30
0018d1 89ab      	LDD  R26,Y+19
0018d2 df15      	RCALL _OWI_MatchRom
                 ; 0009 01AB     OWI_SendByte(DS18B20_READ_SCRATCHPAD, pin);
0018d3 ebee      	LDI  R30,LOW(190)
0018d4 93ea      	ST   -Y,R30
0018d5 89aa      	LDD  R26,Y+18
0018d6 dee1      	RCALL _OWI_SendByte
                 ; 0009 01AC     scratchpad[0] = OWI_ReceiveByte(pin);
0018d7 89a9      	LDD  R26,Y+17
0018d8 def7      	RCALL _OWI_ReceiveByte
0018d9 83ec      	STD  Y+4,R30
                 ; 0009 01AD     scratchpad[1] = OWI_ReceiveByte(pin);
0018da 89a9      	LDD  R26,Y+17
0018db def4      	RCALL _OWI_ReceiveByte
0018dc 83ed      	STD  Y+5,R30
                 ; 0009 01AE 
                 ; 0009 01AF     if ((scratchpad[1]&128) != 0){
0018dd 78e0      	ANDI R30,LOW(0x80)
0018de f089      	BREQ _0x12003D
                 ; 0009 01B0       tmp = ((unsigned int)scratchpad[1]<<8)|scratchpad[0];
0018df e0e0      	LDI  R30,0
0018e0 81fd      	LDD  R31,Y+5
0018e1 01df      	MOVW R26,R30
0018e2 81ec      	LDD  R30,Y+4
0018e3 e0f0      	LDI  R31,0
0018e4 2bea      	OR   R30,R26
0018e5 2bfb      	OR   R31,R27
0018e6 018f      	MOVW R16,R30
                 ; 0009 01B1       tmp = ~tmp + 1;
0018e7 01f8      	MOVW R30,R16
0018e8 95e0      	COM  R30
0018e9 95f0      	COM  R31
0018ea 9631      	ADIW R30,1
0018eb 018f      	MOVW R16,R30
                 ; 0009 01B2       scratchpad[0] = tmp;
                +
0018ec 830c     +STD Y + 4 , R16
                 	__PUTBSR 16,4
                 ; 0009 01B3       scratchpad[1] = tmp>>8;
                +
0018ed 831d     +STD Y + 5 , R17
                 	__PUTBSR 17,5
                 ; 0009 01B4       sig = 1;
                +
0018ee e021     +LDI R18 , LOW ( 1 )
0018ef e030     +LDI R19 , HIGH ( 1 )
                 	__GETWRN 18,19,1
                 ; 0009 01B5     }
                 ; 0009 01B6     temperature = (float)((scratchpad[0]>>4)|((scratchpad[1]&7)<<4));
                 _0x12003D:
0018f0 81ec      	LDD  R30,Y+4
0018f1 e0f0      	LDI  R31,0
0018f2 940e 2591 	CALL __ASRW4
0018f4 01df      	MOVW R26,R30
0018f5 81ed      	LDD  R30,Y+5
0018f6 70e7      	ANDI R30,LOW(0x7)
0018f7 e0f0      	LDI  R31,0
0018f8 940e 2588 	CALL __LSLW4
0018fa 2bea      	OR   R30,R26
0018fb 2bfb      	OR   R31,R27
0018fc 940e 207b 	CALL SUBOPT_0x39
0018fe 940e 22ae 	CALL SUBOPT_0x81
                 ; 0009 01B7     temperature += ((float)(scratchpad[0]&15) * 0.0625);
001900 81ec      	LDD  R30,Y+4
001901 70ef      	ANDI R30,LOW(0xF)
001902 940e 20d7 	CALL SUBOPT_0x47
                +
001904 e0a0     +LDI R26 , LOW ( 0x3D800000 )
001905 e0b0     +LDI R27 , HIGH ( 0x3D800000 )
001906 e880     +LDI R24 , BYTE3 ( 0x3D800000 )
001907 e39d     +LDI R25 , BYTE4 ( 0x3D800000 )
                 	__GETD2N 0x3D800000
001908 940e 24c5 	CALL __MULF12
                +
00190a 85ad     +LDD R26 , Y + 13
00190b 85be     +LDD R27 , Y + 13 + 1
00190c 858f     +LDD R24 , Y + 13 + 2
00190d 8998     +LDD R25 , Y + 13 + 3
                 	__GETD2S 13
00190e 940e 2475 	CALL __ADDF12
001910 940e 22ae 	CALL SUBOPT_0x81
                 ; 0009 01B8 
                 ; 0009 01B9     if (sig) {
001912 2e02      	MOV  R0,R18
001913 2a03      	OR   R0,R19
001914 f061      	BREQ _0x12003E
                 ; 0009 01BA         temperature *= -1.0;
                +
001915 85ad     +LDD R26 , Y + 13
001916 85be     +LDD R27 , Y + 13 + 1
001917 858f     +LDD R24 , Y + 13 + 2
001918 8998     +LDD R25 , Y + 13 + 3
                 	__GETD2S 13
                +
001919 e0e0     +LDI R30 , LOW ( 0xBF800000 )
00191a e0f0     +LDI R31 , HIGH ( 0xBF800000 )
00191b e860     +LDI R22 , BYTE3 ( 0xBF800000 )
00191c eb7f     +LDI R23 , BYTE4 ( 0xBF800000 )
                 	__GETD1N 0xBF800000
00191d 940e 24c5 	CALL __MULF12
00191f 940e 22ae 	CALL SUBOPT_0x81
                 ; 0009 01BB     }
                 ; 0009 01BC     return temperature;
                 _0x12003E:
                +
001921 85ed     +LDD R30 , Y + 13
001922 85fe     +LDD R31 , Y + 13 + 1
001923 856f     +LDD R22 , Y + 13 + 2
001924 8978     +LDD R23 , Y + 13 + 3
                 	__GETD1S 13
001925 940e 26e2 	CALL __LOADLOCR4
001927 9664      	ADIW R28,20
001928 9508      	RET
                 ; 0009 01BD }
                 ;
                 ;
                 ;unsigned char InitSensor(unsigned char * romValue, unsigned char pin, signed char lowAlm, signed char hiAlm, unsigned char resolution)
                 ; 0009 01C1 {
                 _InitSensor:
                 ; 0009 01C2      unsigned char scratchpad[9];
                 ; 0009 01C3      unsigned char i;
                 ; 0009 01C4      OWI_DetectPresence(pin);
001929 93aa      	ST   -Y,R26
00192a 9729      	SBIW R28,9
00192b 931a      	ST   -Y,R17
                 ;	*romValue -> Y+14
                 ;	pin -> Y+13
                 ;	lowAlm -> Y+12
                 ;	hiAlm -> Y+11
                 ;	resolution -> Y+10
                 ;	scratchpad -> Y+1
                 ;	i -> R17
00192c 940e 22b3 	CALL SUBOPT_0x82
                 ; 0009 01C5      OWI_MatchRom(romValue, pin);
                 ; 0009 01C6      OWI_SendByte(DS18B20_WRITE_SCRATCHPAD, pin);
00192e e4ee      	LDI  R30,LOW(78)
00192f 940e 22bd 	CALL SUBOPT_0x83
                 ; 0009 01C7      OWI_SendByte(hiAlm, pin);
001931 85eb      	LDD  R30,Y+11
001932 940e 22bd 	CALL SUBOPT_0x83
                 ; 0009 01C8      OWI_SendByte(lowAlm, pin);
001934 85ec      	LDD  R30,Y+12
001935 940e 22bd 	CALL SUBOPT_0x83
                 ; 0009 01C9      OWI_SendByte(resolution, pin);
001937 85ea      	LDD  R30,Y+10
001938 940e 22bd 	CALL SUBOPT_0x83
                 ; 0009 01CA 
                 ; 0009 01CB      // check settings
                 ; 0009 01CC      OWI_DetectPresence(pin);
00193a 940e 22b3 	CALL SUBOPT_0x82
                 ; 0009 01CD      OWI_MatchRom(romValue, pin);
                 ; 0009 01CE      OWI_SendByte(DS18B20_READ_SCRATCHPAD, pin);
00193c ebee      	LDI  R30,LOW(190)
00193d 940e 22bd 	CALL SUBOPT_0x83
                 ; 0009 01CF      for (i=0; i<8; i++) {
00193f e010      	LDI  R17,LOW(0)
                 _0x120040:
001940 3018      	CPI  R17,8
001941 f478      	BRSH _0x120041
                 ; 0009 01D0         scratchpad[i] = OWI_ReceiveByte(pin);
001942 940e 1ef2 	CALL SUBOPT_0x10
001944 01de      	MOVW R26,R28
001945 9611      	ADIW R26,1
001946 0fea      	ADD  R30,R26
001947 1ffb      	ADC  R31,R27
001948 93ff      	PUSH R31
001949 93ef      	PUSH R30
00194a 85ad      	LDD  R26,Y+13
00194b de84      	RCALL _OWI_ReceiveByte
00194c 91af      	POP  R26
00194d 91bf      	POP  R27
00194e 93ec      	ST   X,R30
                 ; 0009 01D1      }
00194f 5f1f      	SUBI R17,-1
001950 cfef      	RJMP _0x120040
                 _0x120041:
                 ; 0009 01D2 
                 ; 0009 01D3      if (scratchpad[2] == hiAlm && scratchpad[3] == lowAlm && scratchpad[4] == resolution) {
001951 85eb      	LDD  R30,Y+11
001952 81ab      	LDD  R26,Y+3
001953 940e 21ef 	CALL SUBOPT_0x65
001955 f449      	BRNE _0x120043
001956 85ec      	LDD  R30,Y+12
001957 81ac      	LDD  R26,Y+4
001958 940e 21ef 	CALL SUBOPT_0x65
00195a f421      	BRNE _0x120043
00195b 85ea      	LDD  R30,Y+10
00195c 81ad      	LDD  R26,Y+5
00195d 17ea      	CP   R30,R26
00195e f009      	BREQ _0x120044
                 _0x120043:
00195f c004      	RJMP _0x120042
                 _0x120044:
                 ; 0009 01D4         return SET_SETTINGS_SUCCESSFUL;
001960 e0e0      	LDI  R30,LOW(0)
001961 8118      	LDD  R17,Y+0
001962 940c 1b29 	JMP  _0x20A0006
                 ; 0009 01D5      } else {
                 _0x120042:
                 ; 0009 01D6         return SET_SETTINGS_ERROR;
001964 e1e0      	LDI  R30,LOW(16)
001965 8118      	LDD  R17,Y+0
001966 940c 1b29 	JMP  _0x20A0006
                 ; 0009 01D7      }
                 ; 0009 01D8 }
                 ;// This file has been prepared for Doxygen automatic documentation generation.
                 ;/*! \file ********************************************************************
                 ;*
                 ;* Atmel Corporation
                 ;*
                 ;* \li File:               OWISWBitFunctions.c
                 ;* \li Compiler:           IAR EWAAVR 3.20a
                 ;* \li Support mail:       avr@atmel.com
                 ;*
                 ;* \li Supported devices:  All AVRs.
                 ;*
                 ;* \li Application Note:   AVR318 - Dallas 1-Wire(R) master.
                 ;*
                 ;*
                 ;* \li Description:        Polled software only implementation of the basic
                 ;*                         bit-level signalling in the 1-Wire(R) protocol.
                 ;*
                 ;*                         $Revision: 1.7 $
                 ;*                         $Date: Thursday, August 19, 2004 14:27:18 UTC $
                 ;****************************************************************************/
                 ;
                 ;#include "OWIPolled.h"
                 	#ifndef __SLEEP_DEFINED__
                 	#endif
                 ;
                 ;#ifdef OWI_SOFTWARE_DRIVER
                 ;
                 ;#include "compilers.h"
                 ;
                 ;#include "OWIBitFunctions.h"
                 ;
                 ;
                 ;/*! \brief Initialization of the one wire bus(es). (Software only driver)
                 ; *
                 ; *  This function initializes the 1-Wire bus(es) by releasing it and
                 ; *  waiting until any presence sinals are finished.
                 ; *
                 ; *  \param  pins    A bitmask of the buses to initialize.
                 ; */
                 ;void OWI_Init(unsigned char pins)
                 ; 000A 0027 {
                 
                 	.CSEG
                 _OWI_Init:
                 ; 000A 0028     OWI_RELEASE_BUS(pins);
001968 93aa      	ST   -Y,R26
                 ;	pins -> Y+0
001969 b3e1      	IN   R30,0x11
00196a 2fae      	MOV  R26,R30
00196b 81e8      	LD   R30,Y
00196c 940e 22c1 	CALL SUBOPT_0x84
00196e 81e8      	LD   R30,Y
00196f 940e 22c7 	CALL SUBOPT_0x85
                 ; 000A 0029     // The first rising edge can be interpreted by a slave as the end of a
                 ; 000A 002A     // Reset pulse. Delay for the required reset recovery time (H) to be
                 ; 000A 002B     // sure that the real reset is interpreted correctly.
                 ; 000A 002C     __delay_cycles(OWI_DELAY_H_STD_MODE);
                 ; 000A 002D }
                 _0x20A000A:
001971 9621      	ADIW R28,1
001972 9508      	RET
                 ;
                 ;
                 ;/*! \brief  Write a '1' bit to the bus(es). (Software only driver)
                 ; *
                 ; *  Generates the waveform for transmission of a '1' bit on the 1-Wire
                 ; *  bus.
                 ; *
                 ; *  \param  pins    A bitmask of the buses to write to.
                 ; */
                 ;void OWI_WriteBit1(unsigned char pins)
                 ; 000A 0038 {
                 _OWI_WriteBit1:
                 ; 000A 0039     unsigned char intState;
                 ; 000A 003A 
                 ; 000A 003B     // Disable interrupts.
                 ; 000A 003C     intState = __save_interrupt();
001973 93aa      	ST   -Y,R26
001974 931a      	ST   -Y,R17
                 ;	pins -> Y+1
                 ;	intState -> R17
001975 b71f      	IN   R17,63
                 ; 000A 003D     __disable_interrupt();
001976 94f8      	cli
                 ; 000A 003E 
                 ; 000A 003F     // Drive bus low and delay.
                 ; 000A 0040     OWI_PULL_BUS_LOW(pins);
001977 940e 22cf 	CALL SUBOPT_0x86
                 ; 000A 0041     __delay_cycles(OWI_DELAY_A_STD_MODE);
                +
001979 e189     +LDI R24 , LOW ( 25 )
                +__DELAY_USB_LOOP :
00197a 958a     +DEC R24
00197b f7f1     +BRNE __DELAY_USB_LOOP
                 	__DELAY_USB 25
                 ; 000A 0042 
                 ; 000A 0043     // Release bus and delay.
                 ; 000A 0044     OWI_RELEASE_BUS(pins);
00197c b3e1      	IN   R30,0x11
00197d 2fae      	MOV  R26,R30
00197e 81e9      	LDD  R30,Y+1
00197f 940e 22c1 	CALL SUBOPT_0x84
001981 81e9      	LDD  R30,Y+1
001982 95e0      	COM  R30
001983 23ea      	AND  R30,R26
001984 bbe2      	OUT  0x12,R30
                 ; 000A 0045     __delay_cycles(OWI_DELAY_B_STD_MODE);
                +
001985 ef83     +LDI R24 , LOW ( 243 )
001986 e090     +LDI R25 , HIGH ( 243 )
                +__DELAY_USW_LOOP :
001987 9701     +SBIW R24 , 1
001988 f7f1     +BRNE __DELAY_USW_LOOP
                 	__DELAY_USW 243
                 ; 000A 0046 
                 ; 000A 0047     // Restore interrupts.
                 ; 000A 0048     __restore_interrupt(intState);
001989 c016      	RJMP _0x20A0009
                 ; 000A 0049 }
                 ;
                 ;
                 ;/*! \brief  Write a '0' to the bus(es). (Software only driver)
                 ; *
                 ; *  Generates the waveform for transmission of a '0' bit on the 1-Wire(R)
                 ; *  bus.
                 ; *
                 ; *  \param  pins    A bitmask of the buses to write to.
                 ; */
                 ;void OWI_WriteBit0(unsigned char pins)
                 ; 000A 0054 {
                 _OWI_WriteBit0:
                 ; 000A 0055     unsigned char intState;
                 ; 000A 0056 
                 ; 000A 0057     // Disable interrupts.
                 ; 000A 0058     intState = __save_interrupt();
00198a 93aa      	ST   -Y,R26
00198b 931a      	ST   -Y,R17
                 ;	pins -> Y+1
                 ;	intState -> R17
00198c b71f      	IN   R17,63
                 ; 000A 0059     __disable_interrupt();
00198d 94f8      	cli
                 ; 000A 005A 
                 ; 000A 005B     // Drive bus low and delay.
                 ; 000A 005C     OWI_PULL_BUS_LOW(pins);
00198e 940e 22cf 	CALL SUBOPT_0x86
                 ; 000A 005D     __delay_cycles(OWI_DELAY_C_STD_MODE);
                +
001990 ee85     +LDI R24 , LOW ( 229 )
001991 e090     +LDI R25 , HIGH ( 229 )
                +__DELAY_USW_LOOP :
001992 9701     +SBIW R24 , 1
001993 f7f1     +BRNE __DELAY_USW_LOOP
                 	__DELAY_USW 229
                 ; 000A 005E 
                 ; 000A 005F     // Release bus and delay.
                 ; 000A 0060     OWI_RELEASE_BUS(pins);
001994 b3e1      	IN   R30,0x11
001995 2fae      	MOV  R26,R30
001996 81e9      	LDD  R30,Y+1
001997 940e 22c1 	CALL SUBOPT_0x84
001999 81e9      	LDD  R30,Y+1
00199a 95e0      	COM  R30
00199b 23ea      	AND  R30,R26
00199c bbe2      	OUT  0x12,R30
                 ; 000A 0061     __delay_cycles(OWI_DELAY_D_STD_MODE);
                +
00199d e28c     +LDI R24 , LOW ( 44 )
                +__DELAY_USB_LOOP :
00199e 958a     +DEC R24
00199f f7f1     +BRNE __DELAY_USB_LOOP
                 	__DELAY_USB 44
                 ; 000A 0062 
                 ; 000A 0063     // Restore interrupts.
                 ; 000A 0064     __restore_interrupt(intState);
                 _0x20A0009:
0019a0 bf1f      	OUT  0x3F,R17
                 ; 000A 0065 }
0019a1 8118      	LDD  R17,Y+0
0019a2 9622      	ADIW R28,2
0019a3 9508      	RET
                 ;
                 ;
                 ;/*! \brief  Read a bit from the bus(es). (Software only driver)
                 ; *
                 ; *  Generates the waveform for reception of a bit on the 1-Wire(R) bus(es).
                 ; *
                 ; *  \param  pins    A bitmask of the bus(es) to read from.
                 ; *
                 ; *  \return A bitmask of the buses where a '1' was read.
                 ; */
                 ;unsigned char OWI_ReadBit(unsigned char pins)
                 ; 000A 0071 {
                 _OWI_ReadBit:
                 ; 000A 0072     unsigned char intState;
                 ; 000A 0073     unsigned char bitsRead;
                 ; 000A 0074 
                 ; 000A 0075     // Disable interrupts.
                 ; 000A 0076     intState = __save_interrupt();
0019a4 93aa      	ST   -Y,R26
0019a5 931a      	ST   -Y,R17
0019a6 930a      	ST   -Y,R16
                 ;	pins -> Y+2
                 ;	intState -> R17
                 ;	bitsRead -> R16
0019a7 b71f      	IN   R17,63
                 ; 000A 0077     __disable_interrupt();
0019a8 94f8      	cli
                 ; 000A 0078 
                 ; 000A 0079     // Drive bus low and delay.
                 ; 000A 007A     OWI_PULL_BUS_LOW(pins);
0019a9 940e 22da 	CALL SUBOPT_0x87
0019ab 95e0      	COM  R30
0019ac 23ea      	AND  R30,R26
0019ad bbe2      	OUT  0x12,R30
                 ; 000A 007B     __delay_cycles(OWI_DELAY_A_STD_MODE);
                +
0019ae e189     +LDI R24 , LOW ( 25 )
                +__DELAY_USB_LOOP :
0019af 958a     +DEC R24
0019b0 f7f1     +BRNE __DELAY_USB_LOOP
                 	__DELAY_USB 25
                 ; 000A 007C 
                 ; 000A 007D     // Release bus and delay.
                 ; 000A 007E     OWI_RELEASE_BUS(pins);
0019b1 b3e1      	IN   R30,0x11
0019b2 2fae      	MOV  R26,R30
0019b3 81ea      	LDD  R30,Y+2
0019b4 940e 22c1 	CALL SUBOPT_0x84
0019b6 81ea      	LDD  R30,Y+2
0019b7 95e0      	COM  R30
0019b8 23ea      	AND  R30,R26
0019b9 bbe2      	OUT  0x12,R30
                 ; 000A 007F     __delay_cycles(OWI_DELAY_E_STD_MODE);
                +
0019ba e287     +LDI R24 , LOW ( 39 )
                +__DELAY_USB_LOOP :
0019bb 958a     +DEC R24
0019bc f7f1     +BRNE __DELAY_USB_LOOP
                 	__DELAY_USB 39
                 ; 000A 0080 
                 ; 000A 0081     // Sample bus and delay.
                 ; 000A 0082     bitsRead = OWI_PIN & pins;
0019bd b3e0      	IN   R30,0x10
0019be 81aa      	LDD  R26,Y+2
0019bf 23ea      	AND  R30,R26
0019c0 2f0e      	MOV  R16,R30
                 ; 000A 0083     __delay_cycles(OWI_DELAY_F_STD_MODE);
                +
0019c1 ed82     +LDI R24 , LOW ( 210 )
0019c2 e090     +LDI R25 , HIGH ( 210 )
                +__DELAY_USW_LOOP :
0019c3 9701     +SBIW R24 , 1
0019c4 f7f1     +BRNE __DELAY_USW_LOOP
                 	__DELAY_USW 210
                 ; 000A 0084 
                 ; 000A 0085     // Restore interrupts.
                 ; 000A 0086     __restore_interrupt(intState);
0019c5 c01f      	RJMP _0x20A0007
                 ; 000A 0087 
                 ; 000A 0088     return bitsRead;
                 ; 000A 0089 }
                 ;
                 ;
                 ;/*! \brief  Send a Reset signal and listen for Presence signal. (software
                 ; *  only driver)
                 ; *
                 ; *  Generates the waveform for transmission of a Reset pulse on the
                 ; *  1-Wire(R) bus and listens for presence signals.
                 ; *
                 ; *  \param  pins    A bitmask of the buses to send the Reset signal on.
                 ; *
                 ; *  \return A bitmask of the buses where a presence signal was detected.
                 ; */
                 ;unsigned char OWI_DetectPresence(unsigned char pins)
                 ; 000A 0097 {
                 _OWI_DetectPresence:
                 ; 000A 0098     unsigned char intState;
                 ; 000A 0099     unsigned char presenceDetected;
                 ; 000A 009A 
                 ; 000A 009B     // Disable interrupts.
                 ; 000A 009C     intState = __save_interrupt();
0019c6 93aa      	ST   -Y,R26
0019c7 931a      	ST   -Y,R17
0019c8 930a      	ST   -Y,R16
                 ;	pins -> Y+2
                 ;	intState -> R17
                 ;	presenceDetected -> R16
0019c9 b71f      	IN   R17,63
                 ; 000A 009D     __disable_interrupt();
0019ca 94f8      	cli
                 ; 000A 009E 
                 ; 000A 009F     // Drive bus low and delay.
                 ; 000A 00A0     OWI_PULL_BUS_LOW(pins);
0019cb 940e 22da 	CALL SUBOPT_0x87
0019cd 940e 22c7 	CALL SUBOPT_0x85
                 ; 000A 00A1     __delay_cycles(OWI_DELAY_H_STD_MODE);
                 ; 000A 00A2 
                 ; 000A 00A3     // Release bus and delay.
                 ; 000A 00A4     OWI_RELEASE_BUS(pins);
0019cf b3e1      	IN   R30,0x11
0019d0 2fae      	MOV  R26,R30
0019d1 81ea      	LDD  R30,Y+2
0019d2 940e 22c1 	CALL SUBOPT_0x84
0019d4 81ea      	LDD  R30,Y+2
0019d5 95e0      	COM  R30
0019d6 23ea      	AND  R30,R26
0019d7 bbe2      	OUT  0x12,R30
                 ; 000A 00A5     __delay_cycles(OWI_DELAY_I_STD_MODE);
                +
0019d8 e089     +LDI R24 , LOW ( 265 )
0019d9 e091     +LDI R25 , HIGH ( 265 )
                +__DELAY_USW_LOOP :
0019da 9701     +SBIW R24 , 1
0019db f7f1     +BRNE __DELAY_USW_LOOP
                 	__DELAY_USW 265
                 ; 000A 00A6 
                 ; 000A 00A7     // Sample bus to detect presence signal and delay.
                 ; 000A 00A8     presenceDetected = ((~OWI_PIN) & pins);
0019dc b3e0      	IN   R30,0x10
0019dd 95e0      	COM  R30
0019de 81aa      	LDD  R26,Y+2
0019df 23ea      	AND  R30,R26
0019e0 2f0e      	MOV  R16,R30
                 ; 000A 00A9     __delay_cycles(OWI_DELAY_J_STD_MODE);
                +
0019e1 e381     +LDI R24 , LOW ( 1585 )
0019e2 e096     +LDI R25 , HIGH ( 1585 )
                +__DELAY_USW_LOOP :
0019e3 9701     +SBIW R24 , 1
0019e4 f7f1     +BRNE __DELAY_USW_LOOP
                 	__DELAY_USW 1585
                 ; 000A 00AA 
                 ; 000A 00AB     // Restore interrupts.
                 ; 000A 00AC     __restore_interrupt(intState);
                 _0x20A0007:
0019e5 bf1f      	OUT  0x3F,R17
                 ; 000A 00AD 
                 ; 000A 00AE     return presenceDetected;
0019e6 2fe0      	MOV  R30,R16
                 _0x20A0008:
0019e7 8119      	LDD  R17,Y+1
0019e8 8108      	LDD  R16,Y+0
0019e9 9623      	ADIW R28,3
0019ea 9508      	RET
                 ; 000A 00AF }
                 ;
                 ;
                 ;#endif
                 ;// This file has been prepared for Doxygen automatic documentation generation.
                 ;/*! \file ********************************************************************
                 ;*
                 ;* Atmel Corporation
                 ;*
                 ;* \li File:               OWIUARTFunctions.c
                 ;* \li Compiler:           IAR EWAAVR 3.20a
                 ;* \li Support mail:       avr@atmel.com
                 ;*
                 ;* \li Supported devices:  All AVRs.
                 ;*
                 ;* \li Application Note:   AVR318 - Dallas 1-Wire(R) master.
                 ;*
                 ;*
                 ;* \li Description:        Polled UART implementation of the basic bit-level
                 ;*                         signalling in the 1-Wire(R) protocol.
                 ;*
                 ;*                         $Revision: 1.7 $
                 ;*                         $Date: Thursday, August 19, 2004 14:27:18 UTC $
                 ;****************************************************************************/
                 ;
                 ;/*****************************************************************************
                 ;*
                 ;* Atmel Corporation
                 ;*
                 ;* File              : OWIUARTFunctions.c
                 ;* Compiler          : IAR EWAAVR 3.20a
                 ;* Revision          : $Revision: 1.7 $
                 ;* Date              : $Date: Thursday, August 19, 2004 14:27:18 UTC $
                 ;* Updated by        : $Author: tsundre $
                 ;*
                 ;* Support mail      : avr@atmel.com
                 ;*
                 ;* Supported devices : All AVRs with UART or USART module.
                 ;*
                 ;* AppNote           : AVR318 - 1-Wire(R) interface Master Implementation
                 ;*
                 ;* Description       : Polled UART implementation of the basic bit-level
                 ;*                     signalling in the 1-Wire(R) protocol.
                 ;*
                 ;****************************************************************************/
                 ;
                 ;#include "OWIPolled.h"
                 	#ifndef __SLEEP_DEFINED__
                 	#endif
                 ;
                 ;#ifdef OWI_UART_DRIVER
                 ;
                 ;#include "compilers.h"
                 ;#include "OWIBitFunctions.h"
                 ;
                 ;
                 ;
                 ;/*! \brief Initialization of the one wire bus. (Polled UART driver)
                 ; *
                 ; *  This function initializes the 1-Wire bus by configuring the UART.
                 ; */
                 ;void OWI_Init()
                 ;{
                 ;    // Choose single or double UART speed.
                 ;    OWI_UART_STATCTRL_REG_A = (OWI_UART_2X << OWI_U2X);
                 ;
                 ;    // Enable UART transmitter and receiver.
                 ;    OWI_UART_STATCTRL_REG_B = (1 << OWI_TXEN) | (1 << OWI_RXEN);
                 ;
                 ;    // Set up asynchronous mode, 8 data bits, no parity, 1 stop bit.
                 ;    // (Initial value, can be removed)
                 ;#ifdef URSEL
                 ;    OWI_UART_STATCTRL_REG_C = (1 << OWI_URSEL) | (1 << OWI_UCSZ1) | (1 << OWI_UCSZ0);
                 ;#else
                 ;    OWI_UART_STATCTRL_REG_C = (1 << OWI_UCSZ1) | (1 << OWI_UCSZ0);
                 ;#endif
                 ;
                 ;    OWI_UART_BAUD_RATE_REG_L = OWI_UBRR_115200;
                 ;}
                 ;
                 ;
                 ;/*! \brief  Write and read one bit to/from the 1-Wire bus. (Polled UART driver)
                 ; *
                 ; *  Writes one bit to the bus and returns the value read from the bus.
                 ; *
                 ; *  \param  outValue    The value to transmit on the bus.
                 ; *
                 ; *  \return The value received by the UART from the bus.
                 ; */
                 ;unsigned char OWI_TouchBit(unsigned char outValue)
                 ;{
                 ;    // Place the output value in the UART transmit buffer, and wait
                 ;    // until it is received by the UART receiver.
                 ;    OWI_UART_DATA_REGISTER = outValue;
                 ;    while(!(OWI_UART_STATCTRL_REG_A & (1 << OWI_RXC)))
                 ;    {
                 ;
                 ;    }
                 ;    // Set the UART Baud Rate back to 115200kbps when finished.
                 ;    OWI_UART_BAUD_RATE_REG_L = OWI_UBRR_115200;
                 ;    return OWI_UART_DATA_REGISTER;
                 ;}
                 ;
                 ;/*! \brief Write a '1' bit to the bus(es). (Polled UART DRIVER)
                 ; *
                 ; *  Generates the waveform for transmission of a '1' bit on the 1-Wire
                 ; *  bus.
                 ; */
                 ;void OWI_WriteBit1()
                 ;{
                 ;    OWI_TouchBit(OWI_UART_WRITE1);
                 ;}
                 ;
                 ;
                 ;/*! \brief  Write a '0' to the bus(es). (Polled UART DRIVER)
                 ; *
                 ; *  Generates the waveform for transmission of a '0' bit on the 1-Wire(R)
                 ; *  bus.
                 ; */
                 ;void OWI_WriteBit0()
                 ;{
                 ;    OWI_TouchBit(OWI_UART_WRITE0);
                 ;}
                 ;
                 ;
                 ;/*! \brief  Read a bit from the bus(es). (Polled UART DRIVER)
                 ; *
                 ; *  Generates the waveform for reception of a bit on the 1-Wire(R) bus(es).
                 ; *
                 ; *  \return The value read from the bus (0 or 1).
                 ; */
                 ;unsigned char OWI_ReadBit()
                 ;{
                 ;     // Return 1 if the value received matches the value sent.
                 ;     // Return 0 else. (A slave held the bus low).
                 ;     return (OWI_TouchBit(OWI_UART_READ_BIT) == OWI_UART_READ_BIT);
                 ;}
                 ;
                 ;
                 ;/*! \brief  Send a Reset signal and listen for Presence signal. (Polled
                 ; *  UART DRIVER)
                 ; *
                 ; *  Generates the waveform for transmission of a Reset pulse on the
                 ; *  1-Wire(R) bus and listens for presence signals.
                 ; *
                 ; *  \return A bitmask of the buses where a presence signal was detected.
                 ; */
                 ;unsigned char OWI_DetectPresence()
                 ;{
                 ;    // Reset UART receiver to clear RXC register.
                 ;    OWI_UART_STATCTRL_REG_B &= ~(1 << OWI_RXEN);
                 ;    OWI_UART_STATCTRL_REG_B |= (1 << OWI_RXEN);
                 ;
                 ;    // Set UART Baud Rate to 9600 for Reset/Presence signalling.
                 ;    OWI_UART_BAUD_RATE_REG_L = OWI_UBRR_9600;
                 ;
                 ;    // Return 0 if the value received matches the value sent.
                 ;    // return 1 else. (Presence detected)
                 ;    return (OWI_TouchBit(OWI_UART_RESET) != OWI_UART_RESET);
                 ;}
                 ;
                 ;
                 ;#endif
                 
                 	.CSEG
                 _memcpy:
0019eb 93ba      	ST   -Y,R27
0019ec 93aa      	ST   -Y,R26
0019ed 8199          ldd  r25,y+1
0019ee 8188          ld   r24,y
0019ef 9600          adiw r24,0
0019f0 f041          breq memcpy1
0019f1 81bd          ldd  r27,y+5
0019f2 81ac          ldd  r26,y+4
0019f3 81fb          ldd  r31,y+3
0019f4 81ea          ldd  r30,y+2
                 memcpy0:
0019f5 9161          ld   r22,z+
0019f6 936d          st   x+,r22
0019f7 9701          sbiw r24,1
0019f8 f7e1          brne memcpy0
                 memcpy1:
0019f9 81fd          ldd  r31,y+5
0019fa 81ec          ldd  r30,y+4
0019fb 9626      	ADIW R28,6
0019fc 9508      	RET
                 _strcpyf:
0019fd 93ba      	ST   -Y,R27
0019fe 93aa      	ST   -Y,R26
0019ff 91e9          ld   r30,y+
001a00 91f9          ld   r31,y+
001a01 91a9          ld   r26,y+
001a02 91b9          ld   r27,y+
001a03 01cd          movw r24,r26
                 strcpyf0:
001a04 9005      	lpm  r0,z+
001a05 920d          st   x+,r0
001a06 2000          tst  r0
001a07 f7e1          brne strcpyf0
001a08 01fc          movw r30,r24
001a09 9508          ret
                 _strlen:
001a0a 93ba      	ST   -Y,R27
001a0b 93aa      	ST   -Y,R26
001a0c 91a9          ld   r26,y+
001a0d 91b9          ld   r27,y+
001a0e 27ee          clr  r30
001a0f 27ff          clr  r31
                 strlen0:
001a10 916d          ld   r22,x+
001a11 2366          tst  r22
001a12 f011          breq strlen1
001a13 9631          adiw r30,1
001a14 cffb          rjmp strlen0
                 strlen1:
001a15 9508          ret
                 _strlenf:
001a16 93ba      	ST   -Y,R27
001a17 93aa      	ST   -Y,R26
001a18 27aa          clr  r26
001a19 27bb          clr  r27
001a1a 91e9          ld   r30,y+
001a1b 91f9          ld   r31,y+
                 strlenf0:
001a1c 9005      	lpm  r0,z+
001a1d 2000          tst  r0
001a1e f011          breq strlenf1
001a1f 9611          adiw r26,1
001a20 cffb          rjmp strlenf0
                 strlenf1:
001a21 01fd          movw r30,r26
001a22 9508          ret
                 	#ifndef __SLEEP_DEFINED__
                 	#endif
                 
                 	.CSEG
                 _put_buff_G101:
001a23 93ba      	ST   -Y,R27
001a24 93aa      	ST   -Y,R26
001a25 931a      	ST   -Y,R17
001a26 930a      	ST   -Y,R16
001a27 81aa      	LDD  R26,Y+2
001a28 81bb      	LDD  R27,Y+2+1
001a29 9612      	ADIW R26,2
001a2a 940e 2665 	CALL __GETW1P
001a2c 9730      	SBIW R30,0
001a2d f129      	BREQ _0x2020010
001a2e 81aa      	LDD  R26,Y+2
001a2f 81bb      	LDD  R27,Y+2+1
001a30 9614      	ADIW R26,4
001a31 940e 2665 	CALL __GETW1P
001a33 018f      	MOVW R16,R30
001a34 9730      	SBIW R30,0
001a35 f061      	BREQ _0x2020012
                +
001a36 3002     +CPI R16 , LOW ( 2 )
001a37 e0e0     +LDI R30 , HIGH ( 2 )
001a38 071e     +CPC R17 , R30
                 	__CPWRN 16,17,2
001a39 f0c0      	BRLO _0x2020013
001a3a 01f8      	MOVW R30,R16
001a3b 9731      	SBIW R30,1
001a3c 018f      	MOVW R16,R30
                +
001a3d 81aa     +LDD R26 , Y + 2
001a3e 81bb     +LDD R27 , Y + 2 + 1
001a3f 9614     +ADIW R26 , 4
001a40 93ed     +ST X + , R30
001a41 93fc     +ST X , R31
                 	__PUTW1SNS 2,4
                 _0x2020012:
001a42 81aa      	LDD  R26,Y+2
001a43 81bb      	LDD  R27,Y+2+1
001a44 9612      	ADIW R26,2
001a45 940e 1e99 	CALL SUBOPT_0x1
001a47 9731      	SBIW R30,1
001a48 81ac      	LDD  R26,Y+4
001a49 83a0      	STD  Z+0,R26
001a4a 81aa      	LDD  R26,Y+2
001a4b 81bb      	LDD  R27,Y+2+1
001a4c 940e 2665 	CALL __GETW1P
001a4e 23ff      	TST  R31
001a4f f012      	BRMI _0x2020014
001a50 940e 1e99 	CALL SUBOPT_0x1
                 _0x2020014:
                 _0x2020013:
001a52 c006      	RJMP _0x2020015
                 _0x2020010:
001a53 81aa      	LDD  R26,Y+2
001a54 81bb      	LDD  R27,Y+2+1
001a55 efef      	LDI  R30,LOW(65535)
001a56 efff      	LDI  R31,HIGH(65535)
001a57 93ed      	ST   X+,R30
001a58 93fc      	ST   X,R31
                 _0x2020015:
001a59 8119      	LDD  R17,Y+1
001a5a 8108      	LDD  R16,Y+0
001a5b 9625      	ADIW R28,5
001a5c 9508      	RET
                 __ftoe_G101:
001a5d 940e 22e2 	CALL SUBOPT_0x88
001a5f e8e0      	LDI  R30,LOW(128)
001a60 83ea      	STD  Y+2,R30
001a61 e3ef      	LDI  R30,LOW(63)
001a62 83eb      	STD  Y+3,R30
001a63 940e 26db 	CALL __SAVELOCR4
001a65 85ee      	LDD  R30,Y+14
001a66 85ff      	LDD  R31,Y+14+1
001a67 3fef      	CPI  R30,LOW(0xFFFF)
001a68 efaf      	LDI  R26,HIGH(0xFFFF)
001a69 07fa      	CPC  R31,R26
001a6a f449      	BRNE _0x2020019
001a6b 85e8      	LDD  R30,Y+8
001a6c 85f9      	LDD  R31,Y+8+1
001a6d 93fa      	ST   -Y,R31
001a6e 93ea      	ST   -Y,R30
                +
001a6f e6a8     +LDI R26 , LOW ( 2 * _0x2020000 + ( 0 ) )
001a70 e0ba     +LDI R27 , HIGH ( 2 * _0x2020000 + ( 0 ) )
                 	__POINTW2FN _0x2020000,0
001a71 940e 19fd 	CALL _strcpyf
001a73 c0b3      	RJMP _0x20A0005
                 _0x2020019:
001a74 3fef      	CPI  R30,LOW(0x7FFF)
001a75 e7af      	LDI  R26,HIGH(0x7FFF)
001a76 07fa      	CPC  R31,R26
001a77 f449      	BRNE _0x2020018
001a78 85e8      	LDD  R30,Y+8
001a79 85f9      	LDD  R31,Y+8+1
001a7a 93fa      	ST   -Y,R31
001a7b 93ea      	ST   -Y,R30
                +
001a7c e6a9     +LDI R26 , LOW ( 2 * _0x2020000 + ( 1 ) )
001a7d e0ba     +LDI R27 , HIGH ( 2 * _0x2020000 + ( 1 ) )
                 	__POINTW2FN _0x2020000,1
001a7e 940e 19fd 	CALL _strcpyf
001a80 c0a6      	RJMP _0x20A0005
                 _0x2020018:
001a81 85ab      	LDD  R26,Y+11
001a82 30a7      	CPI  R26,LOW(0x7)
001a83 f010      	BRLO _0x202001B
001a84 e0e6      	LDI  R30,LOW(6)
001a85 87eb      	STD  Y+11,R30
                 _0x202001B:
001a86 851b      	LDD  R17,Y+11
                 _0x202001C:
001a87 2fe1      	MOV  R30,R17
001a88 5011      	SUBI R17,1
001a89 30e0      	CPI  R30,0
001a8a f019      	BREQ _0x202001E
001a8b 940e 22e9 	CALL SUBOPT_0x89
001a8d cff9      	RJMP _0x202001C
                 _0x202001E:
                +
001a8e 85ec     +LDD R30 , Y + 12
001a8f 85fd     +LDD R31 , Y + 12 + 1
001a90 856e     +LDD R22 , Y + 12 + 2
001a91 857f     +LDD R23 , Y + 12 + 3
                 	__GETD1S 12
001a92 940e 26d1 	CALL __CPD10
001a94 f421      	BRNE _0x202001F
001a95 e030      	LDI  R19,LOW(0)
001a96 940e 22e9 	CALL SUBOPT_0x89
001a98 c02e      	RJMP _0x2020020
                 _0x202001F:
001a99 853b      	LDD  R19,Y+11
001a9a 940e 22f8 	CALL SUBOPT_0x8A
001a9c f009      	BREQ PC+2
001a9d f410      	BRCC PC+3
001a9e 940c 1aab 	JMP  _0x2020021
001aa0 940e 22e9 	CALL SUBOPT_0x89
                 _0x2020022:
001aa2 940e 22f8 	CALL SUBOPT_0x8A
001aa4 f028      	BRLO _0x2020024
001aa5 940e 2303 	CALL SUBOPT_0x8B
001aa7 940e 2308 	CALL SUBOPT_0x8C
001aa9 cff8      	RJMP _0x2020022
                 _0x2020024:
001aaa c00d      	RJMP _0x2020025
                 _0x2020021:
                 _0x2020026:
001aab 940e 22f8 	CALL SUBOPT_0x8A
001aad f440      	BRSH _0x2020028
001aae 940e 2303 	CALL SUBOPT_0x8B
001ab0 940e 2314 	CALL SUBOPT_0x8D
001ab2 940e 231b 	CALL SUBOPT_0x8E
001ab4 5031      	SUBI R19,LOW(1)
001ab5 cff5      	RJMP _0x2020026
                 _0x2020028:
001ab6 940e 22e9 	CALL SUBOPT_0x89
                 _0x2020025:
                +
001ab8 85ec     +LDD R30 , Y + 12
001ab9 85fd     +LDD R31 , Y + 12 + 1
001aba 856e     +LDD R22 , Y + 12 + 2
001abb 857f     +LDD R23 , Y + 12 + 3
                 	__GETD1S 12
001abc 940e 2320 	CALL SUBOPT_0x8F
001abe 940e 231b 	CALL SUBOPT_0x8E
001ac0 940e 22f8 	CALL SUBOPT_0x8A
001ac2 f020      	BRLO _0x2020029
001ac3 940e 2303 	CALL SUBOPT_0x8B
001ac5 940e 2308 	CALL SUBOPT_0x8C
                 _0x2020029:
                 _0x2020020:
001ac7 e010      	LDI  R17,LOW(0)
                 _0x202002A:
001ac8 85eb      	LDD  R30,Y+11
001ac9 17e1      	CP   R30,R17
001aca f180      	BRLO _0x202002C
                +
001acb 81ac     +LDD R26 , Y + 4
001acc 81bd     +LDD R27 , Y + 4 + 1
001acd 818e     +LDD R24 , Y + 4 + 2
001ace 819f     +LDD R25 , Y + 4 + 3
                 	__GETD2S 4
001acf 940e 2327 	CALL SUBOPT_0x90
001ad1 940e 2320 	CALL SUBOPT_0x8F
001ad3 01df      	MOVW R26,R30
001ad4 01cb      	MOVW R24,R22
001ad5 940e 1e74 	CALL _floor
                +
001ad7 83ec     +STD Y + 4 , R30
001ad8 83fd     +STD Y + 4 + 1 , R31
001ad9 836e     +STD Y + 4 + 2 , R22
001ada 837f     +STD Y + 4 + 3 , R23
                 	__PUTD1S 4
001adb 940e 2303 	CALL SUBOPT_0x8B
001add 940e 209b 	CALL SUBOPT_0x3E
001adf 2f0e      	MOV  R16,R30
001ae0 940e 232e 	CALL SUBOPT_0x91
001ae2 940e 2335 	CALL SUBOPT_0x92
001ae4 940e 20d7 	CALL SUBOPT_0x47
                +
001ae6 81ac     +LDD R26 , Y + 4
001ae7 81bd     +LDD R27 , Y + 4 + 1
001ae8 818e     +LDD R24 , Y + 4 + 2
001ae9 819f     +LDD R25 , Y + 4 + 3
                 	__GETD2S 4
001aea 940e 24c5 	CALL __MULF12
001aec 940e 2303 	CALL SUBOPT_0x8B
001aee 940e 2064 	CALL SUBOPT_0x36
001af0 940e 231b 	CALL SUBOPT_0x8E
001af2 2fe1      	MOV  R30,R17
001af3 5f1f      	SUBI R17,-1
001af4 30e0      	CPI  R30,0
001af5 f691      	BRNE _0x202002A
001af6 940e 232e 	CALL SUBOPT_0x91
001af8 e2ee      	LDI  R30,LOW(46)
001af9 93ec      	ST   X,R30
001afa cfcd      	RJMP _0x202002A
                 _0x202002C:
001afb 940e 22a3 	CALL SUBOPT_0x7F
001afd 9731      	SBIW R30,1
001afe 85aa      	LDD  R26,Y+10
001aff 83a0      	STD  Z+0,R26
001b00 3030      	CPI  R19,0
001b01 f42c      	BRGE _0x202002E
001b02 9531      	NEG  R19
001b03 85a8      	LDD  R26,Y+8
001b04 85b9      	LDD  R27,Y+8+1
001b05 e2ed      	LDI  R30,LOW(45)
001b06 c003      	RJMP _0x202010E
                 _0x202002E:
001b07 85a8      	LDD  R26,Y+8
001b08 85b9      	LDD  R27,Y+8+1
001b09 e2eb      	LDI  R30,LOW(43)
                 _0x202010E:
001b0a 93ec      	ST   X,R30
001b0b 940e 22a3 	CALL SUBOPT_0x7F
001b0d 940e 22a3 	CALL SUBOPT_0x7F
001b0f 9731      	SBIW R30,1
001b10 01bf      	MOVW R22,R30
001b11 2fa3      	MOV  R26,R19
001b12 e0ea      	LDI  R30,LOW(10)
001b13 940e 25eb 	CALL __DIVB21
001b15 5de0      	SUBI R30,-LOW(48)
001b16 01db      	MOVW R26,R22
001b17 93ec      	ST   X,R30
001b18 940e 22a3 	CALL SUBOPT_0x7F
001b1a 9731      	SBIW R30,1
001b1b 01bf      	MOVW R22,R30
001b1c 2fa3      	MOV  R26,R19
001b1d e0ea      	LDI  R30,LOW(10)
001b1e 940e 2628 	CALL __MODB21
001b20 5de0      	SUBI R30,-LOW(48)
001b21 01db      	MOVW R26,R22
001b22 93ec      	ST   X,R30
001b23 85a8      	LDD  R26,Y+8
001b24 85b9      	LDD  R27,Y+8+1
001b25 e0e0      	LDI  R30,LOW(0)
001b26 93ec      	ST   X,R30
                 _0x20A0005:
001b27 940e 26e2 	CALL __LOADLOCR4
                 _0x20A0006:
001b29 9660      	ADIW R28,16
001b2a 9508      	RET
                 __print_G101:
001b2b 93ba      	ST   -Y,R27
001b2c 93aa      	ST   -Y,R26
001b2d 97ef      	SBIW R28,63
001b2e 9761      	SBIW R28,17
001b2f 940e 26d9 	CALL __SAVELOCR6
001b31 e010      	LDI  R17,0
                +
001b32 01fe     +MOVW R30 , R28
001b33 5ae8     +SUBI R30 , LOW ( - 88 )
001b34 4fff     +SBCI R31 , HIGH ( - 88 )
001b35 9001     +LD R0 , Z +
001b36 81f0     +LD R31 , Z
001b37 2de0     +MOV R30 , R0
                 	__GETW1SX 88
001b38 87e8      	STD  Y+8,R30
001b39 87f9      	STD  Y+8+1,R31
                +
001b3a 01fe     +MOVW R30 , R28
001b3b 5aea     +SUBI R30 , LOW ( - 86 )
001b3c 4fff     +SBCI R31 , HIGH ( - 86 )
001b3d 9001     +LD R0 , Z +
001b3e 81f0     +LD R31 , Z
001b3f 2de0     +MOV R30 , R0
                 	__GETW1SX 86
001b40 83ee      	STD  Y+6,R30
001b41 83ff      	STD  Y+6+1,R31
001b42 81ae      	LDD  R26,Y+6
001b43 81bf      	LDD  R27,Y+6+1
001b44 e0e0      	LDI  R30,LOW(0)
001b45 e0f0      	LDI  R31,HIGH(0)
001b46 93ed      	ST   X+,R30
001b47 93fc      	ST   X,R31
                 _0x2020030:
001b48 01de      	MOVW R26,R28
001b49 5aa4      	SUBI R26,LOW(-(92))
001b4a 4fbf      	SBCI R27,HIGH(-(92))
001b4b 940e 1e99 	CALL SUBOPT_0x1
001b4d 9731      	SBIW R30,1
001b4e 91e4      	LPM  R30,Z
001b4f 2f2e      	MOV  R18,R30
001b50 30e0      	CPI  R30,0
001b51 f411      	BRNE PC+3
001b52 940c 1d3e 	JMP _0x2020032
001b54 2fe1      	MOV  R30,R17
001b55 30e0      	CPI  R30,0
001b56 f439      	BRNE _0x2020036
001b57 3225      	CPI  R18,37
001b58 f411      	BRNE _0x2020037
001b59 e011      	LDI  R17,LOW(1)
001b5a c002      	RJMP _0x2020038
                 _0x2020037:
001b5b 940e 233a 	CALL SUBOPT_0x93
                 _0x2020038:
001b5d c1df      	RJMP _0x2020035
                 _0x2020036:
001b5e 30e1      	CPI  R30,LOW(0x1)
001b5f f4c1      	BRNE _0x2020039
001b60 3225      	CPI  R18,37
001b61 f419      	BRNE _0x202003A
001b62 940e 233a 	CALL SUBOPT_0x93
001b64 c1d7      	RJMP _0x202010F
                 _0x202003A:
001b65 e012      	LDI  R17,LOW(2)
001b66 e0e0      	LDI  R30,LOW(0)
001b67 8bed      	STD  Y+21,R30
001b68 e000      	LDI  R16,LOW(0)
001b69 322d      	CPI  R18,45
001b6a f411      	BRNE _0x202003B
001b6b e001      	LDI  R16,LOW(1)
001b6c c1d0      	RJMP _0x2020035
                 _0x202003B:
001b6d 322b      	CPI  R18,43
001b6e f419      	BRNE _0x202003C
001b6f e2eb      	LDI  R30,LOW(43)
001b70 8bed      	STD  Y+21,R30
001b71 c1cb      	RJMP _0x2020035
                 _0x202003C:
001b72 3220      	CPI  R18,32
001b73 f419      	BRNE _0x202003D
001b74 e2e0      	LDI  R30,LOW(32)
001b75 8bed      	STD  Y+21,R30
001b76 c1c6      	RJMP _0x2020035
                 _0x202003D:
001b77 c002      	RJMP _0x202003E
                 _0x2020039:
001b78 30e2      	CPI  R30,LOW(0x2)
001b79 f439      	BRNE _0x202003F
                 _0x202003E:
001b7a e050      	LDI  R21,LOW(0)
001b7b e013      	LDI  R17,LOW(3)
001b7c 3320      	CPI  R18,48
001b7d f411      	BRNE _0x2020040
001b7e 6800      	ORI  R16,LOW(128)
001b7f c1bd      	RJMP _0x2020035
                 _0x2020040:
001b80 c002      	RJMP _0x2020041
                 _0x202003F:
001b81 30e3      	CPI  R30,LOW(0x3)
001b82 f491      	BRNE _0x2020042
                 _0x2020041:
001b83 3320      	CPI  R18,48
001b84 f010      	BRLO _0x2020044
001b85 332a      	CPI  R18,58
001b86 f008      	BRLO _0x2020045
                 _0x2020044:
001b87 c007      	RJMP _0x2020043
                 _0x2020045:
001b88 e0aa      	LDI  R26,LOW(10)
001b89 9f5a      	MUL  R21,R26
001b8a 2d50      	MOV  R21,R0
001b8b 2fe2      	MOV  R30,R18
001b8c 53e0      	SUBI R30,LOW(48)
001b8d 0f5e      	ADD  R21,R30
001b8e c1ae      	RJMP _0x2020035
                 _0x2020043:
001b8f e040      	LDI  R20,LOW(0)
001b90 322e      	CPI  R18,46
001b91 f411      	BRNE _0x2020046
001b92 e014      	LDI  R17,LOW(4)
001b93 c1a9      	RJMP _0x2020035
                 _0x2020046:
001b94 c00f      	RJMP _0x2020047
                 _0x2020042:
001b95 30e4      	CPI  R30,LOW(0x4)
001b96 f499      	BRNE _0x2020049
001b97 3320      	CPI  R18,48
001b98 f010      	BRLO _0x202004B
001b99 332a      	CPI  R18,58
001b9a f008      	BRLO _0x202004C
                 _0x202004B:
001b9b c008      	RJMP _0x202004A
                 _0x202004C:
001b9c 6200      	ORI  R16,LOW(32)
001b9d e0aa      	LDI  R26,LOW(10)
001b9e 9f4a      	MUL  R20,R26
001b9f 2d40      	MOV  R20,R0
001ba0 2fe2      	MOV  R30,R18
001ba1 53e0      	SUBI R30,LOW(48)
001ba2 0f4e      	ADD  R20,R30
001ba3 c199      	RJMP _0x2020035
                 _0x202004A:
                 _0x2020047:
001ba4 362c      	CPI  R18,108
001ba5 f419      	BRNE _0x202004D
001ba6 6002      	ORI  R16,LOW(2)
001ba7 e015      	LDI  R17,LOW(5)
001ba8 c194      	RJMP _0x2020035
                 _0x202004D:
001ba9 c004      	RJMP _0x202004E
                 _0x2020049:
001baa 30e5      	CPI  R30,LOW(0x5)
001bab f011      	BREQ PC+3
001bac 940c 1d3d 	JMP _0x2020035
                 _0x202004E:
001bae 2fe2      	MOV  R30,R18
001baf 36e3      	CPI  R30,LOW(0x63)
001bb0 f459      	BRNE _0x2020053
001bb1 940e 2341 	CALL SUBOPT_0x94
001bb3 940e 2348 	CALL SUBOPT_0x95
001bb5 940e 2341 	CALL SUBOPT_0x94
001bb7 81a4      	LDD  R26,Z+4
001bb8 93aa      	ST   -Y,R26
001bb9 940e 234f 	CALL SUBOPT_0x96
001bbb c180      	RJMP _0x2020054
                 _0x2020053:
001bbc 34e5      	CPI  R30,LOW(0x45)
001bbd f011      	BREQ _0x2020057
001bbe 36e5      	CPI  R30,LOW(0x65)
001bbf f409      	BRNE _0x2020058
                 _0x2020057:
001bc0 c004      	RJMP _0x2020059
                 _0x2020058:
001bc1 36e6      	CPI  R30,LOW(0x66)
001bc2 f011      	BREQ PC+3
001bc3 940c 1c0b 	JMP _0x202005A
                 _0x2020059:
001bc5 01fe      	MOVW R30,R28
001bc6 9676      	ADIW R30,22
001bc7 87ee      	STD  Y+14,R30
001bc8 87ff      	STD  Y+14+1,R31
001bc9 940e 2355 	CALL SUBOPT_0x97
001bcb 940e 2669 	CALL __GETD1P
001bcd 940e 235c 	CALL SUBOPT_0x98
001bcf 940e 2361 	CALL SUBOPT_0x99
001bd1 85ad      	LDD  R26,Y+13
001bd2 23aa      	TST  R26
001bd3 f022      	BRMI _0x202005B
001bd4 89ad      	LDD  R26,Y+21
001bd5 32ab      	CPI  R26,LOW(0x2B)
001bd6 f049      	BREQ _0x202005D
001bd7 c017      	RJMP _0x202005E
                 _0x202005B:
001bd8 940e 2363 	CALL SUBOPT_0x9A
001bda 940e 23cf 	CALL __ANEGF1
001bdc 940e 235c 	CALL SUBOPT_0x98
001bde e2ed      	LDI  R30,LOW(45)
001bdf 8bed      	STD  Y+21,R30
                 _0x202005D:
001be0 ff07      	SBRS R16,7
001be1 c005      	RJMP _0x202005F
001be2 89ed      	LDD  R30,Y+21
001be3 93ea      	ST   -Y,R30
001be4 940e 234f 	CALL SUBOPT_0x96
001be6 c008      	RJMP _0x2020060
                 _0x202005F:
001be7 85ee      	LDD  R30,Y+14
001be8 85ff      	LDD  R31,Y+14+1
001be9 9631      	ADIW R30,1
001bea 87ee      	STD  Y+14,R30
001beb 87ff      	STD  Y+14+1,R31
001bec 9731      	SBIW R30,1
001bed 89ad      	LDD  R26,Y+21
001bee 83a0      	STD  Z+0,R26
                 _0x2020060:
                 _0x202005E:
001bef ff05      	SBRS R16,5
001bf0 e046      	LDI  R20,LOW(6)
001bf1 3626      	CPI  R18,102
001bf2 f451      	BRNE _0x2020062
001bf3 940e 2363 	CALL SUBOPT_0x9A
001bf5 940e 2681 	CALL __PUTPARD1
001bf7 934a      	ST   -Y,R20
001bf8 89ab      	LDD  R26,Y+19
001bf9 89bc      	LDD  R27,Y+19+1
001bfa 940e 1d83 	CALL _ftoa
001bfc c009      	RJMP _0x2020063
                 _0x2020062:
001bfd 940e 2363 	CALL SUBOPT_0x9A
001bff 940e 2681 	CALL __PUTPARD1
001c01 934a      	ST   -Y,R20
001c02 932a      	ST   -Y,R18
001c03 89ac      	LDD  R26,Y+20
001c04 89bd      	LDD  R27,Y+20+1
001c05 de57      	RCALL __ftoe_G101
                 _0x2020063:
001c06 01fe      	MOVW R30,R28
001c07 9676      	ADIW R30,22
001c08 940e 2368 	CALL SUBOPT_0x9B
001c0a c01e      	RJMP _0x2020064
                 _0x202005A:
001c0b 37e3      	CPI  R30,LOW(0x73)
001c0c f439      	BRNE _0x2020066
001c0d 940e 2361 	CALL SUBOPT_0x99
001c0f 940e 2370 	CALL SUBOPT_0x9C
001c11 940e 2368 	CALL SUBOPT_0x9B
001c13 c00e      	RJMP _0x2020067
                 _0x2020066:
001c14 37e0      	CPI  R30,LOW(0x70)
001c15 f4c1      	BRNE _0x2020069
001c16 940e 2361 	CALL SUBOPT_0x99
001c18 940e 2370 	CALL SUBOPT_0x9C
001c1a 87ee      	STD  Y+14,R30
001c1b 87ff      	STD  Y+14+1,R31
001c1c 85ae      	LDD  R26,Y+14
001c1d 85bf      	LDD  R27,Y+14+1
001c1e 940e 1a16 	CALL _strlenf
001c20 2f1e      	MOV  R17,R30
001c21 6008      	ORI  R16,LOW(8)
                 _0x2020067:
001c22 770f      	ANDI R16,LOW(127)
001c23 3040      	CPI  R20,0
001c24 f011      	BREQ _0x202006B
001c25 1741      	CP   R20,R17
001c26 f008      	BRLO _0x202006C
                 _0x202006B:
001c27 c001      	RJMP _0x202006A
                 _0x202006C:
001c28 2f14      	MOV  R17,R20
                 _0x202006A:
                 _0x2020064:
001c29 e040      	LDI  R20,LOW(0)
001c2a e0e0      	LDI  R30,LOW(0)
001c2b 8bec      	STD  Y+20,R30
001c2c e030      	LDI  R19,LOW(0)
001c2d c06e      	RJMP _0x202006D
                 _0x2020069:
001c2e 36e4      	CPI  R30,LOW(0x64)
001c2f f011      	BREQ _0x2020070
001c30 36e9      	CPI  R30,LOW(0x69)
001c31 f411      	BRNE _0x2020071
                 _0x2020070:
001c32 6004      	ORI  R16,LOW(4)
001c33 c002      	RJMP _0x2020072
                 _0x2020071:
001c34 37e5      	CPI  R30,LOW(0x75)
001c35 f4a1      	BRNE _0x2020073
                 _0x2020072:
001c36 e0ea      	LDI  R30,LOW(10)
001c37 8bec      	STD  Y+20,R30
001c38 ff01      	SBRS R16,1
001c39 c008      	RJMP _0x2020074
                +
001c3a e0e0     +LDI R30 , LOW ( 0x3B9ACA00 )
001c3b ecfa     +LDI R31 , HIGH ( 0x3B9ACA00 )
001c3c e96a     +LDI R22 , BYTE3 ( 0x3B9ACA00 )
001c3d e37b     +LDI R23 , BYTE4 ( 0x3B9ACA00 )
                 	__GETD1N 0x3B9ACA00
001c3e 940e 2375 	CALL SUBOPT_0x9D
001c40 e01a      	LDI  R17,LOW(10)
001c41 c023      	RJMP _0x2020075
                 _0x2020074:
                +
001c42 e1e0     +LDI R30 , LOW ( 0x2710 )
001c43 e2f7     +LDI R31 , HIGH ( 0x2710 )
001c44 e060     +LDI R22 , BYTE3 ( 0x2710 )
001c45 e070     +LDI R23 , BYTE4 ( 0x2710 )
                 	__GETD1N 0x2710
001c46 940e 2375 	CALL SUBOPT_0x9D
001c48 e015      	LDI  R17,LOW(5)
001c49 c01b      	RJMP _0x2020075
                 _0x2020073:
001c4a 35e8      	CPI  R30,LOW(0x58)
001c4b f411      	BRNE _0x2020077
001c4c 6008      	ORI  R16,LOW(8)
001c4d c004      	RJMP _0x2020078
                 _0x2020077:
001c4e 37e8      	CPI  R30,LOW(0x78)
001c4f f011      	BREQ PC+3
001c50 940c 1d3c 	JMP _0x20200B6
                 _0x2020078:
001c52 e1e0      	LDI  R30,LOW(16)
001c53 8bec      	STD  Y+20,R30
001c54 ff01      	SBRS R16,1
001c55 c008      	RJMP _0x202007A
                +
001c56 e0e0     +LDI R30 , LOW ( 0x10000000 )
001c57 e0f0     +LDI R31 , HIGH ( 0x10000000 )
001c58 e060     +LDI R22 , BYTE3 ( 0x10000000 )
001c59 e170     +LDI R23 , BYTE4 ( 0x10000000 )
                 	__GETD1N 0x10000000
001c5a 940e 2375 	CALL SUBOPT_0x9D
001c5c e018      	LDI  R17,LOW(8)
001c5d c007      	RJMP _0x2020075
                 _0x202007A:
                +
001c5e e0e0     +LDI R30 , LOW ( 0x1000 )
001c5f e1f0     +LDI R31 , HIGH ( 0x1000 )
001c60 e060     +LDI R22 , BYTE3 ( 0x1000 )
001c61 e070     +LDI R23 , BYTE4 ( 0x1000 )
                 	__GETD1N 0x1000
001c62 940e 2375 	CALL SUBOPT_0x9D
001c64 e014      	LDI  R17,LOW(4)
                 _0x2020075:
001c65 3040      	CPI  R20,0
001c66 f011      	BREQ _0x202007B
001c67 770f      	ANDI R16,LOW(127)
001c68 c001      	RJMP _0x202007C
                 _0x202007B:
001c69 e041      	LDI  R20,LOW(1)
                 _0x202007C:
001c6a ff01      	SBRS R16,1
001c6b c008      	RJMP _0x202007D
001c6c 940e 2361 	CALL SUBOPT_0x99
001c6e 940e 2355 	CALL SUBOPT_0x97
001c70 9614      	ADIW R26,4
001c71 940e 2669 	CALL __GETD1P
001c73 c00f      	RJMP _0x2020110
                 _0x202007D:
001c74 ff02      	SBRS R16,2
001c75 c007      	RJMP _0x202007F
001c76 940e 2361 	CALL SUBOPT_0x99
001c78 940e 2370 	CALL SUBOPT_0x9C
001c7a 940e 25a0 	CALL __CWD1
001c7c c006      	RJMP _0x2020110
                 _0x202007F:
001c7d 940e 2361 	CALL SUBOPT_0x99
001c7f 940e 2370 	CALL SUBOPT_0x9C
001c81 2766      	CLR  R22
001c82 2777      	CLR  R23
                 _0x2020110:
                +
001c83 87ea     +STD Y + 10 , R30
001c84 87fb     +STD Y + 10 + 1 , R31
001c85 876c     +STD Y + 10 + 2 , R22
001c86 877d     +STD Y + 10 + 3 , R23
                 	__PUTD1S 10
001c87 ff02      	SBRS R16,2
001c88 c012      	RJMP _0x2020081
001c89 85ad      	LDD  R26,Y+13
001c8a 23aa      	TST  R26
001c8b f442      	BRPL _0x2020082
001c8c 940e 2363 	CALL SUBOPT_0x9A
001c8e 940e 2580 	CALL __ANEGD1
001c90 940e 235c 	CALL SUBOPT_0x98
001c92 e2ed      	LDI  R30,LOW(45)
001c93 8bed      	STD  Y+21,R30
                 _0x2020082:
001c94 89ed      	LDD  R30,Y+21
001c95 30e0      	CPI  R30,0
001c96 f019      	BREQ _0x2020083
001c97 5f1f      	SUBI R17,-LOW(1)
001c98 5f4f      	SUBI R20,-LOW(1)
001c99 c001      	RJMP _0x2020084
                 _0x2020083:
001c9a 7f0b      	ANDI R16,LOW(251)
                 _0x2020084:
                 _0x2020081:
001c9b 2f34      	MOV  R19,R20
                 _0x202006D:
001c9c fd00      	SBRC R16,0
001c9d c014      	RJMP _0x2020085
                 _0x2020086:
001c9e 1715      	CP   R17,R21
001c9f f410      	BRSH _0x2020089
001ca0 1735      	CP   R19,R21
001ca1 f008      	BRLO _0x202008A
                 _0x2020089:
001ca2 c00f      	RJMP _0x2020088
                 _0x202008A:
001ca3 ff07      	SBRS R16,7
001ca4 c008      	RJMP _0x202008B
001ca5 ff02      	SBRS R16,2
001ca6 c004      	RJMP _0x202008C
001ca7 7f0b      	ANDI R16,LOW(251)
001ca8 892d      	LDD  R18,Y+21
001ca9 5011      	SUBI R17,LOW(1)
001caa c001      	RJMP _0x202008D
                 _0x202008C:
001cab e320      	LDI  R18,LOW(48)
                 _0x202008D:
001cac c001      	RJMP _0x202008E
                 _0x202008B:
001cad e220      	LDI  R18,LOW(32)
                 _0x202008E:
001cae 940e 233a 	CALL SUBOPT_0x93
001cb0 5051      	SUBI R21,LOW(1)
001cb1 cfec      	RJMP _0x2020086
                 _0x2020088:
                 _0x2020085:
                 _0x202008F:
001cb2 1714      	CP   R17,R20
001cb3 f490      	BRSH _0x2020091
001cb4 6100      	ORI  R16,LOW(16)
001cb5 ff02      	SBRS R16,2
001cb6 c006      	RJMP _0x2020092
001cb7 940e 237a 	CALL SUBOPT_0x9E
001cb9 f009      	BREQ _0x2020093
001cba 5051      	SUBI R21,LOW(1)
                 _0x2020093:
001cbb 5011      	SUBI R17,LOW(1)
001cbc 5041      	SUBI R20,LOW(1)
                 _0x2020092:
001cbd e3e0      	LDI  R30,LOW(48)
001cbe 93ea      	ST   -Y,R30
001cbf 940e 234f 	CALL SUBOPT_0x96
001cc1 3050      	CPI  R21,0
001cc2 f009      	BREQ _0x2020094
001cc3 5051      	SUBI R21,LOW(1)
                 _0x2020094:
001cc4 5041      	SUBI R20,LOW(1)
001cc5 cfec      	RJMP _0x202008F
                 _0x2020091:
001cc6 2f31      	MOV  R19,R17
001cc7 89ec      	LDD  R30,Y+20
001cc8 30e0      	CPI  R30,0
001cc9 f4b9      	BRNE _0x2020095
                 _0x2020096:
001cca 3030      	CPI  R19,0
001ccb f0a1      	BREQ _0x2020098
001ccc ff03      	SBRS R16,3
001ccd c006      	RJMP _0x2020099
001cce 85ee      	LDD  R30,Y+14
001ccf 85ff      	LDD  R31,Y+14+1
001cd0 9125      	LPM  R18,Z+
001cd1 87ee      	STD  Y+14,R30
001cd2 87ff      	STD  Y+14+1,R31
001cd3 c005      	RJMP _0x202009A
                 _0x2020099:
001cd4 85ae      	LDD  R26,Y+14
001cd5 85bf      	LDD  R27,Y+14+1
001cd6 912d      	LD   R18,X+
001cd7 87ae      	STD  Y+14,R26
001cd8 87bf      	STD  Y+14+1,R27
                 _0x202009A:
001cd9 940e 233a 	CALL SUBOPT_0x93
001cdb 3050      	CPI  R21,0
001cdc f009      	BREQ _0x202009B
001cdd 5051      	SUBI R21,LOW(1)
                 _0x202009B:
001cde 5031      	SUBI R19,LOW(1)
001cdf cfea      	RJMP _0x2020096
                 _0x2020098:
001ce0 c051      	RJMP _0x202009C
                 _0x2020095:
                 _0x202009E:
001ce1 940e 238c 	CALL SUBOPT_0x9F
001ce3 940e 2603 	CALL __DIVD21U
001ce5 2f2e      	MOV  R18,R30
001ce6 302a      	CPI  R18,10
001ce7 f030      	BRLO _0x20200A0
001ce8 ff03      	SBRS R16,3
001ce9 c002      	RJMP _0x20200A1
001cea 5c29      	SUBI R18,-LOW(55)
001ceb c001      	RJMP _0x20200A2
                 _0x20200A1:
001cec 5a29      	SUBI R18,-LOW(87)
                 _0x20200A2:
001ced c001      	RJMP _0x20200A3
                 _0x20200A0:
001cee 5d20      	SUBI R18,-LOW(48)
                 _0x20200A3:
001cef fd04      	SBRC R16,4
001cf0 c021      	RJMP _0x20200A5
001cf1 3321      	CPI  R18,49
001cf2 f460      	BRSH _0x20200A7
                +
001cf3 89a8     +LDD R26 , Y + 16
001cf4 89b9     +LDD R27 , Y + 16 + 1
001cf5 898a     +LDD R24 , Y + 16 + 2
001cf6 899b     +LDD R25 , Y + 16 + 3
                 	__GETD2S 16
                +
001cf7 30a1     +CPI R26 , LOW ( 0x1 )
001cf8 e0e0     +LDI R30 , HIGH ( 0x1 )
001cf9 07be     +CPC R27 , R30
001cfa e0e0     +LDI R30 , BYTE3 ( 0x1 )
001cfb 078e     +CPC R24 , R30
001cfc e0e0     +LDI R30 , BYTE4 ( 0x1 )
001cfd 079e     +CPC R25 , R30
                 	__CPD2N 0x1
001cfe f409      	BRNE _0x20200A6
                 _0x20200A7:
001cff c00b      	RJMP _0x20200A9
                 _0x20200A6:
001d00 1743      	CP   R20,R19
001d01 f440      	BRSH _0x2020111
001d02 1753      	CP   R21,R19
001d03 f010      	BRLO _0x20200AC
001d04 ff00      	SBRS R16,0
001d05 c001      	RJMP _0x20200AD
                 _0x20200AC:
001d06 c010      	RJMP _0x20200AB
                 _0x20200AD:
001d07 e220      	LDI  R18,LOW(32)
001d08 ff07      	SBRS R16,7
001d09 c008      	RJMP _0x20200AE
                 _0x2020111:
001d0a e320      	LDI  R18,LOW(48)
                 _0x20200A9:
001d0b 6100      	ORI  R16,LOW(16)
001d0c ff02      	SBRS R16,2
001d0d c004      	RJMP _0x20200AF
001d0e 940e 237a 	CALL SUBOPT_0x9E
001d10 f009      	BREQ _0x20200B0
001d11 5051      	SUBI R21,LOW(1)
                 _0x20200B0:
                 _0x20200AF:
                 _0x20200AE:
                 _0x20200A5:
001d12 940e 233a 	CALL SUBOPT_0x93
001d14 3050      	CPI  R21,0
001d15 f009      	BREQ _0x20200B1
001d16 5051      	SUBI R21,LOW(1)
                 _0x20200B1:
                 _0x20200AB:
001d17 5031      	SUBI R19,LOW(1)
001d18 940e 238c 	CALL SUBOPT_0x9F
001d1a 940e 2642 	CALL __MODD21U
001d1c 940e 235c 	CALL SUBOPT_0x98
001d1e 89ec      	LDD  R30,Y+20
                +
001d1f 89a8     +LDD R26 , Y + 16
001d20 89b9     +LDD R27 , Y + 16 + 1
001d21 898a     +LDD R24 , Y + 16 + 2
001d22 899b     +LDD R25 , Y + 16 + 3
                 	__GETD2S 16
001d23 27ff      	CLR  R31
001d24 2766      	CLR  R22
001d25 2777      	CLR  R23
001d26 940e 2603 	CALL __DIVD21U
001d28 940e 2375 	CALL SUBOPT_0x9D
                +
001d2a 89e8     +LDD R30 , Y + 16
001d2b 89f9     +LDD R31 , Y + 16 + 1
001d2c 896a     +LDD R22 , Y + 16 + 2
001d2d 897b     +LDD R23 , Y + 16 + 3
                 	__GETD1S 16
001d2e 940e 26d1 	CALL __CPD10
001d30 f009      	BREQ _0x202009F
001d31 cfaf      	RJMP _0x202009E
                 _0x202009F:
                 _0x202009C:
001d32 ff00      	SBRS R16,0
001d33 c008      	RJMP _0x20200B2
                 _0x20200B3:
001d34 3050      	CPI  R21,0
001d35 f031      	BREQ _0x20200B5
001d36 5051      	SUBI R21,LOW(1)
001d37 e2e0      	LDI  R30,LOW(32)
001d38 93ea      	ST   -Y,R30
001d39 940e 234f 	CALL SUBOPT_0x96
001d3b cff8      	RJMP _0x20200B3
                 _0x20200B5:
                 _0x20200B2:
                 _0x20200B6:
                 _0x2020054:
                 _0x202010F:
001d3c e010      	LDI  R17,LOW(0)
                 _0x2020035:
001d3d ce0a      	RJMP _0x2020030
                 _0x2020032:
001d3e 81ae      	LDD  R26,Y+6
001d3f 81bf      	LDD  R27,Y+6+1
001d40 940e 2665 	CALL __GETW1P
001d42 940e 26e0 	CALL __LOADLOCR6
001d44 96ef      	ADIW R28,63
001d45 966f      	ADIW R28,31
001d46 9508      	RET
                 _sprintf:
001d47 92ff      	PUSH R15
001d48 2ef8      	MOV  R15,R24
001d49 9726      	SBIW R28,6
001d4a 940e 26db 	CALL __SAVELOCR4
001d4c 940e 2395 	CALL SUBOPT_0xA0
001d4e 9730      	SBIW R30,0
001d4f f419      	BRNE _0x20200B7
001d50 efef      	LDI  R30,LOW(65535)
001d51 efff      	LDI  R31,HIGH(65535)
001d52 c023      	RJMP _0x20A0004
                 _0x20200B7:
001d53 01de      	MOVW R26,R28
001d54 9616      	ADIW R26,6
001d55 940e 2578 	CALL __ADDW2R15
001d57 018d      	MOVW R16,R26
001d58 940e 2395 	CALL SUBOPT_0xA0
001d5a 83ee      	STD  Y+6,R30
001d5b 83ff      	STD  Y+6+1,R31
001d5c e0e0      	LDI  R30,LOW(0)
001d5d 87e8      	STD  Y+8,R30
001d5e 87e9      	STD  Y+8+1,R30
001d5f 01de      	MOVW R26,R28
001d60 961a      	ADIW R26,10
001d61 940e 2578 	CALL __ADDW2R15
001d63 940e 2665 	CALL __GETW1P
001d65 93fa      	ST   -Y,R31
001d66 93ea      	ST   -Y,R30
001d67 931a      	ST   -Y,R17
001d68 930a      	ST   -Y,R16
001d69 e2e3      	LDI  R30,LOW(_put_buff_G101)
001d6a e1fa      	LDI  R31,HIGH(_put_buff_G101)
001d6b 93fa      	ST   -Y,R31
001d6c 93ea      	ST   -Y,R30
001d6d 01de      	MOVW R26,R28
001d6e 961a      	ADIW R26,10
001d6f ddbb      	RCALL __print_G101
001d70 019f      	MOVW R18,R30
001d71 81ae      	LDD  R26,Y+6
001d72 81bf      	LDD  R27,Y+6+1
001d73 e0e0      	LDI  R30,LOW(0)
001d74 93ec      	ST   X,R30
001d75 01f9      	MOVW R30,R18
                 _0x20A0004:
001d76 940e 26e2 	CALL __LOADLOCR4
001d78 962a      	ADIW R28,10
001d79 90ff      	POP  R15
001d7a 9508      	RET
                 
                 	.CSEG
                 _fabs:
001d7b 940e 2686 	CALL __PUTPARD2
001d7d 91e9          ld   r30,y+
001d7e 91f9          ld   r31,y+
001d7f 9169          ld   r22,y+
001d80 9179          ld   r23,y+
001d81 777f          cbr  r23,0x80
001d82 9508          ret
                 _ftoa:
001d83 940e 22e2 	CALL SUBOPT_0x88
001d85 e0e0      	LDI  R30,LOW(0)
001d86 83ea      	STD  Y+2,R30
001d87 e3ef      	LDI  R30,LOW(63)
001d88 83eb      	STD  Y+3,R30
001d89 931a      	ST   -Y,R17
001d8a 930a      	ST   -Y,R16
001d8b 85eb      	LDD  R30,Y+11
001d8c 85fc      	LDD  R31,Y+11+1
001d8d 3fef      	CPI  R30,LOW(0xFFFF)
001d8e efaf      	LDI  R26,HIGH(0xFFFF)
001d8f 07fa      	CPC  R31,R26
001d90 f439      	BRNE _0x204000D
001d91 940e 239c 	CALL SUBOPT_0xA1
                +
001d93 e7a0     +LDI R26 , LOW ( 2 * _0x2040000 + ( 0 ) )
001d94 e0ba     +LDI R27 , HIGH ( 2 * _0x2040000 + ( 0 ) )
                 	__POINTW2FN _0x2040000,0
001d95 940e 19fd 	CALL _strcpyf
001d97 c0a7      	RJMP _0x20A0003
                 _0x204000D:
001d98 3fef      	CPI  R30,LOW(0x7FFF)
001d99 e7af      	LDI  R26,HIGH(0x7FFF)
001d9a 07fa      	CPC  R31,R26
001d9b f439      	BRNE _0x204000C
001d9c 940e 239c 	CALL SUBOPT_0xA1
                +
001d9e e7a1     +LDI R26 , LOW ( 2 * _0x2040000 + ( 1 ) )
001d9f e0ba     +LDI R27 , HIGH ( 2 * _0x2040000 + ( 1 ) )
                 	__POINTW2FN _0x2040000,1
001da0 940e 19fd 	CALL _strcpyf
001da2 c09c      	RJMP _0x20A0003
                 _0x204000C:
001da3 85ac      	LDD  R26,Y+12
001da4 23aa      	TST  R26
001da5 f462      	BRPL _0x204000F
                +
001da6 85e9     +LDD R30 , Y + 9
001da7 85fa     +LDD R31 , Y + 9 + 1
001da8 856b     +LDD R22 , Y + 9 + 2
001da9 857c     +LDD R23 , Y + 9 + 3
                 	__GETD1S 9
001daa 940e 23cf 	CALL __ANEGF1
001dac 940e 23a1 	CALL SUBOPT_0xA2
001dae 940e 23a6 	CALL SUBOPT_0xA3
001db0 e2ed      	LDI  R30,LOW(45)
001db1 93ec      	ST   X,R30
                 _0x204000F:
001db2 85a8      	LDD  R26,Y+8
001db3 30a7      	CPI  R26,LOW(0x7)
001db4 f010      	BRLO _0x2040010
001db5 e0e6      	LDI  R30,LOW(6)
001db6 87e8      	STD  Y+8,R30
                 _0x2040010:
001db7 8518      	LDD  R17,Y+8
                 _0x2040011:
001db8 2fe1      	MOV  R30,R17
001db9 5011      	SUBI R17,1
001dba 30e0      	CPI  R30,0
001dbb f039      	BREQ _0x2040013
001dbc 940e 23ad 	CALL SUBOPT_0xA4
001dbe 940e 2327 	CALL SUBOPT_0x90
001dc0 940e 23b2 	CALL SUBOPT_0xA5
001dc2 cff5      	RJMP _0x2040011
                 _0x2040013:
001dc3 940e 23b7 	CALL SUBOPT_0xA6
001dc5 940e 2475 	CALL __ADDF12
001dc7 940e 23a1 	CALL SUBOPT_0xA2
001dc9 e010      	LDI  R17,LOW(0)
                +
001dca e0e0     +LDI R30 , LOW ( 0x3F800000 )
001dcb e0f0     +LDI R31 , HIGH ( 0x3F800000 )
001dcc e860     +LDI R22 , BYTE3 ( 0x3F800000 )
001dcd e37f     +LDI R23 , BYTE4 ( 0x3F800000 )
                 	__GETD1N 0x3F800000
001dce 940e 23b2 	CALL SUBOPT_0xA5
                 _0x2040014:
001dd0 940e 23b7 	CALL SUBOPT_0xA6
001dd2 940e 2558 	CALL __CMPF12
001dd4 f088      	BRLO _0x2040016
001dd5 940e 23ad 	CALL SUBOPT_0xA4
001dd7 940e 2314 	CALL SUBOPT_0x8D
001dd9 940e 23b2 	CALL SUBOPT_0xA5
001ddb 5f1f      	SUBI R17,-LOW(1)
001ddc 3217      	CPI  R17,39
001ddd f038      	BRLO _0x2040017
001dde 940e 239c 	CALL SUBOPT_0xA1
                +
001de0 e7a5     +LDI R26 , LOW ( 2 * _0x2040000 + ( 5 ) )
001de1 e0ba     +LDI R27 , HIGH ( 2 * _0x2040000 + ( 5 ) )
                 	__POINTW2FN _0x2040000,5
001de2 940e 19fd 	CALL _strcpyf
001de4 c05a      	RJMP _0x20A0003
                 _0x2040017:
001de5 cfea      	RJMP _0x2040014
                 _0x2040016:
001de6 3010      	CPI  R17,0
001de7 f429      	BRNE _0x2040018
001de8 940e 23a6 	CALL SUBOPT_0xA3
001dea e3e0      	LDI  R30,LOW(48)
001deb 93ec      	ST   X,R30
001dec c027      	RJMP _0x2040019
                 _0x2040018:
                 _0x204001A:
001ded 2fe1      	MOV  R30,R17
001dee 5011      	SUBI R17,1
001def 30e0      	CPI  R30,0
001df0 f119      	BREQ _0x204001C
001df1 940e 23ad 	CALL SUBOPT_0xA4
001df3 940e 2327 	CALL SUBOPT_0x90
001df5 940e 2320 	CALL SUBOPT_0x8F
001df7 01df      	MOVW R26,R30
001df8 01cb      	MOVW R24,R22
001df9 940e 1e74 	CALL _floor
001dfb 940e 23b2 	CALL SUBOPT_0xA5
001dfd 940e 23b7 	CALL SUBOPT_0xA6
001dff 940e 209b 	CALL SUBOPT_0x3E
001e01 2f0e      	MOV  R16,R30
001e02 940e 23a6 	CALL SUBOPT_0xA3
001e04 940e 2335 	CALL SUBOPT_0x92
001e06 e0f0      	LDI  R31,0
001e07 940e 23ad 	CALL SUBOPT_0xA4
001e09 940e 207b 	CALL SUBOPT_0x39
001e0b 940e 24c5 	CALL __MULF12
001e0d 940e 23c0 	CALL SUBOPT_0xA7
001e0f 940e 2064 	CALL SUBOPT_0x36
001e11 940e 23a1 	CALL SUBOPT_0xA2
001e13 cfd9      	RJMP _0x204001A
                 _0x204001C:
                 _0x2040019:
001e14 85e8      	LDD  R30,Y+8
001e15 30e0      	CPI  R30,0
001e16 f121      	BREQ _0x20A0002
001e17 940e 23a6 	CALL SUBOPT_0xA3
001e19 e2ee      	LDI  R30,LOW(46)
001e1a 93ec      	ST   X,R30
                 _0x204001E:
001e1b 85e8      	LDD  R30,Y+8
001e1c 50e1      	SUBI R30,LOW(1)
001e1d 87e8      	STD  Y+8,R30
001e1e 5fef      	SUBI R30,-LOW(1)
001e1f f0d9      	BREQ _0x2040020
001e20 940e 23c0 	CALL SUBOPT_0xA7
001e22 940e 2314 	CALL SUBOPT_0x8D
001e24 940e 23a1 	CALL SUBOPT_0xA2
                +
001e26 85e9     +LDD R30 , Y + 9
001e27 85fa     +LDD R31 , Y + 9 + 1
001e28 856b     +LDD R22 , Y + 9 + 2
001e29 857c     +LDD R23 , Y + 9 + 3
                 	__GETD1S 9
001e2a 940e 2402 	CALL __CFD1U
001e2c 2f0e      	MOV  R16,R30
001e2d 940e 23a6 	CALL SUBOPT_0xA3
001e2f 940e 2335 	CALL SUBOPT_0x92
001e31 e0f0      	LDI  R31,0
001e32 940e 23c0 	CALL SUBOPT_0xA7
001e34 940e 207b 	CALL SUBOPT_0x39
001e36 940e 2064 	CALL SUBOPT_0x36
001e38 940e 23a1 	CALL SUBOPT_0xA2
001e3a cfe0      	RJMP _0x204001E
                 _0x2040020:
                 _0x20A0002:
001e3b 81ae      	LDD  R26,Y+6
001e3c 81bf      	LDD  R27,Y+6+1
001e3d e0e0      	LDI  R30,LOW(0)
001e3e 93ec      	ST   X,R30
                 _0x20A0003:
001e3f 8119      	LDD  R17,Y+1
001e40 8108      	LDD  R16,Y+0
001e41 962d      	ADIW R28,13
001e42 9508      	RET
                 
                 	.DSEG
                 
                 	.CSEG
                 
                 	.CSEG
                 
                 	.CSEG
                 _ftrunc:
001e43 940e 2686 	CALL __PUTPARD2
001e45 817b         ldd  r23,y+3
001e46 816a         ldd  r22,y+2
001e47 81f9         ldd  r31,y+1
001e48 81e8         ld   r30,y
001e49 fb77         bst  r23,7
001e4a 0f77         lsl  r23
001e4b fd67         sbrc r22,7
001e4c 6071         sbr  r23,1
001e4d 2f97         mov  r25,r23
001e4e 579e         subi r25,0x7e
001e4f f081         breq __ftrunc0
001e50 f078         brcs __ftrunc0
001e51 3198         cpi  r25,24
001e52 f490         brsh __ftrunc1
001e53 27aa         clr  r26
001e54 27bb         clr  r27
001e55 2788         clr  r24
                 __ftrunc2:
001e56 9408         sec
001e57 9587         ror  r24
001e58 95b7         ror  r27
001e59 95a7         ror  r26
001e5a 959a         dec  r25
001e5b f7d1         brne __ftrunc2
001e5c 23ea         and  r30,r26
001e5d 23fb         and  r31,r27
001e5e 2368         and  r22,r24
001e5f c005         rjmp __ftrunc1
                 __ftrunc0:
001e60 94e8         clt
001e61 2777         clr  r23
001e62 27ee         clr  r30
001e63 27ff         clr  r31
001e64 2766         clr  r22
                 __ftrunc1:
001e65 776f         cbr  r22,0x80
001e66 9576         lsr  r23
001e67 f408         brcc __ftrunc3
001e68 6860         sbr  r22,0x80
                 __ftrunc3:
001e69 f977         bld  r23,7
001e6a 91a9         ld   r26,y+
001e6b 91b9         ld   r27,y+
001e6c 9189         ld   r24,y+
001e6d 9199         ld   r25,y+
001e6e 17ea         cp   r30,r26
001e6f 07fb         cpc  r31,r27
001e70 0768         cpc  r22,r24
001e71 0779         cpc  r23,r25
001e72 fb97         bst  r25,7
001e73 9508         ret
                 _floor:
001e74 940e 2686 	CALL __PUTPARD2
001e76 940e 2677 	CALL __GETD2S0
001e78 940e 1e43 	CALL _ftrunc
001e7a 940e 267c 	CALL __PUTD1S0
001e7c f419          brne __floor1
                 __floor0:
001e7d 940e 2672 	CALL __GETD1S0
001e7f c009      	RJMP _0x20A0001
                 __floor1:
001e80 f7e6          brtc __floor0
001e81 940e 2672 	CALL __GETD1S0
                +
001e83 e0a0     +LDI R26 , LOW ( 0x3F800000 )
001e84 e0b0     +LDI R27 , HIGH ( 0x3F800000 )
001e85 e880     +LDI R24 , BYTE3 ( 0x3F800000 )
001e86 e39f     +LDI R25 , BYTE4 ( 0x3F800000 )
                 	__GETD2N 0x3F800000
001e87 940e 246e 	CALL __SUBF12
                 _0x20A0001:
001e89 9624      	ADIW R28,4
001e8a 9508      	RET
                 
                 	.DSEG
                 _buf:
000a0b           	.BYTE 0x14
                 _mode:
000a1f           	.BYTE 0x1
                 _abortProcess:
000a20           	.BYTE 0x1
                 _timerOn:
000a21           	.BYTE 0x1
                 _startStop:
000a22           	.BYTE 0x1
                 _timer:
000a23           	.BYTE 0x2
                 _timer_off:
000a25           	.BYTE 0x2
                 _ds1820_devices:
000a27           	.BYTE 0x1
                 _sec:
000a28           	.BYTE 0x1
                 _minutes:
000a29           	.BYTE 0x1
                 _hours:
000a2a           	.BYTE 0x1
                 _heater_power:
000a2b           	.BYTE 0x1
                 _pwmOn:
000a2c           	.BYTE 0x1
                 _valvePulse:
000a2d           	.BYTE 0x1
                 _impulseCounter:
000a2e           	.BYTE 0x2
                 _pwmPeriod:
000a30           	.BYTE 0x2
                 _onePulseDose:
000a32           	.BYTE 0x4
                 _factCalibrateQ:
000a36           	.BYTE 0x2
                 _dis_t_kuba:
000a38           	.BYTE 0x4
                 _dis_p_ten:
000a3c           	.BYTE 0x2
                 _rect_p_ten_min:
000a3e           	.BYTE 0x2
                 _rect_p_kol_max:
000a40           	.BYTE 0x2
                 _rect_t_otbora:
000a42           	.BYTE 0x4
                 _rect_dt_otbora:
000a46           	.BYTE 0x4
                 _rect_T1_valve:
000a4a           	.BYTE 0x2
                 _rect_T2_valve:
000a4c           	.BYTE 0x2
                 _rect_t_kuba_valve:
000a4e           	.BYTE 0x4
                 _rect_t_kuba_off:
000a52           	.BYTE 0x4
                 _rect_head_val:
000a56           	.BYTE 0x2
                 _rect_body_speed:
000a58           	.BYTE 0x2
                 _rect_pulse_delay:
000a5a           	.BYTE 0x1
                 _param_id:
000a5b           	.BYTE 0x1
                 
                 	.ESEG
                 _params_eeprom:
000000 48
000001 26
000002 00
000003 00        	.DB  0x48,0x26,0x0,0x0
000004 f8
000005 2a
000006 01
000007 00        	.DB  0xF8,0x2A,0x1,0x0
000008 02
000009 50
00000a 00
00000b 00        	.DB  0x2,0x50,0x0,0x0
00000c 00
00000d 64
00000e 00
00000f 03        	.DB  0x0,0x64,0x0,0x3
000010 00
000011 01
000012 46
000013 00        	.DB  0x0,0x1,0x46,0x0
000014 00
000015 00
000016 64
000017 00        	.DB  0x0,0x0,0x64,0x0
000018 03
000019 00
00001a 01
00001b 14        	.DB  0x3,0x0,0x1,0x14
00001c 00
00001d 00
00001e 00
00001f 64        	.DB  0x0,0x0,0x0,0x64
000020 00
000021 02
000022 00
000023 01        	.DB  0x0,0x2,0x0,0x1
000024 c8
000025 1e
000026 00
000027 00        	.DB  0xC8,0x1E,0x0,0x0
000028 f8
000029 2a
00002a 01
00002b 00        	.DB  0xF8,0x2A,0x1,0x0
00002c 02
00002d 2d
00002e 00
00002f 00        	.DB  0x2,0x2D,0x0,0x0
000030 00
000031 dc
000032 05
000033 01        	.DB  0x0,0xDC,0x5,0x1
000034 00
000035 02
000036 01
000037 00        	.DB  0x0,0x2,0x1,0x0
000038 00
000039 00
00003a 05
00003b 00        	.DB  0x0,0x0,0x5,0x0
00003c 00
00003d 00
00003e 01
00003f 02        	.DB  0x0,0x0,0x1,0x2
000040 00
000041 00
000042 00
000043 05        	.DB  0x0,0x0,0x0,0x5
000044 00
000045 00
000046 00
000047 01        	.DB  0x0,0x0,0x0,0x1
000048 f0
000049 23
00004a 00
00004b 00        	.DB  0xF0,0x23,0x0,0x0
00004c f8
00004d 2a
00004e 01
00004f 00        	.DB  0xF8,0x2A,0x1,0x0
000050 02
000051 48
000052 26
000053 00        	.DB  0x2,0x48,0x26,0x0
000054 00
000055 f8
000056 2a
000057 01        	.DB  0x0,0xF8,0x2A,0x1
000058 00
000059 02
00005a 64
00005b 00        	.DB  0x0,0x2,0x64,0x0
00005c 0a
00005d 00
00005e dc
00005f 05        	.DB  0xA,0x0,0xDC,0x5
000060 04
000061 00
000062 01
000063 34        	.DB  0x4,0x0,0x1,0x34
000064 08
000065 0a
000066 00
000067 b8        	.DB  0x8,0xA,0x0,0xB8
000068 0b
000069 05
00006a 00
00006b 01        	.DB  0xB,0x5,0x0,0x1
00006c 04
00006d 00
00006e 01
00006f 00        	.DB  0x4,0x0,0x1,0x0
000070 0a
000071 00
000072 06
000073 00        	.DB  0xA,0x0,0x6,0x0
000074 01
000075 32
000076 00
000077 01        	.DB  0x1,0x32,0x0,0x1
000078 00
000079 f4
00007a 01
00007b 04        	.DB  0x0,0xF4,0x1,0x4
00007c 00
00007d 01
00007e 81
00007f 00        	.DB  0x0,0x1,0x81,0x0
000080 01
000081 00
000082 84
000083 03        	.DB  0x1,0x0,0x84,0x3
000084 04
000085 00        	.DB  0x4,0x0
000086 03        	.DB  0x3
                 
                 	.DSEG
                 _params:
000a5c           	.BYTE 0x87
                 _menu:
000ae3           	.BYTE 0x14
                 _cod:
000af7           	.BYTE 0x1
                 _current_menu:
000af8           	.BYTE 0x1
                 _current_pos:
000af9           	.BYTE 0x1
                 _last_menu:
000afa           	.BYTE 0x1
                 _last_pos:
000afb           	.BYTE 0x1
                 _ds1820_rom_codes:
000afc           	.BYTE 0x18
                 _t_rom_codes:
000b14           	.BYTE 0x18
                 _halph_wave_counter_S0000000000:
000b2c           	.BYTE 0x1
                 _halph_wave_counter3_S0000000000:
000b2d           	.BYTE 0x1
                 _halph_wave_counter2_S0000000000:
000b2e           	.BYTE 0x2
                 _rx_buffer0:
000b30           	.BYTE 0x8
                 _counter_S0000004000:
000b38           	.BYTE 0x1
                 _nlcd_memory_G001:
000b39           	.BYTE 0x357
                 _nlcd_xcurr_G001:
000e90           	.BYTE 0x1
                 _nlcd_ycurr_G001:
000e91           	.BYTE 0x1
                 _countDeb_G002:
000e92           	.BYTE 0x4
                 _countDebTmp_G002:
000e96           	.BYTE 0x1
                 _stateBut_G002:
000e97           	.BYTE 0x4
                 _buf_G002:
000e9b           	.BYTE 0x8
                 _head_G002:
000ea3           	.BYTE 0x1
                 _tail_G002:
000ea4           	.BYTE 0x1
                 _count_G002:
000ea5           	.BYTE 0x1
                 _cycleBuf_G003:
000ea6           	.BYTE 0x20
                 _tailBuf_G003:
000ec6           	.BYTE 0x1
                 _headBuf_G003:
000ec7           	.BYTE 0x1
                 _countBuf_G003:
000ec8           	.BYTE 0x1
                 _FuncAr:
000ec9           	.BYTE 0x16
                 _t_kuba:
000edf           	.BYTE 0x4
                 _t_kolona_down:
000ee3           	.BYTE 0x4
                 _t_kolona_up:
000ee7           	.BYTE 0x4
                 _t_kuba_old:
000eeb           	.BYTE 0x4
                 _t_kolona_down_old:
000eef           	.BYTE 0x4
                 _t_kolona_up_old:
000ef3           	.BYTE 0x4
                 _headDisp:
000ef7           	.BYTE 0x4
                 _t_kuba_avg:
000efb           	.BYTE 0x4
                 _t_kuba_sum:
000eff           	.BYTE 0x4
                 _timerSign:
000f03           	.BYTE 0x2
                 _impulseCounterCalibrate:
000f05           	.BYTE 0x2
                 _Votb:
000f07           	.BYTE 0x4
                 _ssCounter:
000f0b           	.BYTE 0x2
                 _distSettingMode:
000f0d           	.BYTE 0x1
                 _distValveMode:
000f0e           	.BYTE 0x1
                 _menu__G005:
000f0f           	.BYTE 0x15
                 _menu_settings_G005:
000f24           	.BYTE 0x1C
                 _menu_set_dist_G005:
000f40           	.BYTE 0xE
                 _menu_set_rect_G005:
000f4e           	.BYTE 0x5B
                 _menu_set_init_G005:
000fa9           	.BYTE 0x15
                 
                 	.ESEG
                 _t_sens_eeprom_code:
000087           	.BYTE 0x18
                 
                 	.DSEG
                 __seed_G102:
000fbe           	.BYTE 0x4
                 
                 	.CSEG
                 ;OPTIMIZER ADDED SUBROUTINE, CALLED 3 TIMES, CODE SIZE REDUCTION:19 WORDS
                 SUBOPT_0x0:
001e8b 920a      	ST   -Y,R0
001e8c 921a      	ST   -Y,R1
001e8d 92fa      	ST   -Y,R15
001e8e 936a      	ST   -Y,R22
001e8f 937a      	ST   -Y,R23
001e90 938a      	ST   -Y,R24
001e91 939a      	ST   -Y,R25
001e92 93aa      	ST   -Y,R26
001e93 93ba      	ST   -Y,R27
001e94 93ea      	ST   -Y,R30
001e95 93fa      	ST   -Y,R31
001e96 b7ef      	IN   R30,SREG
001e97 93ea      	ST   -Y,R30
001e98 9508      	RET
                 
                 ;OPTIMIZER ADDED SUBROUTINE, CALLED 10 TIMES, CODE SIZE REDUCTION:24 WORDS
                 SUBOPT_0x1:
001e99 91ed      	LD   R30,X+
001e9a 91fd      	LD   R31,X+
001e9b 9631      	ADIW R30,1
001e9c 93fe      	ST   -X,R31
001e9d 93ee      	ST   -X,R30
001e9e 9508      	RET
                 
                 ;OPTIMIZER ADDED SUBROUTINE, CALLED 13 TIMES, CODE SIZE REDUCTION:33 WORDS
                 SUBOPT_0x2:
001e9f e0e0      	LDI  R30,LOW(0)
001ea0 93ea      	ST   -Y,R30
001ea1 e0a0      	LDI  R26,LOW(0)
001ea2 940c 090f 	JMP  _nlcd_GotoXY
                 
                 ;OPTIMIZER ADDED SUBROUTINE, CALLED 6 TIMES, CODE SIZE REDUCTION:12 WORDS
                 SUBOPT_0x3:
001ea4 e0e0      	LDI  R30,LOW(0)
001ea5 93ea      	ST   -Y,R30
001ea6 e0a2      	LDI  R26,LOW(2)
001ea7 940c 090f 	JMP  _nlcd_GotoXY
                 
                 ;OPTIMIZER ADDED SUBROUTINE, CALLED 2 TIMES, CODE SIZE REDUCTION:1 WORDS
                 SUBOPT_0x4:
001ea9 eda0      	LDI  R26,LOW(2000)
001eaa e0b7      	LDI  R27,HIGH(2000)
001eab 940e 23c5 	CALL _delay_ms
001ead 940c 083c 	JMP  _nlcd_Clear
                 
                 ;OPTIMIZER ADDED SUBROUTINE, CALLED 4 TIMES, CODE SIZE REDUCTION:27 WORDS
                 SUBOPT_0x5:
001eaf efec      	LDI  R30,LOW(_ds1820_rom_codes)
001eb0 e0fa      	LDI  R31,HIGH(_ds1820_rom_codes)
001eb1 93fa      	ST   -Y,R31
001eb2 93ea      	ST   -Y,R30
001eb3 e0e3      	LDI  R30,LOW(3)
001eb4 93ea      	ST   -Y,R30
001eb5 e0e8      	LDI  R30,LOW(8)
001eb6 93ea      	ST   -Y,R30
001eb7 e2a7      	LDI  R26,LOW(_ds1820_devices)
001eb8 e0ba      	LDI  R27,HIGH(_ds1820_devices)
001eb9 940c 1856 	JMP  _OWI_SearchDevices
                 
                 ;OPTIMIZER ADDED SUBROUTINE, CALLED 2 TIMES, CODE SIZE REDUCTION:3 WORDS
                 SUBOPT_0x6:
001ebb e0eb      	LDI  R30,LOW(_buf)
001ebc e0fa      	LDI  R31,HIGH(_buf)
001ebd 93fa      	ST   -Y,R31
001ebe 93ea      	ST   -Y,R30
                +
001ebf e0e0     +LDI R30 , LOW ( 2 * _0x0 + ( 162 ) )
001ec0 e0f6     +LDI R31 , HIGH ( 2 * _0x0 + ( 162 ) )
                 	__POINTW1FN _0x0,162
001ec1 93fa      	ST   -Y,R31
001ec2 93ea      	ST   -Y,R30
001ec3 9508      	RET
                 
                 ;OPTIMIZER ADDED SUBROUTINE, CALLED 13 TIMES, CODE SIZE REDUCTION:21 WORDS
                 SUBOPT_0x7:
001ec4 e084      	LDI  R24,4
001ec5 940e 1d47 	CALL _sprintf
001ec7 9628      	ADIW R28,8
001ec8 9508      	RET
                 
                 ;OPTIMIZER ADDED SUBROUTINE, CALLED 5 TIMES, CODE SIZE REDUCTION:5 WORDS
                 SUBOPT_0x8:
001ec9 93ea      	ST   -Y,R30
001eca e0a5      	LDI  R26,LOW(5)
001ecb 940c 090f 	JMP  _nlcd_GotoXY
                 
                 ;OPTIMIZER ADDED SUBROUTINE, CALLED 23 TIMES, CODE SIZE REDUCTION:41 WORDS
                 SUBOPT_0x9:
001ecd e0ab      	LDI  R26,LOW(_buf)
001ece e0ba      	LDI  R27,HIGH(_buf)
001ecf 940c 08db 	JMP  _nlcd_Print
                 
                 ;OPTIMIZER ADDED SUBROUTINE, CALLED 21 TIMES, CODE SIZE REDUCTION:37 WORDS
                 SUBOPT_0xA:
001ed1 940e 085e 	CALL _nlcd_SendByte
001ed3 e0e0      	LDI  R30,LOW(0)
001ed4 93ea      	ST   -Y,R30
001ed5 9508      	RET
                 
                 ;OPTIMIZER ADDED SUBROUTINE, CALLED 3 TIMES, CODE SIZE REDUCTION:3 WORDS
                 SUBOPT_0xB:
001ed6 e0e1      	LDI  R30,LOW(1)
001ed7 93ea      	ST   -Y,R30
001ed8 e0a0      	LDI  R26,LOW(0)
001ed9 940c 085e 	JMP  _nlcd_SendByte
                 
                 ;OPTIMIZER ADDED SUBROUTINE, CALLED 5 TIMES, CODE SIZE REDUCTION:9 WORDS
                 SUBOPT_0xC:
001edb e0f0      	LDI  R31,0
001edc 0fea      	ADD  R30,R26
001edd 1ffb      	ADC  R31,R27
001ede 9508      	RET
                 
                 ;OPTIMIZER ADDED SUBROUTINE, CALLED 2 TIMES, CODE SIZE REDUCTION:10 WORDS
                 SUBOPT_0xD:
001edf 81ea      	LDD  R30,Y+2
001ee0 e0f0      	LDI  R31,0
001ee1 977e      	SBIW R30,30
001ee2 e0a5      	LDI  R26,LOW(5)
001ee3 e0b0      	LDI  R27,HIGH(5)
001ee4 940e 25aa 	CALL __MULW12U
001ee6 56e2      	SUBI R30,LOW(-_nlcd_Font*2)
001ee7 4fff      	SBCI R31,HIGH(-_nlcd_Font*2)
001ee8 01df      	MOVW R26,R30
001ee9 2fe1      	MOV  R30,R17
001eea cff0      	RJMP SUBOPT_0xC
                 
                 ;OPTIMIZER ADDED SUBROUTINE, CALLED 3 TIMES, CODE SIZE REDUCTION:3 WORDS
                 SUBOPT_0xE:
001eeb e0f0      	LDI  R31,0
001eec 56e5      	SUBI R30,LOW(-_buf_G002)
001eed 4ff1      	SBCI R31,HIGH(-_buf_G002)
001eee 9508      	RET
                 
                 ;OPTIMIZER ADDED SUBROUTINE, CALLED 4 TIMES, CODE SIZE REDUCTION:3 WORDS
                 SUBOPT_0xF:
001eef 81eb      	LDD  R30,Y+3
001ef0 e0f0      	LDI  R31,0
001ef1 9508      	RET
                 
                 ;OPTIMIZER ADDED SUBROUTINE, CALLED 11 TIMES, CODE SIZE REDUCTION:17 WORDS
                 SUBOPT_0x10:
001ef2 2fe1      	MOV  R30,R17
001ef3 e0f0      	LDI  R31,0
001ef4 9508      	RET
                 
                 ;OPTIMIZER ADDED SUBROUTINE, CALLED 2 TIMES, CODE SIZE REDUCTION:2 WORDS
                 SUBOPT_0x11:
001ef5 91e0 0ec7 	LDS  R30,_headBuf_G003
001ef7 e0f0      	LDI  R31,0
001ef8 55ea      	SUBI R30,LOW(-_cycleBuf_G003)
001ef9 4ff1      	SBCI R31,HIGH(-_cycleBuf_G003)
001efa 9508      	RET
                 
                 ;OPTIMIZER ADDED SUBROUTINE, CALLED 2 TIMES, CODE SIZE REDUCTION:9 WORDS
                 SUBOPT_0x12:
001efb e1e4      	LDI  R30,LOW(_t_rom_codes)
001efc e0fb      	LDI  R31,HIGH(_t_rom_codes)
001efd 93fa      	ST   -Y,R31
001efe 93ea      	ST   -Y,R30
001eff e0e8      	LDI  R30,LOW(8)
001f00 93ea      	ST   -Y,R30
001f01 e1e9      	LDI  R30,LOW(25)
001f02 93ea      	ST   -Y,R30
001f03 e2e3      	LDI  R30,LOW(35)
001f04 93ea      	ST   -Y,R30
001f05 e5af      	LDI  R26,LOW(95)
001f06 940e 1929 	CALL _InitSensor
001f08 30e0      	CPI  R30,0
001f09 9508      	RET
                 
                 ;OPTIMIZER ADDED SUBROUTINE, CALLED 2 TIMES, CODE SIZE REDUCTION:9 WORDS
                 SUBOPT_0x13:
                +
001f0a e1ec     +LDI R30 , LOW ( _t_rom_codes + ( 8 ) )
001f0b e0fb     +LDI R31 , HIGH ( _t_rom_codes + ( 8 ) )
                 	__POINTW1MN _t_rom_codes,8
001f0c 93fa      	ST   -Y,R31
001f0d 93ea      	ST   -Y,R30
001f0e e0e8      	LDI  R30,LOW(8)
001f0f 93ea      	ST   -Y,R30
001f10 e1e9      	LDI  R30,LOW(25)
001f11 93ea      	ST   -Y,R30
001f12 e2e3      	LDI  R30,LOW(35)
001f13 93ea      	ST   -Y,R30
001f14 e5af      	LDI  R26,LOW(95)
001f15 940e 1929 	CALL _InitSensor
001f17 30e0      	CPI  R30,0
001f18 9508      	RET
                 
                 ;OPTIMIZER ADDED SUBROUTINE, CALLED 3 TIMES, CODE SIZE REDUCTION:11 WORDS
                 SUBOPT_0x14:
001f19 e0e0      	LDI  R30,LOW(0)
001f1a 93e0 0a28 	STS  _sec,R30
001f1c 93e0 0a29 	STS  _minutes,R30
001f1e 93e0 0a2a 	STS  _hours,R30
001f20 9508      	RET
                 
                 ;OPTIMIZER ADDED SUBROUTINE, CALLED 5 TIMES, CODE SIZE REDUCTION:21 WORDS
                 SUBOPT_0x15:
001f21 93e0 0f07 	STS  _Votb,R30
001f23 93f0 0f08 	STS  _Votb+1,R31
001f25 9360 0f09 	STS  _Votb+2,R22
001f27 9370 0f0a 	STS  _Votb+3,R23
001f29 9508      	RET
                 
                 ;OPTIMIZER ADDED SUBROUTINE, CALLED 4 TIMES, CODE SIZE REDUCTION:6 WORDS
                 SUBOPT_0x16:
001f2a e0e0      	LDI  R30,LOW(0)
001f2b 93ea      	ST   -Y,R30
001f2c e0a1      	LDI  R26,LOW(1)
001f2d 940c 090f 	JMP  _nlcd_GotoXY
                 
                 ;OPTIMIZER ADDED SUBROUTINE, CALLED 7 TIMES, CODE SIZE REDUCTION:9 WORDS
                 SUBOPT_0x17:
001f2f 940e 08e9 	CALL _nlcd_PrintF
001f31 e0e0      	LDI  R30,LOW(0)
001f32 93ea      	ST   -Y,R30
001f33 9508      	RET
                 
                 ;OPTIMIZER ADDED SUBROUTINE, CALLED 4 TIMES, CODE SIZE REDUCTION:51 WORDS
                 SUBOPT_0x18:
001f34 91a0 0eeb 	LDS  R26,_t_kuba_old
001f36 91b0 0eec 	LDS  R27,_t_kuba_old+1
001f38 9180 0eed 	LDS  R24,_t_kuba_old+2
001f3a 9190 0eee 	LDS  R25,_t_kuba_old+3
001f3c 91e0 0edf 	LDS  R30,_t_kuba
001f3e 91f0 0ee0 	LDS  R31,_t_kuba+1
001f40 9160 0ee1 	LDS  R22,_t_kuba+2
001f42 9170 0ee2 	LDS  R23,_t_kuba+3
001f44 940e 246e 	CALL __SUBF12
001f46 01df      	MOVW R26,R30
001f47 01cb      	MOVW R24,R22
001f48 9508      	RET
                 
                 ;OPTIMIZER ADDED SUBROUTINE, CALLED 5 TIMES, CODE SIZE REDUCTION:13 WORDS
                 SUBOPT_0x19:
                +
001f49 e0e0     +LDI R30 , LOW ( 0x3E000000 )
001f4a e0f0     +LDI R31 , HIGH ( 0x3E000000 )
001f4b e060     +LDI R22 , BYTE3 ( 0x3E000000 )
001f4c e37e     +LDI R23 , BYTE4 ( 0x3E000000 )
                 	__GETD1N 0x3E000000
001f4d 940e 2558 	CALL __CMPF12
001f4f 9508      	RET
                 
                 ;OPTIMIZER ADDED SUBROUTINE, CALLED 5 TIMES, CODE SIZE REDUCTION:13 WORDS
                 SUBOPT_0x1A:
                +
001f50 e0e0     +LDI R30 , LOW ( 0xBE000000 )
001f51 e0f0     +LDI R31 , HIGH ( 0xBE000000 )
001f52 e060     +LDI R22 , BYTE3 ( 0xBE000000 )
001f53 eb7e     +LDI R23 , BYTE4 ( 0xBE000000 )
                 	__GETD1N 0xBE000000
001f54 940e 2558 	CALL __CMPF12
001f56 9508      	RET
                 
                 ;OPTIMIZER ADDED SUBROUTINE, CALLED 4 TIMES, CODE SIZE REDUCTION:51 WORDS
                 SUBOPT_0x1B:
001f57 91a0 0ef3 	LDS  R26,_t_kolona_up_old
001f59 91b0 0ef4 	LDS  R27,_t_kolona_up_old+1
001f5b 9180 0ef5 	LDS  R24,_t_kolona_up_old+2
001f5d 9190 0ef6 	LDS  R25,_t_kolona_up_old+3
001f5f 91e0 0ee7 	LDS  R30,_t_kolona_up
001f61 91f0 0ee8 	LDS  R31,_t_kolona_up+1
001f63 9160 0ee9 	LDS  R22,_t_kolona_up+2
001f65 9170 0eea 	LDS  R23,_t_kolona_up+3
001f67 940e 246e 	CALL __SUBF12
001f69 01df      	MOVW R26,R30
001f6a 01cb      	MOVW R24,R22
001f6b 9508      	RET
                 
                 ;OPTIMIZER ADDED SUBROUTINE, CALLED 4 TIMES, CODE SIZE REDUCTION:3 WORDS
                 SUBOPT_0x1C:
001f6c 93ea      	ST   -Y,R30
001f6d e0a0      	LDI  R26,LOW(0)
001f6e 940c 090f 	JMP  _nlcd_GotoXY
                 
                 ;OPTIMIZER ADDED SUBROUTINE, CALLED 3 TIMES, CODE SIZE REDUCTION:1 WORDS
                 SUBOPT_0x1D:
001f70 940e 08e9 	CALL _nlcd_PrintF
001f72 e0e1      	LDI  R30,LOW(1)
001f73 93ea      	ST   -Y,R30
001f74 9508      	RET
                 
                 ;OPTIMIZER ADDED SUBROUTINE, CALLED 2 TIMES, CODE SIZE REDUCTION:2 WORDS
                 SUBOPT_0x1E:
001f75 e0a2      	LDI  R26,LOW(2)
001f76 940e 090f 	CALL _nlcd_GotoXY
001f78 e0eb      	LDI  R30,LOW(_buf)
001f79 e0fa      	LDI  R31,HIGH(_buf)
001f7a 93fa      	ST   -Y,R31
001f7b 93ea      	ST   -Y,R30
001f7c 9508      	RET
                 
                 ;OPTIMIZER ADDED SUBROUTINE, CALLED 3 TIMES, CODE SIZE REDUCTION:55 WORDS
                 SUBOPT_0x1F:
                +
001f7d e3e5     +LDI R30 , LOW ( 2 * _0x80000 + ( 275 ) )
001f7e e0f7     +LDI R31 , HIGH ( 2 * _0x80000 + ( 275 ) )
                 	__POINTW1FN _0x80000,275
001f7f 93fa      	ST   -Y,R31
001f80 93ea      	ST   -Y,R30
001f81 91e0 0a2a 	LDS  R30,_hours
001f83 27ff      	CLR  R31
001f84 2766      	CLR  R22
001f85 2777      	CLR  R23
001f86 940e 2681 	CALL __PUTPARD1
001f88 91e0 0a29 	LDS  R30,_minutes
001f8a 27ff      	CLR  R31
001f8b 2766      	CLR  R22
001f8c 2777      	CLR  R23
001f8d 940e 2681 	CALL __PUTPARD1
001f8f 91e0 0a28 	LDS  R30,_sec
001f91 27ff      	CLR  R31
001f92 2766      	CLR  R22
001f93 2777      	CLR  R23
001f94 940e 2681 	CALL __PUTPARD1
001f96 e08c      	LDI  R24,12
001f97 940e 1d47 	CALL _sprintf
001f99 9660      	ADIW R28,16
001f9a cf32      	RJMP SUBOPT_0x9
                 
                 ;OPTIMIZER ADDED SUBROUTINE, CALLED 2 TIMES, CODE SIZE REDUCTION:4 WORDS
                 SUBOPT_0x20:
001f9b e0e1      	LDI  R30,LOW(1)
001f9c 93ea      	ST   -Y,R30
001f9d e0a3      	LDI  R26,LOW(3)
001f9e 940e 090f 	CALL _nlcd_GotoXY
001fa0 e0eb      	LDI  R30,LOW(_buf)
001fa1 e0fa      	LDI  R31,HIGH(_buf)
001fa2 93fa      	ST   -Y,R31
001fa3 93ea      	ST   -Y,R30
001fa4 9508      	RET
                 
                 ;OPTIMIZER ADDED SUBROUTINE, CALLED 2 TIMES, CODE SIZE REDUCTION:9 WORDS
                 SUBOPT_0x21:
                +
001fa5 e4e7     +LDI R30 , LOW ( 2 * _0x80000 + ( 293 ) )
001fa6 e0f7     +LDI R31 , HIGH ( 2 * _0x80000 + ( 293 ) )
                 	__POINTW1FN _0x80000,293
001fa7 93fa      	ST   -Y,R31
001fa8 93ea      	ST   -Y,R30
001fa9 91e0 0ee7 	LDS  R30,_t_kolona_up
001fab 91f0 0ee8 	LDS  R31,_t_kolona_up+1
001fad 9160 0ee9 	LDS  R22,_t_kolona_up+2
001faf 9170 0eea 	LDS  R23,_t_kolona_up+3
001fb1 940e 2681 	CALL __PUTPARD1
001fb3 9508      	RET
                 
                 ;OPTIMIZER ADDED SUBROUTINE, CALLED 6 TIMES, CODE SIZE REDUCTION:37 WORDS
                 SUBOPT_0x22:
001fb4 2766      	CLR  R22
001fb5 2777      	CLR  R23
001fb6 940e 2681 	CALL __PUTPARD1
001fb8 e088      	LDI  R24,8
001fb9 940e 1d47 	CALL _sprintf
001fbb 962c      	ADIW R28,12
001fbc cf10      	RJMP SUBOPT_0x9
                 
                 ;OPTIMIZER ADDED SUBROUTINE, CALLED 2 TIMES, CODE SIZE REDUCTION:18 WORDS
                 SUBOPT_0x23:
001fbd e0e1      	LDI  R30,LOW(1)
001fbe 93ea      	ST   -Y,R30
001fbf e0a4      	LDI  R26,LOW(4)
001fc0 940e 090f 	CALL _nlcd_GotoXY
001fc2 e0eb      	LDI  R30,LOW(_buf)
001fc3 e0fa      	LDI  R31,HIGH(_buf)
001fc4 93fa      	ST   -Y,R31
001fc5 93ea      	ST   -Y,R30
                +
001fc6 e5e8     +LDI R30 , LOW ( 2 * _0x80000 + ( 310 ) )
001fc7 e0f7     +LDI R31 , HIGH ( 2 * _0x80000 + ( 310 ) )
                 	__POINTW1FN _0x80000,310
001fc8 93fa      	ST   -Y,R31
001fc9 93ea      	ST   -Y,R30
001fca 91e0 0edf 	LDS  R30,_t_kuba
001fcc 91f0 0ee0 	LDS  R31,_t_kuba+1
001fce 9160 0ee1 	LDS  R22,_t_kuba+2
001fd0 9170 0ee2 	LDS  R23,_t_kuba+3
001fd2 940e 2681 	CALL __PUTPARD1
001fd4 9508      	RET
                 
                 ;OPTIMIZER ADDED SUBROUTINE, CALLED 2 TIMES, CODE SIZE REDUCTION:3 WORDS
                 SUBOPT_0x24:
001fd5 93ea      	ST   -Y,R30
001fd6 e0a6      	LDI  R26,LOW(6)
001fd7 940e 090f 	CALL _nlcd_GotoXY
001fd9 01fe      	MOVW R30,R28
001fda 93fa      	ST   -Y,R31
001fdb 93ea      	ST   -Y,R30
001fdc 9508      	RET
                 
                 ;OPTIMIZER ADDED SUBROUTINE, CALLED 2 TIMES, CODE SIZE REDUCTION:10 WORDS
                 SUBOPT_0x25:
001fdd e0f0      	LDI  R31,0
001fde 0fee      	LSL  R30
001fdf 1fff      	ROL  R31
001fe0 0fea      	ADD  R30,R26
001fe1 1ffb      	ADC  R31,R27
001fe2 940e 266f 	CALL __GETW2PF
001fe4 940e 19fd 	CALL _strcpyf
001fe6 e0eb      	LDI  R30,LOW(_buf)
001fe7 e0fa      	LDI  R31,HIGH(_buf)
001fe8 93fa      	ST   -Y,R31
001fe9 93ea      	ST   -Y,R30
001fea 9508      	RET
                 
                 ;OPTIMIZER ADDED SUBROUTINE, CALLED 7 TIMES, CODE SIZE REDUCTION:15 WORDS
                 SUBOPT_0x26:
001feb 27ff      	CLR  R31
001fec 2766      	CLR  R22
001fed 2777      	CLR  R23
001fee 940e 2681 	CALL __PUTPARD1
001ff0 9508      	RET
                 
                 ;OPTIMIZER ADDED SUBROUTINE, CALLED 4 TIMES, CODE SIZE REDUCTION:9 WORDS
                 SUBOPT_0x27:
001ff1 01fe      	MOVW R30,R28
001ff2 9638      	ADIW R30,8
001ff3 2766      	CLR  R22
001ff4 2777      	CLR  R23
001ff5 940e 2681 	CALL __PUTPARD1
001ff7 9508      	RET
                 
                 ;OPTIMIZER ADDED SUBROUTINE, CALLED 7 TIMES, CODE SIZE REDUCTION:33 WORDS
                 SUBOPT_0x28:
001ff8 91e0 0f07 	LDS  R30,_Votb
001ffa 91f0 0f08 	LDS  R31,_Votb+1
001ffc 9160 0f09 	LDS  R22,_Votb+2
001ffe 9170 0f0a 	LDS  R23,_Votb+3
002000 9508      	RET
                 
                 ;OPTIMIZER ADDED SUBROUTINE, CALLED 5 TIMES, CODE SIZE REDUCTION:13 WORDS
                 SUBOPT_0x29:
002001 940e 090f 	CALL _nlcd_GotoXY
002003 e0eb      	LDI  R30,LOW(_buf)
002004 e0fa      	LDI  R31,HIGH(_buf)
002005 93fa      	ST   -Y,R31
002006 93ea      	ST   -Y,R30
002007 9508      	RET
                 
                 ;OPTIMIZER ADDED SUBROUTINE, CALLED 5 TIMES, CODE SIZE REDUCTION:5 WORDS
                 SUBOPT_0x2A:
002008 e088      	LDI  R24,8
002009 940e 1d47 	CALL _sprintf
00200b 962c      	ADIW R28,12
00200c 9508      	RET
                 
                 ;OPTIMIZER ADDED SUBROUTINE, CALLED 3 TIMES, CODE SIZE REDUCTION:1 WORDS
                 SUBOPT_0x2B:
                +
00200d e2e4     +LDI R30 , LOW ( _t_rom_codes + ( 16 ) )
00200e e0fb     +LDI R31 , HIGH ( _t_rom_codes + ( 16 ) )
                 	__POINTW1MN _t_rom_codes,16
00200f 93fa      	ST   -Y,R31
002010 93ea      	ST   -Y,R30
002011 9508      	RET
                 
                 ;OPTIMIZER ADDED SUBROUTINE, CALLED 7 TIMES, CODE SIZE REDUCTION:9 WORDS
                 SUBOPT_0x2C:
002012 940e 083c 	CALL _nlcd_Clear
002014 940c 1398 	JMP  _print_menu
                 
                 ;OPTIMIZER ADDED SUBROUTINE, CALLED 4 TIMES, CODE SIZE REDUCTION:6 WORDS
                 SUBOPT_0x2D:
002016 e0e0      	LDI  R30,LOW(0)
002017 93e0 0a2e 	STS  _impulseCounter,R30
002019 93e0 0a2f 	STS  _impulseCounter+1,R30
00201b 9508      	RET
                 
                 ;OPTIMIZER ADDED SUBROUTINE, CALLED 2 TIMES, CODE SIZE REDUCTION:1 WORDS
                 SUBOPT_0x2E:
00201c e0e0      	LDI  R30,LOW(0)
00201d 93e0 0f0b 	STS  _ssCounter,R30
00201f 93e0 0f0c 	STS  _ssCounter+1,R30
002021 24cc      	CLR  R12
002022 9508      	RET
                 
                 ;OPTIMIZER ADDED SUBROUTINE, CALLED 4 TIMES, CODE SIZE REDUCTION:3 WORDS
                 SUBOPT_0x2F:
002023 940e 08e9 	CALL _nlcd_PrintF
002025 e0e4      	LDI  R30,LOW(4)
002026 93ea      	ST   -Y,R30
002027 9508      	RET
                 
                 ;OPTIMIZER ADDED SUBROUTINE, CALLED 2 TIMES, CODE SIZE REDUCTION:15 WORDS
                 SUBOPT_0x30:
002028 91a0 0eef 	LDS  R26,_t_kolona_down_old
00202a 91b0 0ef0 	LDS  R27,_t_kolona_down_old+1
00202c 9180 0ef1 	LDS  R24,_t_kolona_down_old+2
00202e 9190 0ef2 	LDS  R25,_t_kolona_down_old+3
002030 91e0 0ee3 	LDS  R30,_t_kolona_down
002032 91f0 0ee4 	LDS  R31,_t_kolona_down+1
002034 9160 0ee5 	LDS  R22,_t_kolona_down+2
002036 9170 0ee6 	LDS  R23,_t_kolona_down+3
002038 940e 246e 	CALL __SUBF12
00203a 01df      	MOVW R26,R30
00203b 01cb      	MOVW R24,R22
00203c 9508      	RET
                 
                 ;OPTIMIZER ADDED SUBROUTINE, CALLED 2 TIMES, CODE SIZE REDUCTION:3 WORDS
                 SUBOPT_0x31:
00203d 91e0 0ee3 	LDS  R30,_t_kolona_down
00203f 91f0 0ee4 	LDS  R31,_t_kolona_down+1
002041 9160 0ee5 	LDS  R22,_t_kolona_down+2
002043 9170 0ee6 	LDS  R23,_t_kolona_down+3
002045 9508      	RET
                 
                 ;OPTIMIZER ADDED SUBROUTINE, CALLED 16 TIMES, CODE SIZE REDUCTION:27 WORDS
                 SUBOPT_0x32:
002046 e0eb      	LDI  R30,LOW(_buf)
002047 e0fa      	LDI  R31,HIGH(_buf)
002048 93fa      	ST   -Y,R31
002049 93ea      	ST   -Y,R30
00204a 9508      	RET
                 
                 ;OPTIMIZER ADDED SUBROUTINE, CALLED 5 TIMES, CODE SIZE REDUCTION:21 WORDS
                 SUBOPT_0x33:
00204b 93fa      	ST   -Y,R31
00204c 93ea      	ST   -Y,R30
00204d 01fe      	MOVW R30,R28
00204e 9634      	ADIW R30,4
00204f 2766      	CLR  R22
002050 2777      	CLR  R23
002051 940e 2681 	CALL __PUTPARD1
002053 9508      	RET
                 
                 ;OPTIMIZER ADDED SUBROUTINE, CALLED 2 TIMES, CODE SIZE REDUCTION:5 WORDS
                 SUBOPT_0x34:
002054 93fa      	ST   -Y,R31
002055 93ea      	ST   -Y,R30
002056 91e0 0ef7 	LDS  R30,_headDisp
002058 91f0 0ef8 	LDS  R31,_headDisp+1
00205a 9160 0ef9 	LDS  R22,_headDisp+2
00205c 9170 0efa 	LDS  R23,_headDisp+3
00205e 9508      	RET
                 
                 ;OPTIMIZER ADDED SUBROUTINE, CALLED 3 TIMES, CODE SIZE REDUCTION:1 WORDS
                 SUBOPT_0x35:
                +
00205f e0a0     +LDI R26 , LOW ( 0x41200000 )
002060 e0b0     +LDI R27 , HIGH ( 0x41200000 )
002061 e280     +LDI R24 , BYTE3 ( 0x41200000 )
002062 e491     +LDI R25 , BYTE4 ( 0x41200000 )
                 	__GETD2N 0x41200000
002063 9508      	RET
                 
                 ;OPTIMIZER ADDED SUBROUTINE, CALLED 4 TIMES, CODE SIZE REDUCTION:3 WORDS
                 SUBOPT_0x36:
002064 940e 268b 	CALL __SWAPD12
002066 940e 246e 	CALL __SUBF12
002068 9508      	RET
                 
                 ;OPTIMIZER ADDED SUBROUTINE, CALLED 3 TIMES, CODE SIZE REDUCTION:9 WORDS
                 SUBOPT_0x37:
002069 91e0 0a58 	LDS  R30,_rect_body_speed
00206b 91f0 0a59 	LDS  R31,_rect_body_speed+1
00206d 2766      	CLR  R22
00206e 2777      	CLR  R23
00206f 940e 243b 	CALL __CDF1
002071 9508      	RET
                 
                 ;OPTIMIZER ADDED SUBROUTINE, CALLED 5 TIMES, CODE SIZE REDUCTION:21 WORDS
                 SUBOPT_0x38:
002072 91a0 0f07 	LDS  R26,_Votb
002074 91b0 0f08 	LDS  R27,_Votb+1
002076 9180 0f09 	LDS  R24,_Votb+2
002078 9190 0f0a 	LDS  R25,_Votb+3
00207a 9508      	RET
                 
                 ;OPTIMIZER ADDED SUBROUTINE, CALLED 4 TIMES, CODE SIZE REDUCTION:3 WORDS
                 SUBOPT_0x39:
00207b 940e 25a0 	CALL __CWD1
00207d 940e 243b 	CALL __CDF1
00207f 9508      	RET
                 
                 ;OPTIMIZER ADDED SUBROUTINE, CALLED 4 TIMES, CODE SIZE REDUCTION:21 WORDS
                 SUBOPT_0x3A:
002080 91a0 0a32 	LDS  R26,_onePulseDose
002082 91b0 0a33 	LDS  R27,_onePulseDose+1
002084 9180 0a34 	LDS  R24,_onePulseDose+2
002086 9190 0a35 	LDS  R25,_onePulseDose+3
002088 940e 24c5 	CALL __MULF12
00208a 9508      	RET
                 
                 ;OPTIMIZER ADDED SUBROUTINE, CALLED 4 TIMES, CODE SIZE REDUCTION:3 WORDS
                 SUBOPT_0x3B:
00208b 93ea      	ST   -Y,R30
00208c e0a3      	LDI  R26,LOW(3)
00208d 940c 090f 	JMP  _nlcd_GotoXY
                 
                 ;OPTIMIZER ADDED SUBROUTINE, CALLED 3 TIMES, CODE SIZE REDUCTION:1 WORDS
                 SUBOPT_0x3C:
00208f 93ea      	ST   -Y,R30
002090 e0a4      	LDI  R26,LOW(4)
002091 940c 090f 	JMP  _nlcd_GotoXY
                 
                 ;OPTIMIZER ADDED SUBROUTINE, CALLED 3 TIMES, CODE SIZE REDUCTION:7 WORDS
                 SUBOPT_0x3D:
002093 91e0 0a2d 	LDS  R30,_valvePulse
002095 27ff      	CLR  R31
002096 2766      	CLR  R22
002097 2777      	CLR  R23
002098 940e 243b 	CALL __CDF1
00209a 9508      	RET
                 
                 ;OPTIMIZER ADDED SUBROUTINE, CALLED 3 TIMES, CODE SIZE REDUCTION:1 WORDS
                 SUBOPT_0x3E:
00209b 940e 2513 	CALL __DIVF21
00209d 940e 2402 	CALL __CFD1U
00209f 9508      	RET
                 
                 ;OPTIMIZER ADDED SUBROUTINE, CALLED 13 TIMES, CODE SIZE REDUCTION:21 WORDS
                 SUBOPT_0x3F:
0020a0 2766      	CLR  R22
0020a1 2777      	CLR  R23
0020a2 940e 243b 	CALL __CDF1
0020a4 9508      	RET
                 
                 ;OPTIMIZER ADDED SUBROUTINE, CALLED 2 TIMES, CODE SIZE REDUCTION:1 WORDS
                 SUBOPT_0x40:
0020a5 91e0 0a2e 	LDS  R30,_impulseCounter
0020a7 91f0 0a2f 	LDS  R31,_impulseCounter+1
0020a9 2766      	CLR  R22
0020aa 2777      	CLR  R23
0020ab 9508      	RET
                 
                 ;OPTIMIZER ADDED SUBROUTINE, CALLED 3 TIMES, CODE SIZE REDUCTION:13 WORDS
                 SUBOPT_0x41:
0020ac 940e 2513 	CALL __DIVF21
0020ae 93e0 0a32 	STS  _onePulseDose,R30
0020b0 93f0 0a33 	STS  _onePulseDose+1,R31
0020b2 9360 0a34 	STS  _onePulseDose+2,R22
0020b4 9370 0a35 	STS  _onePulseDose+3,R23
0020b6 9508      	RET
                 
                 ;OPTIMIZER ADDED SUBROUTINE, CALLED 3 TIMES, CODE SIZE REDUCTION:1 WORDS
                 SUBOPT_0x42:
0020b7 e0e0      	LDI  R30,LOW(0)
0020b8 93e0 0a2c 	STS  _pwmOn,R30
0020ba 98db      	CBI  0x1B,3
0020bb 9508      	RET
                 
                 ;OPTIMIZER ADDED SUBROUTINE, CALLED 2 TIMES, CODE SIZE REDUCTION:4 WORDS
                 SUBOPT_0x43:
0020bc 93e0 0a5b 	STS  _param_id,R30
0020be e0a9      	LDI  R26,LOW(9)
0020bf 9fea      	MUL  R30,R26
0020c0 01f0      	MOVW R30,R0
0020c1 5ae4      	SUBI R30,LOW(-_params)
0020c2 4ff5      	SBCI R31,HIGH(-_params)
0020c3 9508      	RET
                 
                 ;OPTIMIZER ADDED SUBROUTINE, CALLED 2 TIMES, CODE SIZE REDUCTION:6 WORDS
                 SUBOPT_0x44:
0020c4 91e0 0af8 	LDS  R30,_current_menu
0020c6 93e0 0afa 	STS  _last_menu,R30
0020c8 91e0 0af9 	LDS  R30,_current_pos
0020ca 93e0 0afb 	STS  _last_pos,R30
0020cc e0e2      	LDI  R30,LOW(2)
0020cd 93e0 0af8 	STS  _current_menu,R30
0020cf 9508      	RET
                 
                 ;OPTIMIZER ADDED SUBROUTINE, CALLED 6 TIMES, CODE SIZE REDUCTION:7 WORDS
                 SUBOPT_0x45:
0020d0 940e 2681 	CALL __PUTPARD1
0020d2 cdf1      	RJMP SUBOPT_0x7
                 
                 ;OPTIMIZER ADDED SUBROUTINE, CALLED 10 TIMES, CODE SIZE REDUCTION:24 WORDS
                 SUBOPT_0x46:
0020d3 91e0 0a1f 	LDS  R30,_mode
0020d5 e0f0      	LDI  R31,0
0020d6 9508      	RET
                 
                 ;OPTIMIZER ADDED SUBROUTINE, CALLED 3 TIMES, CODE SIZE REDUCTION:3 WORDS
                 SUBOPT_0x47:
0020d7 27ff      	CLR  R31
0020d8 2766      	CLR  R22
0020d9 2777      	CLR  R23
0020da 940e 243b 	CALL __CDF1
0020dc 9508      	RET
                 
                 ;OPTIMIZER ADDED SUBROUTINE, CALLED 2 TIMES, CODE SIZE REDUCTION:3 WORDS
                 SUBOPT_0x48:
0020dd 91a0 0eff 	LDS  R26,_t_kuba_sum
0020df 91b0 0f00 	LDS  R27,_t_kuba_sum+1
0020e1 9180 0f01 	LDS  R24,_t_kuba_sum+2
0020e3 9190 0f02 	LDS  R25,_t_kuba_sum+3
0020e5 9508      	RET
                 
                 ;OPTIMIZER ADDED SUBROUTINE, CALLED 2 TIMES, CODE SIZE REDUCTION:15 WORDS
                 SUBOPT_0x49:
0020e6 93e0 0efb 	STS  _t_kuba_avg,R30
0020e8 93f0 0efc 	STS  _t_kuba_avg+1,R31
0020ea 9360 0efd 	STS  _t_kuba_avg+2,R22
0020ec 9370 0efe 	STS  _t_kuba_avg+3,R23
0020ee e0e0      	LDI  R30,LOW(0)
0020ef 93e0 0eff 	STS  _t_kuba_sum,R30
0020f1 93e0 0f00 	STS  _t_kuba_sum+1,R30
0020f3 93e0 0f01 	STS  _t_kuba_sum+2,R30
0020f5 93e0 0f02 	STS  _t_kuba_sum+3,R30
0020f7 24bb      	CLR  R11
0020f8 940c 0d30 	JMP  _CalculateBodySpeed
                 
                 ;OPTIMIZER ADDED SUBROUTINE, CALLED 2 TIMES, CODE SIZE REDUCTION:11 WORDS
                 SUBOPT_0x4A:
0020fa 91e0 0edf 	LDS  R30,_t_kuba
0020fc 91f0 0ee0 	LDS  R31,_t_kuba+1
0020fe 9160 0ee1 	LDS  R22,_t_kuba+2
002100 9170 0ee2 	LDS  R23,_t_kuba+3
002102 93e0 0eeb 	STS  _t_kuba_old,R30
002104 93f0 0eec 	STS  _t_kuba_old+1,R31
002106 9360 0eed 	STS  _t_kuba_old+2,R22
002108 9370 0eee 	STS  _t_kuba_old+3,R23
00210a 9508      	RET
                 
                 ;OPTIMIZER ADDED SUBROUTINE, CALLED 2 TIMES, CODE SIZE REDUCTION:26 WORDS
                 SUBOPT_0x4B:
00210b 91e0 0ee7 	LDS  R30,_t_kolona_up
00210d 91f0 0ee8 	LDS  R31,_t_kolona_up+1
00210f 9160 0ee9 	LDS  R22,_t_kolona_up+2
002111 9170 0eea 	LDS  R23,_t_kolona_up+3
002113 93e0 0ef3 	STS  _t_kolona_up_old,R30
002115 93f0 0ef4 	STS  _t_kolona_up_old+1,R31
002117 9360 0ef5 	STS  _t_kolona_up_old+2,R22
002119 9370 0ef6 	STS  _t_kolona_up_old+3,R23
00211b e1e4      	LDI  R30,LOW(_t_rom_codes)
00211c e0fb      	LDI  R31,HIGH(_t_rom_codes)
00211d 93fa      	ST   -Y,R31
00211e 93ea      	ST   -Y,R30
00211f e0a8      	LDI  R26,LOW(8)
002120 940e 18c3 	CALL _GetTemperatureMatchRom
002122 93e0 0edf 	STS  _t_kuba,R30
002124 93f0 0ee0 	STS  _t_kuba+1,R31
002126 9360 0ee1 	STS  _t_kuba+2,R22
002128 9370 0ee2 	STS  _t_kuba+3,R23
00212a 9508      	RET
                 
                 ;OPTIMIZER ADDED SUBROUTINE, CALLED 2 TIMES, CODE SIZE REDUCTION:6 WORDS
                 SUBOPT_0x4C:
00212b e0a8      	LDI  R26,LOW(8)
00212c 940e 18c3 	CALL _GetTemperatureMatchRom
00212e 93e0 0ee7 	STS  _t_kolona_up,R30
002130 93f0 0ee8 	STS  _t_kolona_up+1,R31
002132 9360 0ee9 	STS  _t_kolona_up+2,R22
002134 9370 0eea 	STS  _t_kolona_up+3,R23
002136 9508      	RET
                 
                 ;OPTIMIZER ADDED SUBROUTINE, CALLED 2 TIMES, CODE SIZE REDUCTION:3 WORDS
                 SUBOPT_0x4D:
002137 91e0 0edf 	LDS  R30,_t_kuba
002139 91f0 0ee0 	LDS  R31,_t_kuba+1
00213b 9160 0ee1 	LDS  R22,_t_kuba+2
00213d 9170 0ee2 	LDS  R23,_t_kuba+3
00213f 9508      	RET
                 
                 ;OPTIMIZER ADDED SUBROUTINE, CALLED 5 TIMES, CODE SIZE REDUCTION:21 WORDS
                 SUBOPT_0x4E:
002140 91a0 0edf 	LDS  R26,_t_kuba
002142 91b0 0ee0 	LDS  R27,_t_kuba+1
002144 9180 0ee1 	LDS  R24,_t_kuba+2
002146 9190 0ee2 	LDS  R25,_t_kuba+3
002148 9508      	RET
                 
                 ;OPTIMIZER ADDED SUBROUTINE, CALLED 5 TIMES, CODE SIZE REDUCTION:5 WORDS
                 SUBOPT_0x4F:
002149 e0f0      	LDI  R31,0
00214a 9730      	SBIW R30,0
00214b 9508      	RET
                 
                 ;OPTIMIZER ADDED SUBROUTINE, CALLED 2 TIMES, CODE SIZE REDUCTION:3 WORDS
                 SUBOPT_0x50:
00214c 91e0 0a2e 	LDS  R30,_impulseCounter
00214e 91f0 0a2f 	LDS  R31,_impulseCounter+1
002150 df4f      	RCALL SUBOPT_0x3F
002151 cf2e      	RJMP SUBOPT_0x3A
                 
                 ;OPTIMIZER ADDED SUBROUTINE, CALLED 2 TIMES, CODE SIZE REDUCTION:5 WORDS
                 SUBOPT_0x51:
002152 940e 24c5 	CALL __MULF12
002154 93e0 0ef7 	STS  _headDisp,R30
002156 93f0 0ef8 	STS  _headDisp+1,R31
002158 9360 0ef9 	STS  _headDisp+2,R22
00215a 9370 0efa 	STS  _headDisp+3,R23
00215c 9508      	RET
                 
                 ;OPTIMIZER ADDED SUBROUTINE, CALLED 2 TIMES, CODE SIZE REDUCTION:3 WORDS
                 SUBOPT_0x52:
00215d 91a0 0ee3 	LDS  R26,_t_kolona_down
00215f 91b0 0ee4 	LDS  R27,_t_kolona_down+1
002161 9180 0ee5 	LDS  R24,_t_kolona_down+2
002163 9190 0ee6 	LDS  R25,_t_kolona_down+3
002165 9508      	RET
                 
                 ;OPTIMIZER ADDED SUBROUTINE, CALLED 2 TIMES, CODE SIZE REDUCTION:4 WORDS
                 SUBOPT_0x53:
002166 e3ec      	LDI  R30,LOW(60)
002167 940e 25d2 	CALL __MULB1W2U
002169 91a0 0a23 	LDS  R26,_timer
00216b 91b0 0a24 	LDS  R27,_timer+1
00216d 17ae      	CP   R26,R30
00216e 07bf      	CPC  R27,R31
00216f 9508      	RET
                 
                 ;OPTIMIZER ADDED SUBROUTINE, CALLED 13 TIMES, CODE SIZE REDUCTION:81 WORDS
                 SUBOPT_0x54:
002170 91e0 0af8 	LDS  R30,_current_menu
002172 eea3      	LDI  R26,LOW(_menu)
002173 e0ba      	LDI  R27,HIGH(_menu)
002174 e0f0      	LDI  R31,0
002175 940e 258c 	CALL __LSLW2
002177 9508      	RET
                 
                 ;OPTIMIZER ADDED SUBROUTINE, CALLED 7 TIMES, CODE SIZE REDUCTION:87 WORDS
                 SUBOPT_0x55:
002178 0fae      	ADD  R26,R30
002179 1fbf      	ADC  R27,R31
00217a 9612      	ADIW R26,2
00217b 940e 2665 	CALL __GETW1P
00217d 01df      	MOVW R26,R30
00217e 91e0 0af9 	LDS  R30,_current_pos
002180 e0f0      	LDI  R31,0
002181 01bd      	MOVW R22,R26
002182 e0a7      	LDI  R26,LOW(7)
002183 e0b0      	LDI  R27,HIGH(7)
002184 940e 25aa 	CALL __MULW12U
002186 01db      	MOVW R26,R22
002187 9508      	RET
                 
                 ;OPTIMIZER ADDED SUBROUTINE, CALLED 4 TIMES, CODE SIZE REDUCTION:6 WORDS
                 SUBOPT_0x56:
002188 940e 083c 	CALL _nlcd_Clear
00218a e0e1      	LDI  R30,LOW(1)
00218b 93e0 0a1f 	STS  _mode,R30
00218d 9508      	RET
                 
                 ;OPTIMIZER ADDED SUBROUTINE, CALLED 2 TIMES, CODE SIZE REDUCTION:4 WORDS
                 SUBOPT_0x57:
00218e 940e 0dc4 	CALL _StopProcess
002190 e0e0      	LDI  R30,LOW(0)
002191 bfe1      	OUT  0x31,R30
002192 e0e1      	LDI  R30,LOW(1)
002193 93e0 0a1f 	STS  _mode,R30
002195 ce7c      	RJMP SUBOPT_0x2C
                 
                 ;OPTIMIZER ADDED SUBROUTINE, CALLED 8 TIMES, CODE SIZE REDUCTION:11 WORDS
                 SUBOPT_0x58:
                +
002196 e0e0     +LDI R30 , LOW ( 0x42C80000 )
002197 e0f0     +LDI R31 , HIGH ( 0x42C80000 )
002198 ec68     +LDI R22 , BYTE3 ( 0x42C80000 )
002199 e472     +LDI R23 , BYTE4 ( 0x42C80000 )
                 	__GETD1N 0x42C80000
00219a 9508      	RET
                 
                 ;OPTIMIZER ADDED SUBROUTINE, CALLED 2 TIMES, CODE SIZE REDUCTION:4 WORDS
                 SUBOPT_0x59:
00219b 91e0 0afa 	LDS  R30,_last_menu
00219d 93e0 0af8 	STS  _current_menu,R30
00219f 91e0 0afb 	LDS  R30,_last_pos
0021a1 93e0 0af9 	STS  _current_pos,R30
0021a3 e0e1      	LDI  R30,LOW(1)
0021a4 9508      	RET
                 
                 ;OPTIMIZER ADDED SUBROUTINE, CALLED 2 TIMES, CODE SIZE REDUCTION:1 WORDS
                 SUBOPT_0x5A:
0021a5 940e 25a5 	CALL __LNEGB1
0021a7 93e0 0a20 	STS  _abortProcess,R30
0021a9 940c 083c 	JMP  _nlcd_Clear
                 
                 ;OPTIMIZER ADDED SUBROUTINE, CALLED 3 TIMES, CODE SIZE REDUCTION:1 WORDS
                 SUBOPT_0x5B:
0021ab 0fae      	ADD  R26,R30
0021ac 1fbf      	ADC  R27,R31
0021ad 9611      	ADIW R26,1
0021ae 91ec      	LD   R30,X
0021af 9508      	RET
                 
                 ;OPTIMIZER ADDED SUBROUTINE, CALLED 4 TIMES, CODE SIZE REDUCTION:3 WORDS
                 SUBOPT_0x5C:
0021b0 91e0 0f0d 	LDS  R30,_distSettingMode
0021b2 cf96      	RJMP SUBOPT_0x4F
                 
                 ;OPTIMIZER ADDED SUBROUTINE, CALLED 4 TIMES, CODE SIZE REDUCTION:3 WORDS
                 SUBOPT_0x5D:
0021b3 93e0 0a2b 	STS  _heater_power,R30
0021b5 91a0 0a2b 	LDS  R26,_heater_power
0021b7 9508      	RET
                 
                 ;OPTIMIZER ADDED SUBROUTINE, CALLED 2 TIMES, CODE SIZE REDUCTION:3 WORDS
                 SUBOPT_0x5E:
0021b8 deb9      	RCALL SUBOPT_0x38
                +
0021b9 e0e0     +LDI R30 , LOW ( 0x44FA0000 )
0021ba e0f0     +LDI R31 , HIGH ( 0x44FA0000 )
0021bb ef6a     +LDI R22 , BYTE3 ( 0x44FA0000 )
0021bc e474     +LDI R23 , BYTE4 ( 0x44FA0000 )
                 	__GETD1N 0x44FA0000
0021bd 940e 2558 	CALL __CMPF12
0021bf 9508      	RET
                 
                 ;OPTIMIZER ADDED SUBROUTINE, CALLED 2 TIMES, CODE SIZE REDUCTION:1 WORDS
                 SUBOPT_0x5F:
0021c0 de37      	RCALL SUBOPT_0x28
                +
0021c1 e0a0     +LDI R26 , LOW ( 0x42B40000 )
0021c2 e0b0     +LDI R27 , HIGH ( 0x42B40000 )
0021c3 eb84     +LDI R24 , BYTE3 ( 0x42B40000 )
0021c4 e492     +LDI R25 , BYTE4 ( 0x42B40000 )
                 	__GETD2N 0x42B40000
0021c5 9508      	RET
                 
                 ;OPTIMIZER ADDED SUBROUTINE, CALLED 3 TIMES, CODE SIZE REDUCTION:5 WORDS
                 SUBOPT_0x60:
0021c6 01fe      	MOVW R30,R28
0021c7 9636      	ADIW R30,6
0021c8 93fa      	ST   -Y,R31
0021c9 93ea      	ST   -Y,R30
0021ca cfa5      	RJMP SUBOPT_0x54
                 
                 ;OPTIMIZER ADDED SUBROUTINE, CALLED 2 TIMES, CODE SIZE REDUCTION:15 WORDS
                 SUBOPT_0x61:
0021cb 0fae      	ADD  R26,R30
0021cc 1fbf      	ADC  R27,R31
0021cd 9616      	ADIW R26,6
0021ce 91ec      	LD   R30,X
0021cf e0a7      	LDI  R26,LOW(7)
0021d0 9fea      	MUL  R30,R26
0021d1 01f0      	MOVW R30,R0
                +
0021d2 91a0 0ae5+LDS R26 , _menu + ( 2 )
0021d4 91b0 0ae6+LDS R27 , _menu + ( 2 ) + 1
                 	__GETW2MN _menu,2
0021d6 0fae      	ADD  R26,R30
0021d7 1fbf      	ADC  R27,R31
0021d8 940e 2665 	CALL __GETW1P
0021da 01df      	MOVW R26,R30
0021db 940e 19fd 	CALL _strcpyf
0021dd ce68      	RJMP SUBOPT_0x32
                 
                 ;OPTIMIZER ADDED SUBROUTINE, CALLED 3 TIMES, CODE SIZE REDUCTION:9 WORDS
                 SUBOPT_0x62:
0021de 93fa      	ST   -Y,R31
0021df 93ea      	ST   -Y,R30
0021e0 01fe      	MOVW R30,R28
0021e1 963a      	ADIW R30,10
0021e2 2766      	CLR  R22
0021e3 2777      	CLR  R23
0021e4 ceeb      	RJMP SUBOPT_0x45
                 
                 ;OPTIMIZER ADDED SUBROUTINE, CALLED 6 TIMES, CODE SIZE REDUCTION:17 WORDS
                 SUBOPT_0x63:
0021e5 e0ab      	LDI  R26,LOW(_buf)
0021e6 e0ba      	LDI  R27,HIGH(_buf)
0021e7 940e 1a0a 	CALL _strlen
0021e9 95f6      	LSR  R31
0021ea 95e7      	ROR  R30
0021eb 9508      	RET
                 
                 ;OPTIMIZER ADDED SUBROUTINE, CALLED 4 TIMES, CODE SIZE REDUCTION:3 WORDS
                 SUBOPT_0x64:
0021ec 940e 090f 	CALL _nlcd_GotoXY
0021ee ccde      	RJMP SUBOPT_0x9
                 
                 ;OPTIMIZER ADDED SUBROUTINE, CALLED 3 TIMES, CODE SIZE REDUCTION:9 WORDS
                 SUBOPT_0x65:
0021ef e0b0      	LDI  R27,0
0021f0 e0f0      	LDI  R31,0
0021f1 fde7      	SBRC R30,7
0021f2 efff      	SER  R31
0021f3 17ea      	CP   R30,R26
0021f4 07fb      	CPC  R31,R27
0021f5 9508      	RET
                 
                 ;OPTIMIZER ADDED SUBROUTINE, CALLED 2 TIMES, CODE SIZE REDUCTION:3 WORDS
                 SUBOPT_0x66:
0021f6 91a0 0af9 	LDS  R26,_current_pos
0021f8 27bb      	CLR  R27
0021f9 2fe5      	MOV  R30,R21
0021fa e0f0      	LDI  R31,0
0021fb fde7      	SBRC R30,7
0021fc efff      	SER  R31
0021fd 9731      	SBIW R30,1
0021fe 9508      	RET
                 
                 ;OPTIMIZER ADDED SUBROUTINE, CALLED 4 TIMES, CODE SIZE REDUCTION:6 WORDS
                 SUBOPT_0x67:
0021ff 91e0 0af9 	LDS  R30,_current_pos
002201 e0f0      	LDI  R31,0
002202 9508      	RET
                 
                 ;OPTIMIZER ADDED SUBROUTINE, CALLED 2 TIMES, CODE SIZE REDUCTION:3 WORDS
                 SUBOPT_0x68:
002203 0fae      	ADD  R26,R30
002204 1fbf      	ADC  R27,R31
002205 9612      	ADIW R26,2
002206 940e 2665 	CALL __GETW1P
002208 01df      	MOVW R26,R30
002209 cce8      	RJMP SUBOPT_0x10
                 
                 ;OPTIMIZER ADDED SUBROUTINE, CALLED 2 TIMES, CODE SIZE REDUCTION:10 WORDS
                 SUBOPT_0x69:
00220a 01bd      	MOVW R22,R26
00220b e0a7      	LDI  R26,LOW(7)
00220c e0b0      	LDI  R27,HIGH(7)
00220d 940e 25aa 	CALL __MULW12U
00220f 01db      	MOVW R26,R22
002210 0fae      	ADD  R26,R30
002211 1fbf      	ADC  R27,R31
002212 940e 2665 	CALL __GETW1P
002214 01df      	MOVW R26,R30
002215 940e 19fd 	CALL _strcpyf
002217 ce2e      	RJMP SUBOPT_0x32
                 
                 ;OPTIMIZER ADDED SUBROUTINE, CALLED 22 TIMES, CODE SIZE REDUCTION:60 WORDS
                 SUBOPT_0x6A:
002218 91e0 0a5b 	LDS  R30,_param_id
00221a e0a9      	LDI  R26,LOW(9)
00221b 9fea      	MUL  R30,R26
00221c 01f0      	MOVW R30,R0
00221d 9508      	RET
                 
                 ;OPTIMIZER ADDED SUBROUTINE, CALLED 3 TIMES, CODE SIZE REDUCTION:1 WORDS
                 SUBOPT_0x6B:
00221e 940e 2665 	CALL __GETW1P
002220 17e6      	CP   R30,R22
002221 07f7      	CPC  R31,R23
002222 9508      	RET
                 
                 ;OPTIMIZER ADDED SUBROUTINE, CALLED 5 TIMES, CODE SIZE REDUCTION:5 WORDS
                 SUBOPT_0x6C:
002223 01df      	MOVW R26,R30
002224 5ae4      	SUBI R30,LOW(-_params)
002225 4ff5      	SBCI R31,HIGH(-_params)
002226 01bf      	MOVW R22,R30
002227 9508      	RET
                 
                 ;OPTIMIZER ADDED SUBROUTINE, CALLED 2 TIMES, CODE SIZE REDUCTION:2 WORDS
                 SUBOPT_0x6D:
                +
002228 5aa2     +SUBI R26 , LOW ( - _params - ( 2 ) )
002229 4fb5     +SBCI R27 , HIGH ( - _params - ( 2 ) )
                 	__ADDW2MN _params,2
00222a 940e 2665 	CALL __GETW1P
00222c 01db      	MOVW R26,R22
00222d 93ed      	ST   X+,R30
00222e 93fc      	ST   X,R31
00222f 9508      	RET
                 
                 ;OPTIMIZER ADDED SUBROUTINE, CALLED 3 TIMES, CODE SIZE REDUCTION:3 WORDS
                 SUBOPT_0x6E:
002230 01df      	MOVW R26,R30
002231 5ae4      	SUBI R30,LOW(-_params)
002232 4ff5      	SBCI R31,HIGH(-_params)
002233 8160      	LD   R22,Z
002234 8171      	LDD  R23,Z+1
002235 9508      	RET
                 
                 ;OPTIMIZER ADDED SUBROUTINE, CALLED 3 TIMES, CODE SIZE REDUCTION:3 WORDS
                 SUBOPT_0x6F:
002236 5ae4      	SUBI R30,LOW(-_params)
002237 4ff5      	SBCI R31,HIGH(-_params)
002238 01df      	MOVW R26,R30
002239 91ed      	LD   R30,X+
00223a 91fd      	LD   R31,X+
00223b 9508      	RET
                 
                 ;OPTIMIZER ADDED SUBROUTINE, CALLED 2 TIMES, CODE SIZE REDUCTION:2 WORDS
                 SUBOPT_0x70:
                +
00223c 5aa0     +SUBI R26 , LOW ( - _params - ( 4 ) )
00223d 4fb5     +SBCI R27 , HIGH ( - _params - ( 4 ) )
                 	__ADDW2MN _params,4
00223e 940e 2665 	CALL __GETW1P
002240 01db      	MOVW R26,R22
002241 93ed      	ST   X+,R30
002242 93fc      	ST   X,R31
002243 9508      	RET
                 
                 ;OPTIMIZER ADDED SUBROUTINE, CALLED 3 TIMES, CODE SIZE REDUCTION:1 WORDS
                 SUBOPT_0x71:
002244 93e0 0a1f 	STS  _mode,R30
002246 940c 083c 	JMP  _nlcd_Clear
                 
                 ;OPTIMIZER ADDED SUBROUTINE, CALLED 3 TIMES, CODE SIZE REDUCTION:5 WORDS
                 SUBOPT_0x72:
002248 01fe      	MOVW R30,R28
002249 93fa      	ST   -Y,R31
00224a 93ea      	ST   -Y,R30
00224b cf24      	RJMP SUBOPT_0x54
                 
                 ;OPTIMIZER ADDED SUBROUTINE, CALLED 4 TIMES, CODE SIZE REDUCTION:6 WORDS
                 SUBOPT_0x73:
00224c e0a8      	LDI  R26,LOW(8)
00224d e0b0      	LDI  R27,HIGH(8)
00224e 1bae      	SUB  R26,R30
00224f 0bbf      	SBC  R27,R31
002250 93aa      	ST   -Y,R26
002251 9508      	RET
                 
                 ;OPTIMIZER ADDED SUBROUTINE, CALLED 2 TIMES, CODE SIZE REDUCTION:4 WORDS
                 SUBOPT_0x74:
002252 0fae      	ADD  R26,R30
002253 1fbf      	ADC  R27,R31
002254 940e 2665 	CALL __GETW1P
002256 01df      	MOVW R26,R30
002257 940e 19fd 	CALL _strcpyf
002259 cdec      	RJMP SUBOPT_0x32
                 
                 ;OPTIMIZER ADDED SUBROUTINE, CALLED 4 TIMES, CODE SIZE REDUCTION:9 WORDS
                 SUBOPT_0x75:
00225a 01fe      	MOVW R30,R28
00225b 93fa      	ST   -Y,R31
00225c 93ea      	ST   -Y,R30
00225d cfba      	RJMP SUBOPT_0x6A
                 
                 ;OPTIMIZER ADDED SUBROUTINE, CALLED 3 TIMES, CODE SIZE REDUCTION:27 WORDS
                 SUBOPT_0x76:
                +
00225e 59ee     +SUBI R30 , LOW ( - _params - ( 6 ) )
00225f 4ff5     +SBCI R31 , HIGH ( - _params - ( 6 ) )
                 	__ADDW1MN _params,6
002260 01df      	MOVW R26,R30
002261 940e 2665 	CALL __GETW1P
002263 e9a0      	LDI  R26,LOW(_labels*2)
002264 e0b0      	LDI  R27,HIGH(_labels*2)
002265 0fee      	LSL  R30
002266 1fff      	ROL  R31
002267 0fea      	ADD  R30,R26
002268 1ffb      	ADC  R31,R27
002269 940e 266f 	CALL __GETW2PF
00226b 940e 19fd 	CALL _strcpyf
00226d cdd8      	RJMP SUBOPT_0x32
                 
                 ;OPTIMIZER ADDED SUBROUTINE, CALLED 3 TIMES, CODE SIZE REDUCTION:1 WORDS
                 SUBOPT_0x77:
00226e 93fa      	ST   -Y,R31
00226f 93ea      	ST   -Y,R30
002270 cfa7      	RJMP SUBOPT_0x6A
                 
                 ;OPTIMIZER ADDED SUBROUTINE, CALLED 2 TIMES, CODE SIZE REDUCTION:4 WORDS
                 SUBOPT_0x78:
002271 5ae4      	SUBI R30,LOW(-_params)
002272 4ff5      	SBCI R31,HIGH(-_params)
002273 01df      	MOVW R26,R30
002274 940e 2665 	CALL __GETW1P
002276 de29      	RCALL SUBOPT_0x3F
002277 01df      	MOVW R26,R30
002278 01cb      	MOVW R24,R22
002279 9508      	RET
                 
                 ;OPTIMIZER ADDED SUBROUTINE, CALLED 4 TIMES, CODE SIZE REDUCTION:3 WORDS
                 SUBOPT_0x79:
                +
00227a e0e0     +LDI R30 , LOW ( 0x461C4000 )
00227b e4f0     +LDI R31 , HIGH ( 0x461C4000 )
00227c e16c     +LDI R22 , BYTE3 ( 0x461C4000 )
00227d e476     +LDI R23 , BYTE4 ( 0x461C4000 )
                 	__GETD1N 0x461C4000
00227e 9508      	RET
                 
                 ;OPTIMIZER ADDED SUBROUTINE, CALLED 2 TIMES, CODE SIZE REDUCTION:1 WORDS
                 SUBOPT_0x7A:
00227f 940e 2513 	CALL __DIVF21
002281 940e 2681 	CALL __PUTPARD1
002283 cd6d      	RJMP SUBOPT_0x27
                 
                 ;OPTIMIZER ADDED SUBROUTINE, CALLED 3 TIMES, CODE SIZE REDUCTION:3 WORDS
                 SUBOPT_0x7B:
002284 5ae4      	SUBI R30,LOW(-_params)
002285 4ff5      	SBCI R31,HIGH(-_params)
002286 01df      	MOVW R26,R30
002287 940e 2665 	CALL __GETW1P
002289 9508      	RET
                 
                 ;OPTIMIZER ADDED SUBROUTINE, CALLED 5 TIMES, CODE SIZE REDUCTION:21 WORDS
                 SUBOPT_0x7C:
00228a de15      	RCALL SUBOPT_0x3F
00228b 01df      	MOVW R26,R30
00228c 01cb      	MOVW R24,R22
00228d df08      	RCALL SUBOPT_0x58
00228e 940e 2513 	CALL __DIVF21
002290 9508      	RET
                 
                 ;OPTIMIZER ADDED SUBROUTINE, CALLED 2 TIMES, CODE SIZE REDUCTION:7 WORDS
                 SUBOPT_0x7D:
                +
002291 91e0 0ada+LDS R30 , _params + ( 126 )
002293 91f0 0adb+LDS R31 , _params + ( 126 ) + 1
                 	__GETW1MN _params,126
002295 de0a      	RCALL SUBOPT_0x3F
002296 01df      	MOVW R26,R30
002297 01cb      	MOVW R24,R22
002298 dfe1      	RCALL SUBOPT_0x79
002299 ce12      	RJMP SUBOPT_0x41
                 
                 ;OPTIMIZER ADDED SUBROUTINE, CALLED 2 TIMES, CODE SIZE REDUCTION:3 WORDS
                 SUBOPT_0x7E:
00229a 85a8      	LDD  R26,Y+8
00229b 85b9      	LDD  R27,Y+8+1
00229c 2e0a      	MOV  R0,R26
00229d 91ac      	LD   R26,X
00229e 2fe3      	MOV  R30,R19
00229f 95e0      	COM  R30
0022a0 23ea      	AND  R30,R26
0022a1 2da0      	MOV  R26,R0
0022a2 9508      	RET
                 
                 ;OPTIMIZER ADDED SUBROUTINE, CALLED 5 TIMES, CODE SIZE REDUCTION:9 WORDS
                 SUBOPT_0x7F:
0022a3 85e8      	LDD  R30,Y+8
0022a4 85f9      	LDD  R31,Y+8+1
0022a5 9631      	ADIW R30,1
0022a6 87e8      	STD  Y+8,R30
0022a7 87f9      	STD  Y+8+1,R31
0022a8 9508      	RET
                 
                 ;OPTIMIZER ADDED SUBROUTINE, CALLED 3 TIMES, CODE SIZE REDUCTION:1 WORDS
                 SUBOPT_0x80:
0022a9 85ad      	LDD  R26,Y+13
0022aa 85be      	LDD  R27,Y+13+1
0022ab 940e 258a 	CALL __LSLW3
0022ad 9508      	RET
                 
                 ;OPTIMIZER ADDED SUBROUTINE, CALLED 3 TIMES, CODE SIZE REDUCTION:1 WORDS
                 SUBOPT_0x81:
                +
0022ae 87ed     +STD Y + 13 , R30
0022af 87fe     +STD Y + 13 + 1 , R31
0022b0 876f     +STD Y + 13 + 2 , R22
0022b1 8b78     +STD Y + 13 + 3 , R23
                 	__PUTD1S 13
0022b2 9508      	RET
                 
                 ;OPTIMIZER ADDED SUBROUTINE, CALLED 2 TIMES, CODE SIZE REDUCTION:5 WORDS
                 SUBOPT_0x82:
0022b3 85ad      	LDD  R26,Y+13
0022b4 940e 19c6 	CALL _OWI_DetectPresence
0022b6 85ee      	LDD  R30,Y+14
0022b7 85ff      	LDD  R31,Y+14+1
0022b8 93fa      	ST   -Y,R31
0022b9 93ea      	ST   -Y,R30
0022ba 85af      	LDD  R26,Y+15
0022bb 940c 17e8 	JMP  _OWI_MatchRom
                 
                 ;OPTIMIZER ADDED SUBROUTINE, CALLED 5 TIMES, CODE SIZE REDUCTION:5 WORDS
                 SUBOPT_0x83:
0022bd 93ea      	ST   -Y,R30
0022be 85ae      	LDD  R26,Y+14
0022bf 940c 17b8 	JMP  _OWI_SendByte
                 
                 ;OPTIMIZER ADDED SUBROUTINE, CALLED 5 TIMES, CODE SIZE REDUCTION:9 WORDS
                 SUBOPT_0x84:
0022c1 95e0      	COM  R30
0022c2 23ea      	AND  R30,R26
0022c3 bbe1      	OUT  0x11,R30
0022c4 b3e2      	IN   R30,0x12
0022c5 2fae      	MOV  R26,R30
0022c6 9508      	RET
                 
                 ;OPTIMIZER ADDED SUBROUTINE, CALLED 2 TIMES, CODE SIZE REDUCTION:2 WORDS
                 SUBOPT_0x85:
0022c7 95e0      	COM  R30
0022c8 23ea      	AND  R30,R26
0022c9 bbe2      	OUT  0x12,R30
                +
0022ca e482     +LDI R24 , LOW ( 1858 )
0022cb e097     +LDI R25 , HIGH ( 1858 )
                +__DELAY_USW_LOOP :
0022cc 9701     +SBIW R24 , 1
0022cd f7f1     +BRNE __DELAY_USW_LOOP
                 	__DELAY_USW 1858
0022ce 9508      	RET
                 
                 ;OPTIMIZER ADDED SUBROUTINE, CALLED 2 TIMES, CODE SIZE REDUCTION:5 WORDS
                 SUBOPT_0x86:
0022cf b3e1      	IN   R30,0x11
0022d0 81a9      	LDD  R26,Y+1
0022d1 2bea      	OR   R30,R26
0022d2 bbe1      	OUT  0x11,R30
0022d3 b3e2      	IN   R30,0x12
0022d4 2fae      	MOV  R26,R30
0022d5 81e9      	LDD  R30,Y+1
0022d6 95e0      	COM  R30
0022d7 23ea      	AND  R30,R26
0022d8 bbe2      	OUT  0x12,R30
0022d9 9508      	RET
                 
                 ;OPTIMIZER ADDED SUBROUTINE, CALLED 2 TIMES, CODE SIZE REDUCTION:2 WORDS
                 SUBOPT_0x87:
0022da b3e1      	IN   R30,0x11
0022db 81aa      	LDD  R26,Y+2
0022dc 2bea      	OR   R30,R26
0022dd bbe1      	OUT  0x11,R30
0022de b3e2      	IN   R30,0x12
0022df 2fae      	MOV  R26,R30
0022e0 81ea      	LDD  R30,Y+2
0022e1 9508      	RET
                 
                 ;OPTIMIZER ADDED SUBROUTINE, CALLED 2 TIMES, CODE SIZE REDUCTION:2 WORDS
                 SUBOPT_0x88:
0022e2 93ba      	ST   -Y,R27
0022e3 93aa      	ST   -Y,R26
0022e4 9724      	SBIW R28,4
0022e5 e0e0      	LDI  R30,LOW(0)
0022e6 83e8      	ST   Y,R30
0022e7 83e9      	STD  Y+1,R30
0022e8 9508      	RET
                 
                 ;OPTIMIZER ADDED SUBROUTINE, CALLED 4 TIMES, CODE SIZE REDUCTION:33 WORDS
                 SUBOPT_0x89:
                +
0022e9 81ac     +LDD R26 , Y + 4
0022ea 81bd     +LDD R27 , Y + 4 + 1
0022eb 818e     +LDD R24 , Y + 4 + 2
0022ec 819f     +LDD R25 , Y + 4 + 3
                 	__GETD2S 4
                +
0022ed e0e0     +LDI R30 , LOW ( 0x41200000 )
0022ee e0f0     +LDI R31 , HIGH ( 0x41200000 )
0022ef e260     +LDI R22 , BYTE3 ( 0x41200000 )
0022f0 e471     +LDI R23 , BYTE4 ( 0x41200000 )
                 	__GETD1N 0x41200000
0022f1 940e 24c5 	CALL __MULF12
                +
0022f3 83ec     +STD Y + 4 , R30
0022f4 83fd     +STD Y + 4 + 1 , R31
0022f5 836e     +STD Y + 4 + 2 , R22
0022f6 837f     +STD Y + 4 + 3 , R23
                 	__PUTD1S 4
0022f7 9508      	RET
                 
                 ;OPTIMIZER ADDED SUBROUTINE, CALLED 4 TIMES, CODE SIZE REDUCTION:21 WORDS
                 SUBOPT_0x8A:
                +
0022f8 81ec     +LDD R30 , Y + 4
0022f9 81fd     +LDD R31 , Y + 4 + 1
0022fa 816e     +LDD R22 , Y + 4 + 2
0022fb 817f     +LDD R23 , Y + 4 + 3
                 	__GETD1S 4
                +
0022fc 85ac     +LDD R26 , Y + 12
0022fd 85bd     +LDD R27 , Y + 12 + 1
0022fe 858e     +LDD R24 , Y + 12 + 2
0022ff 859f     +LDD R25 , Y + 12 + 3
                 	__GETD2S 12
002300 940e 2558 	CALL __CMPF12
002302 9508      	RET
                 
                 ;OPTIMIZER ADDED SUBROUTINE, CALLED 5 TIMES, CODE SIZE REDUCTION:5 WORDS
                 SUBOPT_0x8B:
                +
002303 85ac     +LDD R26 , Y + 12
002304 85bd     +LDD R27 , Y + 12 + 1
002305 858e     +LDD R24 , Y + 12 + 2
002306 859f     +LDD R25 , Y + 12 + 3
                 	__GETD2S 12
002307 9508      	RET
                 
                 ;OPTIMIZER ADDED SUBROUTINE, CALLED 2 TIMES, CODE SIZE REDUCTION:6 WORDS
                 SUBOPT_0x8C:
                +
002308 eced     +LDI R30 , LOW ( 0x3DCCCCCD )
002309 ecfc     +LDI R31 , HIGH ( 0x3DCCCCCD )
00230a ec6c     +LDI R22 , BYTE3 ( 0x3DCCCCCD )
00230b e37d     +LDI R23 , BYTE4 ( 0x3DCCCCCD )
                 	__GETD1N 0x3DCCCCCD
00230c 940e 24c5 	CALL __MULF12
                +
00230e 87ec     +STD Y + 12 , R30
00230f 87fd     +STD Y + 12 + 1 , R31
002310 876e     +STD Y + 12 + 2 , R22
002311 877f     +STD Y + 12 + 3 , R23
                 	__PUTD1S 12
002312 5f3f      	SUBI R19,-LOW(1)
002313 9508      	RET
                 
                 ;OPTIMIZER ADDED SUBROUTINE, CALLED 3 TIMES, CODE SIZE REDUCTION:5 WORDS
                 SUBOPT_0x8D:
                +
002314 e0e0     +LDI R30 , LOW ( 0x41200000 )
002315 e0f0     +LDI R31 , HIGH ( 0x41200000 )
002316 e260     +LDI R22 , BYTE3 ( 0x41200000 )
002317 e471     +LDI R23 , BYTE4 ( 0x41200000 )
                 	__GETD1N 0x41200000
002318 940e 24c5 	CALL __MULF12
00231a 9508      	RET
                 
                 ;OPTIMIZER ADDED SUBROUTINE, CALLED 3 TIMES, CODE SIZE REDUCTION:1 WORDS
                 SUBOPT_0x8E:
                +
00231b 87ec     +STD Y + 12 , R30
00231c 87fd     +STD Y + 12 + 1 , R31
00231d 876e     +STD Y + 12 + 2 , R22
00231e 877f     +STD Y + 12 + 3 , R23
                 	__PUTD1S 12
00231f 9508      	RET
                 
                 ;OPTIMIZER ADDED SUBROUTINE, CALLED 3 TIMES, CODE SIZE REDUCTION:5 WORDS
                 SUBOPT_0x8F:
                +
002320 e0a0     +LDI R26 , LOW ( 0x3F000000 )
002321 e0b0     +LDI R27 , HIGH ( 0x3F000000 )
002322 e080     +LDI R24 , BYTE3 ( 0x3F000000 )
002323 e39f     +LDI R25 , BYTE4 ( 0x3F000000 )
                 	__GETD2N 0x3F000000
002324 940e 2475 	CALL __ADDF12
002326 9508      	RET
                 
                 ;OPTIMIZER ADDED SUBROUTINE, CALLED 3 TIMES, CODE SIZE REDUCTION:5 WORDS
                 SUBOPT_0x90:
                +
002327 eced     +LDI R30 , LOW ( 0x3DCCCCCD )
002328 ecfc     +LDI R31 , HIGH ( 0x3DCCCCCD )
002329 ec6c     +LDI R22 , BYTE3 ( 0x3DCCCCCD )
00232a e37d     +LDI R23 , BYTE4 ( 0x3DCCCCCD )
                 	__GETD1N 0x3DCCCCCD
00232b 940e 24c5 	CALL __MULF12
00232d 9508      	RET
                 
                 ;OPTIMIZER ADDED SUBROUTINE, CALLED 2 TIMES, CODE SIZE REDUCTION:1 WORDS
                 SUBOPT_0x91:
00232e 85a8      	LDD  R26,Y+8
00232f 85b9      	LDD  R27,Y+8+1
002330 9611      	ADIW R26,1
002331 87a8      	STD  Y+8,R26
002332 87b9      	STD  Y+8+1,R27
002333 9711      	SBIW R26,1
002334 9508      	RET
                 
                 ;OPTIMIZER ADDED SUBROUTINE, CALLED 3 TIMES, CODE SIZE REDUCTION:1 WORDS
                 SUBOPT_0x92:
002335 2fe0      	MOV  R30,R16
002336 5de0      	SUBI R30,-LOW(48)
002337 93ec      	ST   X,R30
002338 2fe0      	MOV  R30,R16
002339 9508      	RET
                 
                 ;OPTIMIZER ADDED SUBROUTINE, CALLED 5 TIMES, CODE SIZE REDUCTION:13 WORDS
                 SUBOPT_0x93:
00233a 932a      	ST   -Y,R18
00233b 81af      	LDD  R26,Y+7
00233c 85b8      	LDD  R27,Y+7+1
00233d 85e9      	LDD  R30,Y+9
00233e 85fa      	LDD  R31,Y+9+1
00233f 9509      	ICALL
002340 9508      	RET
                 
                 ;OPTIMIZER ADDED SUBROUTINE, CALLED 8 TIMES, CODE SIZE REDUCTION:25 WORDS
                 SUBOPT_0x94:
                +
002341 01fe     +MOVW R30 , R28
002342 5ae6     +SUBI R30 , LOW ( - 90 )
002343 4fff     +SBCI R31 , HIGH ( - 90 )
002344 9001     +LD R0 , Z +
002345 81f0     +LD R31 , Z
002346 2de0     +MOV R30 , R0
                 	__GETW1SX 90
002347 9508      	RET
                 
                 ;OPTIMIZER ADDED SUBROUTINE, CALLED 7 TIMES, CODE SIZE REDUCTION:21 WORDS
                 SUBOPT_0x95:
002348 9734      	SBIW R30,4
                +
002349 01de     +MOVW R26 , R28
00234a 5aa6     +SUBI R26 , LOW ( - 90 )
00234b 4fbf     +SBCI R27 , HIGH ( - 90 )
00234c 93ed     +ST X + , R30
00234d 93fc     +ST X , R31
                 	__PUTW1SX 90
00234e 9508      	RET
                 
                 ;OPTIMIZER ADDED SUBROUTINE, CALLED 4 TIMES, CODE SIZE REDUCTION:6 WORDS
                 SUBOPT_0x96:
00234f 81af      	LDD  R26,Y+7
002350 85b8      	LDD  R27,Y+7+1
002351 85e9      	LDD  R30,Y+9
002352 85fa      	LDD  R31,Y+9+1
002353 9509      	ICALL
002354 9508      	RET
                 
                 ;OPTIMIZER ADDED SUBROUTINE, CALLED 6 TIMES, CODE SIZE REDUCTION:17 WORDS
                 SUBOPT_0x97:
                +
002355 01de     +MOVW R26 , R28
002356 5aa6     +SUBI R26 , LOW ( - 90 )
002357 4fbf     +SBCI R27 , HIGH ( - 90 )
002358 900d     +LD R0 , X +
002359 91bc     +LD R27 , X
00235a 2da0     +MOV R26 , R0
                 	__GETW2SX 90
00235b 9508      	RET
                 
                 ;OPTIMIZER ADDED SUBROUTINE, CALLED 4 TIMES, CODE SIZE REDUCTION:3 WORDS
                 SUBOPT_0x98:
                +
00235c 87ea     +STD Y + 10 , R30
00235d 87fb     +STD Y + 10 + 1 , R31
00235e 876c     +STD Y + 10 + 2 , R22
00235f 877d     +STD Y + 10 + 3 , R23
                 	__PUTD1S 10
002360 9508      	RET
                 
                 ;OPTIMIZER ADDED SUBROUTINE, CALLED 6 TIMES, CODE SIZE REDUCTION:7 WORDS
                 SUBOPT_0x99:
002361 dfdf      	RCALL SUBOPT_0x94
002362 cfe5      	RJMP SUBOPT_0x95
                 
                 ;OPTIMIZER ADDED SUBROUTINE, CALLED 4 TIMES, CODE SIZE REDUCTION:3 WORDS
                 SUBOPT_0x9A:
                +
002363 85ea     +LDD R30 , Y + 10
002364 85fb     +LDD R31 , Y + 10 + 1
002365 856c     +LDD R22 , Y + 10 + 2
002366 857d     +LDD R23 , Y + 10 + 3
                 	__GETD1S 10
002367 9508      	RET
                 
                 ;OPTIMIZER ADDED SUBROUTINE, CALLED 2 TIMES, CODE SIZE REDUCTION:2 WORDS
                 SUBOPT_0x9B:
002368 87ee      	STD  Y+14,R30
002369 87ff      	STD  Y+14+1,R31
00236a 85ae      	LDD  R26,Y+14
00236b 85bf      	LDD  R27,Y+14+1
00236c 940e 1a0a 	CALL _strlen
00236e 2f1e      	MOV  R17,R30
00236f 9508      	RET
                 
                 ;OPTIMIZER ADDED SUBROUTINE, CALLED 4 TIMES, CODE SIZE REDUCTION:6 WORDS
                 SUBOPT_0x9C:
002370 dfe4      	RCALL SUBOPT_0x97
002371 9614      	ADIW R26,4
002372 940e 2665 	CALL __GETW1P
002374 9508      	RET
                 
                 ;OPTIMIZER ADDED SUBROUTINE, CALLED 5 TIMES, CODE SIZE REDUCTION:5 WORDS
                 SUBOPT_0x9D:
                +
002375 8be8     +STD Y + 16 , R30
002376 8bf9     +STD Y + 16 + 1 , R31
002377 8b6a     +STD Y + 16 + 2 , R22
002378 8b7b     +STD Y + 16 + 3 , R23
                 	__PUTD1S 16
002379 9508      	RET
                 
                 ;OPTIMIZER ADDED SUBROUTINE, CALLED 2 TIMES, CODE SIZE REDUCTION:12 WORDS
                 SUBOPT_0x9E:
00237a 7f0b      	ANDI R16,LOW(251)
00237b 89ed      	LDD  R30,Y+21
00237c 93ea      	ST   -Y,R30
                +
00237d 01de     +MOVW R26 , R28
00237e 5aa9     +SUBI R26 , LOW ( - 87 )
00237f 4fbf     +SBCI R27 , HIGH ( - 87 )
002380 900d     +LD R0 , X +
002381 91bc     +LD R27 , X
002382 2da0     +MOV R26 , R0
                 	__GETW2SX 87
                +
002383 01fe     +MOVW R30 , R28
002384 5ae7     +SUBI R30 , LOW ( - 89 )
002385 4fff     +SBCI R31 , HIGH ( - 89 )
002386 9001     +LD R0 , Z +
002387 81f0     +LD R31 , Z
002388 2de0     +MOV R30 , R0
                 	__GETW1SX 89
002389 9509      	ICALL
00238a 3050      	CPI  R21,0
00238b 9508      	RET
                 
                 ;OPTIMIZER ADDED SUBROUTINE, CALLED 2 TIMES, CODE SIZE REDUCTION:3 WORDS
                 SUBOPT_0x9F:
                +
00238c 89e8     +LDD R30 , Y + 16
00238d 89f9     +LDD R31 , Y + 16 + 1
00238e 896a     +LDD R22 , Y + 16 + 2
00238f 897b     +LDD R23 , Y + 16 + 3
                 	__GETD1S 16
                +
002390 85aa     +LDD R26 , Y + 10
002391 85bb     +LDD R27 , Y + 10 + 1
002392 858c     +LDD R24 , Y + 10 + 2
002393 859d     +LDD R25 , Y + 10 + 3
                 	__GETD2S 10
002394 9508      	RET
                 
                 ;OPTIMIZER ADDED SUBROUTINE, CALLED 2 TIMES, CODE SIZE REDUCTION:1 WORDS
                 SUBOPT_0xA0:
002395 01de      	MOVW R26,R28
002396 961c      	ADIW R26,12
002397 940e 2578 	CALL __ADDW2R15
002399 940e 2665 	CALL __GETW1P
00239b 9508      	RET
                 
                 ;OPTIMIZER ADDED SUBROUTINE, CALLED 3 TIMES, CODE SIZE REDUCTION:1 WORDS
                 SUBOPT_0xA1:
00239c 81ee      	LDD  R30,Y+6
00239d 81ff      	LDD  R31,Y+6+1
00239e 93fa      	ST   -Y,R31
00239f 93ea      	ST   -Y,R30
0023a0 9508      	RET
                 
                 ;OPTIMIZER ADDED SUBROUTINE, CALLED 5 TIMES, CODE SIZE REDUCTION:5 WORDS
                 SUBOPT_0xA2:
                +
0023a1 87e9     +STD Y + 9 , R30
0023a2 87fa     +STD Y + 9 + 1 , R31
0023a3 876b     +STD Y + 9 + 2 , R22
0023a4 877c     +STD Y + 9 + 3 , R23
                 	__PUTD1S 9
0023a5 9508      	RET
                 
                 ;OPTIMIZER ADDED SUBROUTINE, CALLED 5 TIMES, CODE SIZE REDUCTION:13 WORDS
                 SUBOPT_0xA3:
0023a6 81ae      	LDD  R26,Y+6
0023a7 81bf      	LDD  R27,Y+6+1
0023a8 9611      	ADIW R26,1
0023a9 83ae      	STD  Y+6,R26
0023aa 83bf      	STD  Y+6+1,R27
0023ab 9711      	SBIW R26,1
0023ac 9508      	RET
                 
                 ;OPTIMIZER ADDED SUBROUTINE, CALLED 4 TIMES, CODE SIZE REDUCTION:3 WORDS
                 SUBOPT_0xA4:
                +
0023ad 81aa     +LDD R26 , Y + 2
0023ae 81bb     +LDD R27 , Y + 2 + 1
0023af 818c     +LDD R24 , Y + 2 + 2
0023b0 819d     +LDD R25 , Y + 2 + 3
                 	__GETD2S 2
0023b1 9508      	RET
                 
                 ;OPTIMIZER ADDED SUBROUTINE, CALLED 4 TIMES, CODE SIZE REDUCTION:3 WORDS
                 SUBOPT_0xA5:
                +
0023b2 83ea     +STD Y + 2 , R30
0023b3 83fb     +STD Y + 2 + 1 , R31
0023b4 836c     +STD Y + 2 + 2 , R22
0023b5 837d     +STD Y + 2 + 3 , R23
                 	__PUTD1S 2
0023b6 9508      	RET
                 
                 ;OPTIMIZER ADDED SUBROUTINE, CALLED 3 TIMES, CODE SIZE REDUCTION:9 WORDS
                 SUBOPT_0xA6:
                +
0023b7 81ea     +LDD R30 , Y + 2
0023b8 81fb     +LDD R31 , Y + 2 + 1
0023b9 816c     +LDD R22 , Y + 2 + 2
0023ba 817d     +LDD R23 , Y + 2 + 3
                 	__GETD1S 2
                +
0023bb 85a9     +LDD R26 , Y + 9
0023bc 85ba     +LDD R27 , Y + 9 + 1
0023bd 858b     +LDD R24 , Y + 9 + 2
0023be 859c     +LDD R25 , Y + 9 + 3
                 	__GETD2S 9
0023bf 9508      	RET
                 
                 ;OPTIMIZER ADDED SUBROUTINE, CALLED 3 TIMES, CODE SIZE REDUCTION:1 WORDS
                 SUBOPT_0xA7:
                +
0023c0 85a9     +LDD R26 , Y + 9
0023c1 85ba     +LDD R27 , Y + 9 + 1
0023c2 858b     +LDD R24 , Y + 9 + 2
0023c3 859c     +LDD R25 , Y + 9 + 3
                 	__GETD2S 9
0023c4 9508      	RET
                 
                 
                 	.CSEG
                 _delay_ms:
0023c5 9610      	adiw r26,0
0023c6 f039      	breq __delay_ms1
                 __delay_ms0:
                +
0023c7 e686     +LDI R24 , LOW ( 0xE66 )
0023c8 e09e     +LDI R25 , HIGH ( 0xE66 )
                +__DELAY_USW_LOOP :
0023c9 9701     +SBIW R24 , 1
0023ca f7f1     +BRNE __DELAY_USW_LOOP
                 	__DELAY_USW 0xE66
0023cb 95a8      	wdr
0023cc 9711      	sbiw r26,1
0023cd f7c9      	brne __delay_ms0
                 __delay_ms1:
0023ce 9508      	ret
                 
                 __ANEGF1:
0023cf 9730      	SBIW R30,0
0023d0 4060      	SBCI R22,0
0023d1 4070      	SBCI R23,0
0023d2 f009      	BREQ __ANEGF10
0023d3 5870      	SUBI R23,0x80
                 __ANEGF10:
0023d4 9508      	RET
                 
                 __ROUND_REPACK:
0023d5 2355      	TST  R21
0023d6 f442      	BRPL __REPACK
0023d7 3850      	CPI  R21,0x80
0023d8 f411      	BRNE __ROUND_REPACK0
0023d9 ffe0      	SBRS R30,0
0023da c004      	RJMP __REPACK
                 __ROUND_REPACK0:
0023db 9631      	ADIW R30,1
0023dc 1f69      	ADC  R22,R25
0023dd 1f79      	ADC  R23,R25
0023de f06b      	BRVS __REPACK1
                 
                 __REPACK:
0023df e850      	LDI  R21,0x80
0023e0 2757      	EOR  R21,R23
0023e1 f411      	BRNE __REPACK0
0023e2 935f      	PUSH R21
0023e3 c0cf      	RJMP __ZERORES
                 __REPACK0:
0023e4 3f5f      	CPI  R21,0xFF
0023e5 f031      	BREQ __REPACK1
0023e6 0f66      	LSL  R22
0023e7 0c00      	LSL  R0
0023e8 9557      	ROR  R21
0023e9 9567      	ROR  R22
0023ea 2f75      	MOV  R23,R21
0023eb 9508      	RET
                 __REPACK1:
0023ec 935f      	PUSH R21
0023ed 2000      	TST  R0
0023ee f00a      	BRMI __REPACK2
0023ef c0cf      	RJMP __MAXRES
                 __REPACK2:
0023f0 c0c8      	RJMP __MINRES
                 
                 __UNPACK:
0023f1 e850      	LDI  R21,0x80
0023f2 2e19      	MOV  R1,R25
0023f3 2215      	AND  R1,R21
0023f4 0f88      	LSL  R24
0023f5 1f99      	ROL  R25
0023f6 2795      	EOR  R25,R21
0023f7 0f55      	LSL  R21
0023f8 9587      	ROR  R24
                 
                 __UNPACK1:
0023f9 e850      	LDI  R21,0x80
0023fa 2e07      	MOV  R0,R23
0023fb 2205      	AND  R0,R21
0023fc 0f66      	LSL  R22
0023fd 1f77      	ROL  R23
0023fe 2775      	EOR  R23,R21
0023ff 0f55      	LSL  R21
002400 9567      	ROR  R22
002401 9508      	RET
                 
                 __CFD1U:
002402 9468      	SET
002403 c001      	RJMP __CFD1U0
                 __CFD1:
002404 94e8      	CLT
                 __CFD1U0:
002405 935f      	PUSH R21
002406 dff2      	RCALL __UNPACK1
002407 3870      	CPI  R23,0x80
002408 f018      	BRLO __CFD10
002409 3f7f      	CPI  R23,0xFF
00240a f408      	BRCC __CFD10
00240b c0a7      	RJMP __ZERORES
                 __CFD10:
00240c e156      	LDI  R21,22
00240d 1b57      	SUB  R21,R23
00240e f4aa      	BRPL __CFD11
00240f 9551      	NEG  R21
002410 3058      	CPI  R21,8
002411 f40e      	BRTC __CFD19
002412 3059      	CPI  R21,9
                 __CFD19:
002413 f030      	BRLO __CFD17
002414 efef      	SER  R30
002415 efff      	SER  R31
002416 ef6f      	SER  R22
002417 e77f      	LDI  R23,0x7F
002418 f977      	BLD  R23,7
002419 c01a      	RJMP __CFD15
                 __CFD17:
00241a 2777      	CLR  R23
00241b 2355      	TST  R21
00241c f0b9      	BREQ __CFD15
                 __CFD18:
00241d 0fee      	LSL  R30
00241e 1fff      	ROL  R31
00241f 1f66      	ROL  R22
002420 1f77      	ROL  R23
002421 955a      	DEC  R21
002422 f7d1      	BRNE __CFD18
002423 c010      	RJMP __CFD15
                 __CFD11:
002424 2777      	CLR  R23
                 __CFD12:
002425 3058      	CPI  R21,8
002426 f028      	BRLO __CFD13
002427 2fef      	MOV  R30,R31
002428 2ff6      	MOV  R31,R22
002429 2f67      	MOV  R22,R23
00242a 5058      	SUBI R21,8
00242b cff9      	RJMP __CFD12
                 __CFD13:
00242c 2355      	TST  R21
00242d f031      	BREQ __CFD15
                 __CFD14:
00242e 9576      	LSR  R23
00242f 9567      	ROR  R22
002430 95f7      	ROR  R31
002431 95e7      	ROR  R30
002432 955a      	DEC  R21
002433 f7d1      	BRNE __CFD14
                 __CFD15:
002434 2000      	TST  R0
002435 f40a      	BRPL __CFD16
002436 d149      	RCALL __ANEGD1
                 __CFD16:
002437 915f      	POP  R21
002438 9508      	RET
                 
                 __CDF1U:
002439 9468      	SET
00243a c001      	RJMP __CDF1U0
                 __CDF1:
00243b 94e8      	CLT
                 __CDF1U0:
00243c 9730      	SBIW R30,0
00243d 4060      	SBCI R22,0
00243e 4070      	SBCI R23,0
00243f f0b1      	BREQ __CDF10
002440 2400      	CLR  R0
002441 f026      	BRTS __CDF11
002442 2377      	TST  R23
002443 f412      	BRPL __CDF11
002444 9400      	COM  R0
002445 d13a      	RCALL __ANEGD1
                 __CDF11:
002446 2e17      	MOV  R1,R23
002447 e17e      	LDI  R23,30
002448 2011      	TST  R1
                 __CDF12:
002449 f032      	BRMI __CDF13
00244a 957a      	DEC  R23
00244b 0fee      	LSL  R30
00244c 1fff      	ROL  R31
00244d 1f66      	ROL  R22
00244e 1c11      	ROL  R1
00244f cff9      	RJMP __CDF12
                 __CDF13:
002450 2fef      	MOV  R30,R31
002451 2ff6      	MOV  R31,R22
002452 2d61      	MOV  R22,R1
002453 935f      	PUSH R21
002454 df8a      	RCALL __REPACK
002455 915f      	POP  R21
                 __CDF10:
002456 9508      	RET
                 
                 __SWAPACC:
002457 934f      	PUSH R20
002458 01af      	MOVW R20,R30
002459 01fd      	MOVW R30,R26
00245a 01da      	MOVW R26,R20
00245b 01ab      	MOVW R20,R22
00245c 01bc      	MOVW R22,R24
00245d 01ca      	MOVW R24,R20
00245e 2d40      	MOV  R20,R0
00245f 2c01      	MOV  R0,R1
002460 2e14      	MOV  R1,R20
002461 914f      	POP  R20
002462 9508      	RET
                 
                 __UADD12:
002463 0fea      	ADD  R30,R26
002464 1ffb      	ADC  R31,R27
002465 1f68      	ADC  R22,R24
002466 9508      	RET
                 
                 __NEGMAN1:
002467 95e0      	COM  R30
002468 95f0      	COM  R31
002469 9560      	COM  R22
00246a 5fef      	SUBI R30,-1
00246b 4fff      	SBCI R31,-1
00246c 4f6f      	SBCI R22,-1
00246d 9508      	RET
                 
                 __SUBF12:
00246e 935f      	PUSH R21
00246f df81      	RCALL __UNPACK
002470 3890      	CPI  R25,0x80
002471 f171      	BREQ __ADDF129
002472 e850      	LDI  R21,0x80
002473 2615      	EOR  R1,R21
                 
002474 c004      	RJMP __ADDF120
                 
                 __ADDF12:
002475 935f      	PUSH R21
002476 df7a      	RCALL __UNPACK
002477 3890      	CPI  R25,0x80
002478 f139      	BREQ __ADDF129
                 
                 __ADDF120:
002479 3870      	CPI  R23,0x80
00247a f121      	BREQ __ADDF128
                 __ADDF121:
00247b 2f57      	MOV  R21,R23
00247c 1b59      	SUB  R21,R25
00247d f12b      	BRVS __ADDF1211
00247e f412      	BRPL __ADDF122
00247f dfd7      	RCALL __SWAPACC
002480 cffa      	RJMP __ADDF121
                 __ADDF122:
002481 3158      	CPI  R21,24
002482 f018      	BRLO __ADDF123
002483 27aa      	CLR  R26
002484 27bb      	CLR  R27
002485 2788      	CLR  R24
                 __ADDF123:
002486 3058      	CPI  R21,8
002487 f028      	BRLO __ADDF124
002488 2fab      	MOV  R26,R27
002489 2fb8      	MOV  R27,R24
00248a 2788      	CLR  R24
00248b 5058      	SUBI R21,8
00248c cff9      	RJMP __ADDF123
                 __ADDF124:
00248d 2355      	TST  R21
00248e f029      	BREQ __ADDF126
                 __ADDF125:
00248f 9586      	LSR  R24
002490 95b7      	ROR  R27
002491 95a7      	ROR  R26
002492 955a      	DEC  R21
002493 f7d9      	BRNE __ADDF125
                 __ADDF126:
002494 2d50      	MOV  R21,R0
002495 2551      	EOR  R21,R1
002496 f072      	BRMI __ADDF127
002497 dfcb      	RCALL __UADD12
002498 f438      	BRCC __ADDF129
002499 9567      	ROR  R22
00249a 95f7      	ROR  R31
00249b 95e7      	ROR  R30
00249c 9573      	INC  R23
00249d f413      	BRVC __ADDF129
00249e c020      	RJMP __MAXRES
                 __ADDF128:
00249f dfb7      	RCALL __SWAPACC
                 __ADDF129:
0024a0 df3e      	RCALL __REPACK
0024a1 915f      	POP  R21
0024a2 9508      	RET
                 __ADDF1211:
0024a3 f7d8      	BRCC __ADDF128
0024a4 cffb      	RJMP __ADDF129
                 __ADDF127:
0024a5 1bea      	SUB  R30,R26
0024a6 0bfb      	SBC  R31,R27
0024a7 0b68      	SBC  R22,R24
0024a8 f051      	BREQ __ZERORES
0024a9 f410      	BRCC __ADDF1210
0024aa 9400      	COM  R0
0024ab dfbb      	RCALL __NEGMAN1
                 __ADDF1210:
0024ac 2366      	TST  R22
0024ad f392      	BRMI __ADDF129
0024ae 0fee      	LSL  R30
0024af 1fff      	ROL  R31
0024b0 1f66      	ROL  R22
0024b1 957a      	DEC  R23
0024b2 f7cb      	BRVC __ADDF1210
                 
                 __ZERORES:
0024b3 27ee      	CLR  R30
0024b4 27ff      	CLR  R31
0024b5 2766      	CLR  R22
0024b6 2777      	CLR  R23
0024b7 915f      	POP  R21
0024b8 9508      	RET
                 
                 __MINRES:
0024b9 efef      	SER  R30
0024ba efff      	SER  R31
0024bb e76f      	LDI  R22,0x7F
0024bc ef7f      	SER  R23
0024bd 915f      	POP  R21
0024be 9508      	RET
                 
                 __MAXRES:
0024bf efef      	SER  R30
0024c0 efff      	SER  R31
0024c1 e76f      	LDI  R22,0x7F
0024c2 e77f      	LDI  R23,0x7F
0024c3 915f      	POP  R21
0024c4 9508      	RET
                 
                 __MULF12:
0024c5 935f      	PUSH R21
0024c6 df2a      	RCALL __UNPACK
0024c7 3870      	CPI  R23,0x80
0024c8 f351      	BREQ __ZERORES
0024c9 3890      	CPI  R25,0x80
0024ca f341      	BREQ __ZERORES
0024cb 2401      	EOR  R0,R1
0024cc 9408      	SEC
0024cd 1f79      	ADC  R23,R25
0024ce f423      	BRVC __MULF124
0024cf f31c      	BRLT __ZERORES
                 __MULF125:
0024d0 2000      	TST  R0
0024d1 f33a      	BRMI __MINRES
0024d2 cfec      	RJMP __MAXRES
                 __MULF124:
0024d3 920f      	PUSH R0
0024d4 931f      	PUSH R17
0024d5 932f      	PUSH R18
0024d6 933f      	PUSH R19
0024d7 934f      	PUSH R20
0024d8 2711      	CLR  R17
0024d9 2722      	CLR  R18
0024da 2799      	CLR  R25
0024db 9f68      	MUL  R22,R24
0024dc 01a0      	MOVW R20,R0
0024dd 9f8f      	MUL  R24,R31
0024de 2d30      	MOV  R19,R0
0024df 0d41      	ADD  R20,R1
0024e0 1f59      	ADC  R21,R25
0024e1 9f6b      	MUL  R22,R27
0024e2 0d30      	ADD  R19,R0
0024e3 1d41      	ADC  R20,R1
0024e4 1f59      	ADC  R21,R25
0024e5 9f8e      	MUL  R24,R30
0024e6 d027      	RCALL __MULF126
0024e7 9fbf      	MUL  R27,R31
0024e8 d025      	RCALL __MULF126
0024e9 9f6a      	MUL  R22,R26
0024ea d023      	RCALL __MULF126
0024eb 9fbe      	MUL  R27,R30
0024ec d01d      	RCALL __MULF127
0024ed 9faf      	MUL  R26,R31
0024ee d01b      	RCALL __MULF127
0024ef 9fae      	MUL  R26,R30
0024f0 0d11      	ADD  R17,R1
0024f1 1f29      	ADC  R18,R25
0024f2 1f39      	ADC  R19,R25
0024f3 1f49      	ADC  R20,R25
0024f4 1f59      	ADC  R21,R25
0024f5 2fe3      	MOV  R30,R19
0024f6 2ff4      	MOV  R31,R20
0024f7 2f65      	MOV  R22,R21
0024f8 2f52      	MOV  R21,R18
0024f9 914f      	POP  R20
0024fa 913f      	POP  R19
0024fb 912f      	POP  R18
0024fc 911f      	POP  R17
0024fd 900f      	POP  R0
0024fe 2366      	TST  R22
0024ff f02a      	BRMI __MULF122
002500 0f55      	LSL  R21
002501 1fee      	ROL  R30
002502 1fff      	ROL  R31
002503 1f66      	ROL  R22
002504 c002      	RJMP __MULF123
                 __MULF122:
002505 9573      	INC  R23
002506 f24b      	BRVS __MULF125
                 __MULF123:
002507 decd      	RCALL __ROUND_REPACK
002508 915f      	POP  R21
002509 9508      	RET
                 
                 __MULF127:
00250a 0d10      	ADD  R17,R0
00250b 1d21      	ADC  R18,R1
00250c 1f39      	ADC  R19,R25
00250d c002      	RJMP __MULF128
                 __MULF126:
00250e 0d20      	ADD  R18,R0
00250f 1d31      	ADC  R19,R1
                 __MULF128:
002510 1f49      	ADC  R20,R25
002511 1f59      	ADC  R21,R25
002512 9508      	RET
                 
                 __DIVF21:
002513 935f      	PUSH R21
002514 dedc      	RCALL __UNPACK
002515 3870      	CPI  R23,0x80
002516 f421      	BRNE __DIVF210
002517 2011      	TST  R1
                 __DIVF211:
002518 f40a      	BRPL __DIVF219
002519 cf9f      	RJMP __MINRES
                 __DIVF219:
00251a cfa4      	RJMP __MAXRES
                 __DIVF210:
00251b 3890      	CPI  R25,0x80
00251c f409      	BRNE __DIVF218
                 __DIVF217:
00251d cf95      	RJMP __ZERORES
                 __DIVF218:
00251e 2401      	EOR  R0,R1
00251f 9408      	SEC
002520 0b97      	SBC  R25,R23
002521 f41b      	BRVC __DIVF216
002522 f3d4      	BRLT __DIVF217
002523 2000      	TST  R0
002524 cff3      	RJMP __DIVF211
                 __DIVF216:
002525 2f79      	MOV  R23,R25
002526 931f      	PUSH R17
002527 932f      	PUSH R18
002528 933f      	PUSH R19
002529 934f      	PUSH R20
00252a 2411      	CLR  R1
00252b 2711      	CLR  R17
00252c 2722      	CLR  R18
00252d 2733      	CLR  R19
00252e 2744      	CLR  R20
00252f 2755      	CLR  R21
002530 e290      	LDI  R25,32
                 __DIVF212:
002531 17ae      	CP   R26,R30
002532 07bf      	CPC  R27,R31
002533 0786      	CPC  R24,R22
002534 0741      	CPC  R20,R17
002535 f030      	BRLO __DIVF213
002536 1bae      	SUB  R26,R30
002537 0bbf      	SBC  R27,R31
002538 0b86      	SBC  R24,R22
002539 0b41      	SBC  R20,R17
00253a 9408      	SEC
00253b c001      	RJMP __DIVF214
                 __DIVF213:
00253c 9488      	CLC
                 __DIVF214:
00253d 1f55      	ROL  R21
00253e 1f22      	ROL  R18
00253f 1f33      	ROL  R19
002540 1c11      	ROL  R1
002541 1faa      	ROL  R26
002542 1fbb      	ROL  R27
002543 1f88      	ROL  R24
002544 1f44      	ROL  R20
002545 959a      	DEC  R25
002546 f751      	BRNE __DIVF212
002547 01f9      	MOVW R30,R18
002548 2d61      	MOV  R22,R1
002549 914f      	POP  R20
00254a 913f      	POP  R19
00254b 912f      	POP  R18
00254c 911f      	POP  R17
00254d 2366      	TST  R22
00254e f032      	BRMI __DIVF215
00254f 0f55      	LSL  R21
002550 1fee      	ROL  R30
002551 1fff      	ROL  R31
002552 1f66      	ROL  R22
002553 957a      	DEC  R23
002554 f243      	BRVS __DIVF217
                 __DIVF215:
002555 de7f      	RCALL __ROUND_REPACK
002556 915f      	POP  R21
002557 9508      	RET
                 
                 __CMPF12:
002558 2399      	TST  R25
002559 f09a      	BRMI __CMPF120
00255a 2377      	TST  R23
00255b f042      	BRMI __CMPF121
00255c 1797      	CP   R25,R23
00255d f048      	BRLO __CMPF122
00255e f429      	BRNE __CMPF121
00255f 17ae      	CP   R26,R30
002560 07bf      	CPC  R27,R31
002561 0786      	CPC  R24,R22
002562 f020      	BRLO __CMPF122
002563 f031      	BREQ __CMPF123
                 __CMPF121:
002564 9498      	CLZ
002565 9488      	CLC
002566 9508      	RET
                 __CMPF122:
002567 9498      	CLZ
002568 9408      	SEC
002569 9508      	RET
                 __CMPF123:
00256a 9418      	SEZ
00256b 9488      	CLC
00256c 9508      	RET
                 __CMPF120:
00256d 2377      	TST  R23
00256e f7c2      	BRPL __CMPF122
00256f 1797      	CP   R25,R23
002570 f398      	BRLO __CMPF121
002571 f7a9      	BRNE __CMPF122
002572 17ea      	CP   R30,R26
002573 07fb      	CPC  R31,R27
002574 0768      	CPC  R22,R24
002575 f388      	BRLO __CMPF122
002576 f399      	BREQ __CMPF123
002577 cfec      	RJMP __CMPF121
                 
                 __ADDW2R15:
002578 2400      	CLR  R0
002579 0daf      	ADD  R26,R15
00257a 1db0      	ADC  R27,R0
00257b 9508      	RET
                 
                 __ANEGW1:
00257c 95f1      	NEG  R31
00257d 95e1      	NEG  R30
00257e 40f0      	SBCI R31,0
00257f 9508      	RET
                 
                 __ANEGD1:
002580 95f0      	COM  R31
002581 9560      	COM  R22
002582 9570      	COM  R23
002583 95e1      	NEG  R30
002584 4fff      	SBCI R31,-1
002585 4f6f      	SBCI R22,-1
002586 4f7f      	SBCI R23,-1
002587 9508      	RET
                 
                 __LSLW4:
002588 0fee      	LSL  R30
002589 1fff      	ROL  R31
                 __LSLW3:
00258a 0fee      	LSL  R30
00258b 1fff      	ROL  R31
                 __LSLW2:
00258c 0fee      	LSL  R30
00258d 1fff      	ROL  R31
00258e 0fee      	LSL  R30
00258f 1fff      	ROL  R31
002590 9508      	RET
                 
                 __ASRW4:
002591 95f5      	ASR  R31
002592 95e7      	ROR  R30
                 __ASRW3:
002593 95f5      	ASR  R31
002594 95e7      	ROR  R30
                 __ASRW2:
002595 95f5      	ASR  R31
002596 95e7      	ROR  R30
002597 95f5      	ASR  R31
002598 95e7      	ROR  R30
002599 9508      	RET
                 
                 __CBD1:
00259a 2ffe      	MOV  R31,R30
00259b 0fff      	ADD  R31,R31
00259c 0bff      	SBC  R31,R31
00259d 2f6f      	MOV  R22,R31
00259e 2f7f      	MOV  R23,R31
00259f 9508      	RET
                 
                 __CWD1:
0025a0 2f6f      	MOV  R22,R31
0025a1 0f66      	ADD  R22,R22
0025a2 0b66      	SBC  R22,R22
0025a3 2f76      	MOV  R23,R22
0025a4 9508      	RET
                 
                 __LNEGB1:
0025a5 23ee      	TST  R30
0025a6 e0e1      	LDI  R30,1
0025a7 f009      	BREQ __LNEGB1F
0025a8 27ee      	CLR  R30
                 __LNEGB1F:
0025a9 9508      	RET
                 
                 __MULW12U:
0025aa 9ffa      	MUL  R31,R26
0025ab 2df0      	MOV  R31,R0
0025ac 9feb      	MUL  R30,R27
0025ad 0df0      	ADD  R31,R0
0025ae 9fea      	MUL  R30,R26
0025af 2de0      	MOV  R30,R0
0025b0 0df1      	ADD  R31,R1
0025b1 9508      	RET
                 
                 __MULD12U:
0025b2 9f7a      	MUL  R23,R26
0025b3 2d70      	MOV  R23,R0
0025b4 9f6b      	MUL  R22,R27
0025b5 0d70      	ADD  R23,R0
0025b6 9ff8      	MUL  R31,R24
0025b7 0d70      	ADD  R23,R0
0025b8 9fe9      	MUL  R30,R25
0025b9 0d70      	ADD  R23,R0
0025ba 9f6a      	MUL  R22,R26
0025bb 2d60      	MOV  R22,R0
0025bc 0d71      	ADD  R23,R1
0025bd 9ffb      	MUL  R31,R27
0025be 0d60      	ADD  R22,R0
0025bf 1d71      	ADC  R23,R1
0025c0 9fe8      	MUL  R30,R24
0025c1 0d60      	ADD  R22,R0
0025c2 1d71      	ADC  R23,R1
0025c3 2788      	CLR  R24
0025c4 9ffa      	MUL  R31,R26
0025c5 2df0      	MOV  R31,R0
0025c6 0d61      	ADD  R22,R1
0025c7 1f78      	ADC  R23,R24
0025c8 9feb      	MUL  R30,R27
0025c9 0df0      	ADD  R31,R0
0025ca 1d61      	ADC  R22,R1
0025cb 1f78      	ADC  R23,R24
0025cc 9fea      	MUL  R30,R26
0025cd 2de0      	MOV  R30,R0
0025ce 0df1      	ADD  R31,R1
0025cf 1f68      	ADC  R22,R24
0025d0 1f78      	ADC  R23,R24
0025d1 9508      	RET
                 
                 __MULB1W2U:
0025d2 2f6e      	MOV  R22,R30
0025d3 9f6a      	MUL  R22,R26
0025d4 01f0      	MOVW R30,R0
0025d5 9f6b      	MUL  R22,R27
0025d6 0df0      	ADD  R31,R0
0025d7 9508      	RET
                 
                 __MULD12:
0025d8 d079      	RCALL __CHKSIGND
0025d9 dfd8      	RCALL __MULD12U
0025da f40e      	BRTC __MULD121
0025db dfa4      	RCALL __ANEGD1
                 __MULD121:
0025dc 9508      	RET
                 
                 __DIVB21U:
0025dd 2400      	CLR  R0
0025de e098      	LDI  R25,8
                 __DIVB21U1:
0025df 0faa      	LSL  R26
0025e0 1c00      	ROL  R0
0025e1 1a0e      	SUB  R0,R30
0025e2 f410      	BRCC __DIVB21U2
0025e3 0e0e      	ADD  R0,R30
0025e4 c001      	RJMP __DIVB21U3
                 __DIVB21U2:
0025e5 60a1      	SBR  R26,1
                 __DIVB21U3:
0025e6 959a      	DEC  R25
0025e7 f7b9      	BRNE __DIVB21U1
0025e8 2fea      	MOV  R30,R26
0025e9 2da0      	MOV  R26,R0
0025ea 9508      	RET
                 
                 __DIVB21:
0025eb d05a      	RCALL __CHKSIGNB
0025ec dff0      	RCALL __DIVB21U
0025ed f40e      	BRTC __DIVB211
0025ee 95e1      	NEG  R30
                 __DIVB211:
0025ef 9508      	RET
                 
                 __DIVW21U:
0025f0 2400      	CLR  R0
0025f1 2411      	CLR  R1
0025f2 e190      	LDI  R25,16
                 __DIVW21U1:
0025f3 0faa      	LSL  R26
0025f4 1fbb      	ROL  R27
0025f5 1c00      	ROL  R0
0025f6 1c11      	ROL  R1
0025f7 1a0e      	SUB  R0,R30
0025f8 0a1f      	SBC  R1,R31
0025f9 f418      	BRCC __DIVW21U2
0025fa 0e0e      	ADD  R0,R30
0025fb 1e1f      	ADC  R1,R31
0025fc c001      	RJMP __DIVW21U3
                 __DIVW21U2:
0025fd 60a1      	SBR  R26,1
                 __DIVW21U3:
0025fe 959a      	DEC  R25
0025ff f799      	BRNE __DIVW21U1
002600 01fd      	MOVW R30,R26
002601 01d0      	MOVW R26,R0
002602 9508      	RET
                 
                 __DIVD21U:
002603 933f      	PUSH R19
002604 934f      	PUSH R20
002605 935f      	PUSH R21
002606 2400      	CLR  R0
002607 2411      	CLR  R1
002608 2744      	CLR  R20
002609 2755      	CLR  R21
00260a e230      	LDI  R19,32
                 __DIVD21U1:
00260b 0faa      	LSL  R26
00260c 1fbb      	ROL  R27
00260d 1f88      	ROL  R24
00260e 1f99      	ROL  R25
00260f 1c00      	ROL  R0
002610 1c11      	ROL  R1
002611 1f44      	ROL  R20
002612 1f55      	ROL  R21
002613 1a0e      	SUB  R0,R30
002614 0a1f      	SBC  R1,R31
002615 0b46      	SBC  R20,R22
002616 0b57      	SBC  R21,R23
002617 f428      	BRCC __DIVD21U2
002618 0e0e      	ADD  R0,R30
002619 1e1f      	ADC  R1,R31
00261a 1f46      	ADC  R20,R22
00261b 1f57      	ADC  R21,R23
00261c c001      	RJMP __DIVD21U3
                 __DIVD21U2:
00261d 60a1      	SBR  R26,1
                 __DIVD21U3:
00261e 953a      	DEC  R19
00261f f759      	BRNE __DIVD21U1
002620 01fd      	MOVW R30,R26
002621 01bc      	MOVW R22,R24
002622 01d0      	MOVW R26,R0
002623 01ca      	MOVW R24,R20
002624 915f      	POP  R21
002625 914f      	POP  R20
002626 913f      	POP  R19
002627 9508      	RET
                 
                 __MODB21:
002628 94e8      	CLT
002629 ffa7      	SBRS R26,7
00262a c002      	RJMP __MODB211
00262b 95a1      	NEG  R26
00262c 9468      	SET
                 __MODB211:
00262d fde7      	SBRC R30,7
00262e 95e1      	NEG  R30
00262f dfad      	RCALL __DIVB21U
002630 2fea      	MOV  R30,R26
002631 f40e      	BRTC __MODB212
002632 95e1      	NEG  R30
                 __MODB212:
002633 9508      	RET
                 
                 __MODW21:
002634 94e8      	CLT
002635 ffb7      	SBRS R27,7
002636 c004      	RJMP __MODW211
002637 95a0      	COM  R26
002638 95b0      	COM  R27
002639 9611      	ADIW R26,1
00263a 9468      	SET
                 __MODW211:
00263b fdf7      	SBRC R31,7
00263c df3f      	RCALL __ANEGW1
00263d dfb2      	RCALL __DIVW21U
00263e 01fd      	MOVW R30,R26
00263f f40e      	BRTC __MODW212
002640 df3b      	RCALL __ANEGW1
                 __MODW212:
002641 9508      	RET
                 
                 __MODD21U:
002642 dfc0      	RCALL __DIVD21U
002643 01fd      	MOVW R30,R26
002644 01bc      	MOVW R22,R24
002645 9508      	RET
                 
                 __CHKSIGNB:
002646 94e8      	CLT
002647 ffe7      	SBRS R30,7
002648 c002      	RJMP __CHKSB1
002649 95e1      	NEG  R30
00264a 9468      	SET
                 __CHKSB1:
00264b ffa7      	SBRS R26,7
00264c c004      	RJMP __CHKSB2
00264d 95a1      	NEG  R26
00264e f800      	BLD  R0,0
00264f 9403      	INC  R0
002650 fa00      	BST  R0,0
                 __CHKSB2:
002651 9508      	RET
                 
                 __CHKSIGND:
002652 94e8      	CLT
002653 ff77      	SBRS R23,7
002654 c002      	RJMP __CHKSD1
002655 df2a      	RCALL __ANEGD1
002656 9468      	SET
                 __CHKSD1:
002657 ff97      	SBRS R25,7
002658 c00b      	RJMP __CHKSD2
002659 2400      	CLR  R0
00265a 95a0      	COM  R26
00265b 95b0      	COM  R27
00265c 9580      	COM  R24
00265d 9590      	COM  R25
00265e 9611      	ADIW R26,1
00265f 1d80      	ADC  R24,R0
002660 1d90      	ADC  R25,R0
002661 f800      	BLD  R0,0
002662 9403      	INC  R0
002663 fa00      	BST  R0,0
                 __CHKSD2:
002664 9508      	RET
                 
                 __GETW1P:
002665 91ed      	LD   R30,X+
002666 91fc      	LD   R31,X
002667 9711      	SBIW R26,1
002668 9508      	RET
                 
                 __GETD1P:
002669 91ed      	LD   R30,X+
00266a 91fd      	LD   R31,X+
00266b 916d      	LD   R22,X+
00266c 917c      	LD   R23,X
00266d 9713      	SBIW R26,3
00266e 9508      	RET
                 
                 __GETW2PF:
00266f 91a5      	LPM  R26,Z+
002670 91b4      	LPM  R27,Z
002671 9508      	RET
                 
                 __GETD1S0:
002672 81e8      	LD   R30,Y
002673 81f9      	LDD  R31,Y+1
002674 816a      	LDD  R22,Y+2
002675 817b      	LDD  R23,Y+3
002676 9508      	RET
                 
                 __GETD2S0:
002677 81a8      	LD   R26,Y
002678 81b9      	LDD  R27,Y+1
002679 818a      	LDD  R24,Y+2
00267a 819b      	LDD  R25,Y+3
00267b 9508      	RET
                 
                 __PUTD1S0:
00267c 83e8      	ST   Y,R30
00267d 83f9      	STD  Y+1,R31
00267e 836a      	STD  Y+2,R22
00267f 837b      	STD  Y+3,R23
002680 9508      	RET
                 
                 __PUTPARD1:
002681 937a      	ST   -Y,R23
002682 936a      	ST   -Y,R22
002683 93fa      	ST   -Y,R31
002684 93ea      	ST   -Y,R30
002685 9508      	RET
                 
                 __PUTPARD2:
002686 939a      	ST   -Y,R25
002687 938a      	ST   -Y,R24
002688 93ba      	ST   -Y,R27
002689 93aa      	ST   -Y,R26
00268a 9508      	RET
                 
                 __SWAPD12:
00268b 2e18      	MOV  R1,R24
00268c 2f86      	MOV  R24,R22
00268d 2d61      	MOV  R22,R1
00268e 2e19      	MOV  R1,R25
00268f 2f97      	MOV  R25,R23
002690 2d71      	MOV  R23,R1
                 
                 __SWAPW12:
002691 2e1b      	MOV  R1,R27
002692 2fbf      	MOV  R27,R31
002693 2df1      	MOV  R31,R1
                 
                 __SWAPB12:
002694 2e1a      	MOV  R1,R26
002695 2fae      	MOV  R26,R30
002696 2de1      	MOV  R30,R1
002697 9508      	RET
                 
                 __EEPROMRDB:
002698 99e1      	SBIC EECR,EEWE
002699 cffe      	RJMP __EEPROMRDB
00269a 93ff      	PUSH R31
00269b b7ff      	IN   R31,SREG
00269c 94f8      	CLI
00269d bbae      	OUT  EEARL,R26
00269e bbbf      	OUT  EEARH,R27
00269f 9ae0      	SBI  EECR,EERE
0026a0 b3ed      	IN   R30,EEDR
0026a1 bfff      	OUT  SREG,R31
0026a2 91ff      	POP  R31
0026a3 9508      	RET
                 
                 __EEPROMWRW:
0026a4 d007      	RCALL __EEPROMWRB
0026a5 9611      	ADIW R26,1
0026a6 93ef      	PUSH R30
0026a7 2fef      	MOV  R30,R31
0026a8 d003      	RCALL __EEPROMWRB
0026a9 91ef      	POP  R30
0026aa 9711      	SBIW R26,1
0026ab 9508      	RET
                 
                 __EEPROMWRB:
0026ac 9be1      	SBIS EECR,EEWE
0026ad c002      	RJMP __EEPROMWRB1
0026ae 95a8      	WDR
0026af cffc      	RJMP __EEPROMWRB
                 __EEPROMWRB1:
0026b0 b79f      	IN   R25,SREG
0026b1 94f8      	CLI
0026b2 bbae      	OUT  EEARL,R26
0026b3 bbbf      	OUT  EEARH,R27
0026b4 9ae0      	SBI  EECR,EERE
0026b5 b38d      	IN   R24,EEDR
0026b6 17e8      	CP   R30,R24
0026b7 f019      	BREQ __EEPROMWRB0
0026b8 bbed      	OUT  EEDR,R30
0026b9 9ae2      	SBI  EECR,EEMWE
0026ba 9ae1      	SBI  EECR,EEWE
                 __EEPROMWRB0:
0026bb bf9f      	OUT  SREG,R25
0026bc 9508      	RET
                 
                 __COPYMEL:
0026bd 2799      	CLR  R25
                 __COPYME:
0026be 93ef      	PUSH R30
0026bf 93ff      	PUSH R31
                 __COPYME0:
0026c0 95a8      	WDR
0026c1 99e1      	SBIC EECR,EEWE
0026c2 cffd      	RJMP __COPYME0
0026c3 b77f      	IN   R23,SREG
0026c4 94f8      	CLI
0026c5 bbee      	OUT  EEARL,R30
0026c6 bbff      	OUT  EEARH,R31
0026c7 9ae0      	SBI  EECR,EERE
0026c8 b36d      	IN   R22,EEDR
0026c9 bf7f      	OUT  SREG,R23
0026ca 9631      	ADIW R30,1
0026cb 936d      	ST   X+,R22
0026cc 9701      	SBIW R24,1
0026cd f791      	BRNE __COPYME0
0026ce 91ff      	POP  R31
0026cf 91ef      	POP  R30
0026d0 9508      	RET
                 
                 __CPD10:
0026d1 9730      	SBIW R30,0
0026d2 4060      	SBCI R22,0
0026d3 4070      	SBCI R23,0
0026d4 9508      	RET
                 
                 __CPW02:
0026d5 2400      	CLR  R0
0026d6 160a      	CP   R0,R26
0026d7 060b      	CPC  R0,R27
0026d8 9508      	RET
                 
                 __SAVELOCR6:
0026d9 935a      	ST   -Y,R21
                 __SAVELOCR5:
0026da 934a      	ST   -Y,R20
                 __SAVELOCR4:
0026db 933a      	ST   -Y,R19
                 __SAVELOCR3:
0026dc 932a      	ST   -Y,R18
                 __SAVELOCR2:
0026dd 931a      	ST   -Y,R17
0026de 930a      	ST   -Y,R16
0026df 9508      	RET
                 
                 __LOADLOCR6:
0026e0 815d      	LDD  R21,Y+5
                 __LOADLOCR5:
0026e1 814c      	LDD  R20,Y+4
                 __LOADLOCR4:
0026e2 813b      	LDD  R19,Y+3
                 __LOADLOCR3:
0026e3 812a      	LDD  R18,Y+2
                 __LOADLOCR2:
0026e4 8119      	LDD  R17,Y+1
0026e5 8108      	LD   R16,Y
0026e6 9508      	RET
                 
                 ;END OF CODE MARKER
                 __END_OF_CODE:


RESOURCE USE INFORMATION
------------------------

Notice:
The register and instruction counts are symbol table hit counts,
and hence implicitly used resources are not counted, eg, the
'lpm' instruction without operands implicitly uses r0 and z,
none of which are counted.

x,y,z are separate entities in the symbol table and are
counted separately from r26..r31 here.

.dseg memory usage only counts static data declared with .byte

ATmega128 register use summary:
r0 : 107 r1 :  49 r2 :   1 r3 :   0 r4 :   0 r5 :   4 r6 :   3 r7 :   3 
r8 :   1 r9 :   1 r10:   1 r11:   3 r12:   4 r13:   4 r14:   0 r15:   6 
r16: 126 r17: 233 r18:  64 r19:  54 r20:  53 r21:  98 r22: 224 r23: 185 
r24: 147 r25: 106 r26: 933 r27: 336 r28:  75 r29:   1 r30:1725 r31: 548 
x  :  87 y  : 823 z  :  53 
Registers used: 32 out of 35 (91.4%)

ATmega128 instruction use summary:
.lds  :   0 .lds.l:   0 .sts  :   0 .sts.l:   0 adc   :  56 add   :  51 
adiw  :  81 and   :  19 andi  :  21 asr   :   4 bclr  :   0 bld   :   5 
brbc  :   0 brbs  :   0 brcc  :  12 brcs  :   7 break :   0 breq  : 117 
brge  :   4 brhc  :   0 brhs  :   0 brid  :   0 brie  :   0 brlo  :  64 
brlt  :   3 brmi  :  11 brne  : 185 brpl  :   9 brsh  :  42 brtc  :   6 
brts  :   1 brvc  :   4 brvs  :   4 bset  :   0 bst   :   4 call  : 951 
cbi   :  28 cbr   :   2 clc   :   3 clh   :   0 cli   :   8 cln   :   0 
clr   : 107 cls   :   0 clt   :   7 clv   :   0 clz   :   2 com   :  26 
cp    :  36 cpc   :  98 cpi   : 272 cpse  :   0 dec   :  17 des   :   0 
elpm  :   0 eor   :  10 fmul  :   0 fmuls :   0 fmulsu:   0 icall :   5 
ijmp  :   0 in    :  29 inc   :   8 jmp   :  73 ld    : 114 ldd   : 356 
ldi   :1081 lds   : 336 lpm   :  19 lsl   :  25 lsr   :   9 mov   : 143 
movw  : 141 mul   :  32 muls  :   1 mulsu :   0 neg   :  11 nop   :   0 
or    :   9 ori   :  15 out   :  82 pop   :  42 push  :  42 rcall : 117 
ret   : 244 reti  :   4 rjmp  : 349 rol   :  43 ror   :  20 sbc   :  17 
sbci  :  62 sbi   :  16 sbic  :   6 sbis  :   1 sbiw  :  57 sbr   :   5 
sbrc  :  10 sbrs  :  25 sec   :   5 seh   :   0 sei   :   1 sen   :   0 
ser   :  11 ses   :   0 set   :   7 sev   :   0 sez   :   1 sleep :   0 
spm   :   0 st    : 337 std   : 141 sts   : 257 sub   :  12 subi  : 144 
swap  :   1 tst   :  28 wdr   :   3 
Instructions used: 85 out of 117 (72.6%)

ATmega128 memory use summary [bytes]:
Segment   Begin    End      Code   Data   Used    Size   Use%
---------------------------------------------------------------
[.cseg] 0x000000 0x004dce  16774   3144  19918  131072  15.2%
[.dseg] 0x000100 0x000fc2      0   2754   2754    4351  63.3%
[.eseg] 0x000000 0x00009f      0    159    159    4096   3.9%

Assembly complete, 0 errors, 38 warnings
